 win32

 Timestamp is 4d3f9d18 (Wed Jan 26 12:03:36 2011)

 Preferred load address is 00400000

 Start         Length     Name                   Class
 0001:00000000 0008038dH .text                   CODE
 0001:00080390 00000d32H .text$x                 CODE
 0002:00000000 00002bb0H .rodata                 CODE
 0003:00000000 0001ac97H .rotext                 CODE
 0004:00000000 00008960H .rdata                  DATA
 0004:00008960 00000044H .rdata$r                DATA
 0004:000089a8 00001118H .xdata$x                DATA
 0004:00009ac0 00000000H .edata                  DATA
 0005:00000000 00000004H .CRT$XCA                DATA
 0005:00000004 00000080H .CRT$XCU                DATA
 0005:00000084 00000004H .CRT$XCZ                DATA
 0005:00000088 00000004H .CRT$XIA                DATA
 0005:0000008c 0000000cH .CRT$XIC                DATA
 0005:00000098 00000004H .CRT$XIY                DATA
 0005:0000009c 00000004H .CRT$XIZ                DATA
 0005:000000a0 00000004H .CRT$XPA                DATA
 0005:000000a4 00000004H .CRT$XPX                DATA
 0005:000000a8 00000004H .CRT$XPZ                DATA
 0005:000000ac 00000004H .CRT$XTA                DATA
 0005:000000b0 00000004H .CRT$XTB                DATA
 0005:000000b4 00000004H .CRT$XTZ                DATA
 0005:000000c0 00010eb8H .data                   DATA
 0005:00010f78 00097becH .bss                    DATA
 0006:00000000 000000a0H .idata$2                DATA
 0006:000000a0 00000014H .idata$3                DATA
 0006:000000b4 00000268H .idata$4                DATA
 0006:0000031c 00000268H .idata$5                DATA
 0006:00000584 00000848H .idata$6                DATA

  Address         Publics by Value              Rva+Base     Lib:Object

 0001:00000000       ?createNew@AMRAudioRTPSink@@SAPAV1@AAVUsageEnvironment@@PAXPAVGroupsock@@EII@Z 00401000 f   AMRAudioRTPSink.obj
 0001:00000080       ??0AMRAudioRTPSink@@IAE@AAVUsageEnvironment@@PAXPAVGroupsock@@EII@Z 00401080 f   AMRAudioRTPSink.obj
 0001:000000f0       ??_EAMRAudioRTPSink@@MAEPAXI@Z 004010f0 f i AMRAudioRTPSink.obj
 0001:000000f0       ??_GAMRAudioRTPSink@@MAEPAXI@Z 004010f0 f i AMRAudioRTPSink.obj
 0001:00000110       ??1AMRAudioRTPSink@@MAE@XZ 00401110 f   AMRAudioRTPSink.obj
 0001:00000170       ?sourceIsCompatibleWithUs@AMRAudioRTPSink@@EAEIAAVMediaSource@@@Z 00401170 f   AMRAudioRTPSink.obj
 0001:000001e0       ?doSpecialFrameHandling@AMRAudioRTPSink@@EAEXIPAEIUtimeval@@I@Z 004011e0 f   AMRAudioRTPSink.obj
 0001:00000290       ?frameCanAppearAfterPacketStart@AMRAudioRTPSink@@EBEIPBEI@Z 00401290 f   AMRAudioRTPSink.obj
 0001:000002a0       ?specialHeaderSize@AMRAudioRTPSink@@EBEIXZ 004012a0 f   AMRAudioRTPSink.obj
 0001:000002b0       ?auxSDPLine@AMRAudioRTPSink@@EAEPBDXZ 004012b0 f   AMRAudioRTPSink.obj
 0001:00000300       ??0AMRAudioSource@@IAE@AAVUsageEnvironment@@II@Z 00401300 f   AMRAudioSource.obj
 0001:00000330       ??_GAMRAudioSource@@MAEPAXI@Z 00401330 f i AMRAudioSource.obj
 0001:00000330       ??_EAMRAudioSource@@MAEPAXI@Z 00401330 f i AMRAudioSource.obj
 0001:00000350       ??1AMRAudioSource@@MAE@XZ  00401350 f   AMRAudioSource.obj
 0001:00000360       ?isAMRAudioSource@AMRAudioSource@@UBEIXZ 00401360 f   AMRAudioSource.obj
 0001:00000370       ??0AudioRTPSink@@IAE@AAVUsageEnvironment@@PAXPAVGroupsock@@EIPBDI@Z 00401370 f   AudioRTPSink.obj
 0001:000003b0       ??_GAudioRTPSink@@MAEPAXI@Z 004013b0 f i AudioRTPSink.obj
 0001:000003b0       ??_EAudioRTPSink@@MAEPAXI@Z 004013b0 f i AudioRTPSink.obj
 0001:000003d0       ??1AudioRTPSink@@MAE@XZ    004013d0 f   AudioRTPSink.obj
 0001:000003e0       ?sdpMediaType@AudioRTPSink@@EBEPBDXZ 004013e0 f   AudioRTPSink.obj
 0001:000003f0       ??0BasicHashTable@@QAE@H@Z 004013f0 f   BasicHashTable.obj
 0001:00000450       ??_GBasicHashTable@@UAEPAXI@Z 00401450 f i BasicHashTable.obj
 0001:00000450       ??_EBasicHashTable@@UAEPAXI@Z 00401450 f i BasicHashTable.obj
 0001:00000470       ??1BasicHashTable@@UAE@XZ  00401470 f   BasicHashTable.obj
 0001:00000500       ?Add@BasicHashTable@@EAEPAXPBDPAX@Z 00401500 f   BasicHashTable.obj
 0001:00000550       ?Remove@BasicHashTable@@EAEIPBD@Z 00401550 f   BasicHashTable.obj
 0001:00000590       ?Lookup@BasicHashTable@@EBEPAXPBD@Z 00401590 f   BasicHashTable.obj
 0001:000005b0       ?numEntries@BasicHashTable@@EBEIXZ 004015b0 f   BasicHashTable.obj
 0001:000005c0       ??0Iterator@BasicHashTable@@QAE@AAV1@@Z 004015c0 f   BasicHashTable.obj
 0001:000005f0       ??_GIterator@BasicHashTable@@UAEPAXI@Z 004015f0 f i BasicHashTable.obj
 0001:000005f0       ??_EIterator@BasicHashTable@@UAEPAXI@Z 004015f0 f i BasicHashTable.obj
 0001:00000610       ??1Iterator@BasicHashTable@@UAE@XZ 00401610 f i BasicHashTable.obj
 0001:00000620       ?next@Iterator@BasicHashTable@@EAEPAXAAPBD@Z 00401620 f   BasicHashTable.obj
 0001:00000670       ?create@HashTable@@SAPAV1@H@Z 00401670 f   BasicHashTable.obj
 0001:000006d0       ?create@Iterator@HashTable@@SAPAV12@AAV2@@Z 004016d0 f   BasicHashTable.obj
 0001:00000730       ?lookupKey@BasicHashTable@@ABEPAVTableEntry@1@PBDAAI@Z 00401730 f   BasicHashTable.obj
 0001:00000770       ?keyMatches@BasicHashTable@@ABEIPBD0@Z 00401770 f   BasicHashTable.obj
 0001:00000820       ?insertNewEntry@BasicHashTable@@AAEPAVTableEntry@1@IPBD@Z 00401820 f   BasicHashTable.obj
 0001:00000860       ?assignKey@BasicHashTable@@AAEXPAVTableEntry@1@PBD@Z 00401860 f   BasicHashTable.obj
 0001:000008e0       ?deleteEntry@BasicHashTable@@AAEXIPAVTableEntry@1@@Z 004018e0 f   BasicHashTable.obj
 0001:00000930       ?deleteKey@BasicHashTable@@AAEXPAVTableEntry@1@@Z 00401930 f   BasicHashTable.obj
 0001:00000960       ?rebuild@BasicHashTable@@AAEXXZ 00401960 f   BasicHashTable.obj
 0001:00000a20       ?hashIndexFromKey@BasicHashTable@@ABEIPBD@Z 00401a20 f   BasicHashTable.obj
 0001:00000a90       ?createNew@BasicTaskScheduler@@SAPAV1@XZ 00401a90 f   BasicTaskScheduler.obj
 0001:00000af0       ??0BasicTaskScheduler@@IAE@XZ 00401af0 f   BasicTaskScheduler.obj
 0001:00000b20       ??_EBasicTaskScheduler@@UAEPAXI@Z 00401b20 f i BasicTaskScheduler.obj
 0001:00000b20       ??_GBasicTaskScheduler@@UAEPAXI@Z 00401b20 f i BasicTaskScheduler.obj
 0001:00000b40       ??1BasicTaskScheduler@@UAE@XZ 00401b40 f   BasicTaskScheduler.obj
 0001:00000b50       ?dump_fdset@@YAXPAUfd_set@@@Z 00401b50 f   BasicTaskScheduler.obj
 0001:00000bb0       ?SingleStep@BasicTaskScheduler@@MAEXI@Z 00401bb0 f   BasicTaskScheduler.obj
 0001:00000fb0       ?setBackgroundHandling@BasicTaskScheduler@@MAEXHHP6AXPAXH@Z0@Z 00401fb0 f   BasicTaskScheduler.obj
 0001:00001200       ?moveSocketHandling@BasicTaskScheduler@@MAEXHH@Z 00402200 f   BasicTaskScheduler.obj
 0001:00001360       ??0BasicTaskScheduler0@@IAE@XZ 00402360 f   BasicTaskScheduler0.obj
 0001:000013f0       ??_EBasicTaskScheduler0@@UAEPAXI@Z 004023f0 f i BasicTaskScheduler0.obj
 0001:000013f0       ??_GBasicTaskScheduler0@@UAEPAXI@Z 004023f0 f i BasicTaskScheduler0.obj
 0001:00001410       ??1BasicTaskScheduler0@@UAE@XZ 00402410 f   BasicTaskScheduler0.obj
 0001:00001480       ?scheduleDelayedTask@BasicTaskScheduler0@@UAEPAX_JP6AXPAX@Z1@Z 00402480 f   BasicTaskScheduler0.obj
 0001:00001560       ?handleTimeout@AlarmHandler@@EAEXXZ 00402560 f i BasicTaskScheduler0.obj
 0001:00001580       ??_EAlarmHandler@@UAEPAXI@Z 00402580 f i BasicTaskScheduler0.obj
 0001:00001580       ??_GAlarmHandler@@UAEPAXI@Z 00402580 f i BasicTaskScheduler0.obj
 0001:000015a0       ??1AlarmHandler@@UAE@XZ    004025a0 f i BasicTaskScheduler0.obj
 0001:000015b0       ?unscheduleDelayedTask@BasicTaskScheduler0@@UAEXAAPAX@Z 004025b0 f   BasicTaskScheduler0.obj
 0001:000015e0       ?doEventLoop@BasicTaskScheduler0@@UAEXPAD@Z 004025e0 f   BasicTaskScheduler0.obj
 0001:00001610       ??0HandlerDescriptor@@AAE@PAV0@@Z 00402610 f   BasicTaskScheduler0.obj
 0001:00001650       ??_EHandlerDescriptor@@EAEPAXI@Z 00402650 f i BasicTaskScheduler0.obj
 0001:00001650       ??_GHandlerDescriptor@@EAEPAXI@Z 00402650 f i BasicTaskScheduler0.obj
 0001:00001670       ??1HandlerDescriptor@@EAE@XZ 00402670 f   BasicTaskScheduler0.obj
 0001:00001690       ??0HandlerSet@@QAE@XZ      00402690 f   BasicTaskScheduler0.obj
 0001:000016b0       ??_EHandlerSet@@UAEPAXI@Z  004026b0 f i BasicTaskScheduler0.obj
 0001:000016b0       ??_GHandlerSet@@UAEPAXI@Z  004026b0 f i BasicTaskScheduler0.obj
 0001:000016d0       ??1HandlerSet@@UAE@XZ      004026d0 f   BasicTaskScheduler0.obj
 0001:00001730       ?assignHandler@HandlerSet@@QAEXHHP6AXPAXH@Z0@Z 00402730 f   BasicTaskScheduler0.obj
 0001:00001780       ?clearHandler@HandlerSet@@QAEXH@Z 00402780 f   BasicTaskScheduler0.obj
 0001:000017a0       ?moveHandler@HandlerSet@@QAEXHH@Z 004027a0 f   BasicTaskScheduler0.obj
 0001:000017c0       ?lookupHandler@HandlerSet@@AAEPAVHandlerDescriptor@@H@Z 004027c0 f   BasicTaskScheduler0.obj
 0001:00001840       ??0HandlerIterator@@QAE@AAVHandlerSet@@@Z 00402840 f   BasicTaskScheduler0.obj
 0001:00001860       ??_GHandlerIterator@@UAEPAXI@Z 00402860 f i BasicTaskScheduler0.obj
 0001:00001860       ??_EHandlerIterator@@UAEPAXI@Z 00402860 f i BasicTaskScheduler0.obj
 0001:00001880       ??1HandlerIterator@@UAE@XZ 00402880 f   BasicTaskScheduler0.obj
 0001:00001890       ?reset@HandlerIterator@@QAEXXZ 00402890 f   BasicTaskScheduler0.obj
 0001:000018a0       ?next@HandlerIterator@@QAEPAVHandlerDescriptor@@XZ 004028a0 f   BasicTaskScheduler0.obj
 0001:00001980       ?createNew@BasicUDPSink@@SAPAV1@AAVUsageEnvironment@@PAVGroupsock@@I@Z 00402980 f   BasicUDPSink.obj
 0001:000019f0       ??0BasicUDPSink@@IAE@AAVUsageEnvironment@@PAVGroupsock@@I@Z 004029f0 f   BasicUDPSink.obj
 0001:00001a60       ??_EBasicUDPSink@@MAEPAXI@Z 00402a60 f i BasicUDPSink.obj
 0001:00001a60       ??_GBasicUDPSink@@MAEPAXI@Z 00402a60 f i BasicUDPSink.obj
 0001:00001a80       ??1BasicUDPSink@@MAE@XZ    00402a80 f   BasicUDPSink.obj
 0001:00001ae0       ?continuePlaying@BasicUDPSink@@EAEIXZ 00402ae0 f   BasicUDPSink.obj
 0001:00001b00       ?continuePlaying1@BasicUDPSink@@AAEXXZ 00402b00 f   BasicUDPSink.obj
 0001:00001b30       ?afterGettingFrame@BasicUDPSink@@CAXPAXIIUtimeval@@I@Z 00402b30 f   BasicUDPSink.obj
 0001:00001b50       ?afterGettingFrame1@BasicUDPSink@@AAEXIII@Z 00402b50 f   BasicUDPSink.obj
 0001:00001c40       ?sendNext@BasicUDPSink@@CAXPAX@Z 00402c40 f   BasicUDPSink.obj
 0001:00001c50       ??0BasicUsageEnvironment@@IAE@AAVTaskScheduler@@@Z 00402c50 f   BasicUsageEnvironment.obj
 0001:00001cc0       ??_GBasicUsageEnvironment@@MAEPAXI@Z 00402cc0 f i BasicUsageEnvironment.obj
 0001:00001cc0       ??_EBasicUsageEnvironment@@MAEPAXI@Z 00402cc0 f i BasicUsageEnvironment.obj
 0001:00001ce0       ??1BasicUsageEnvironment@@MAE@XZ 00402ce0 f   BasicUsageEnvironment.obj
 0001:00001cf0       ?createNew@BasicUsageEnvironment@@SAPAV1@AAVTaskScheduler@@@Z 00402cf0 f   BasicUsageEnvironment.obj
 0001:00001d50       ?getErrno@BasicUsageEnvironment@@UBEHXZ 00402d50 f   BasicUsageEnvironment.obj
 0001:00001d60       ??6BasicUsageEnvironment@@UAEAAVUsageEnvironment@@PBD@Z 00402d60 f   BasicUsageEnvironment.obj
 0001:00001d90       ??6BasicUsageEnvironment@@UAEAAVUsageEnvironment@@H@Z 00402d90 f   BasicUsageEnvironment.obj
 0001:00001db0       ??6BasicUsageEnvironment@@UAEAAVUsageEnvironment@@I@Z 00402db0 f   BasicUsageEnvironment.obj
 0001:00001dd0       ??6BasicUsageEnvironment@@UAEAAVUsageEnvironment@@N@Z 00402dd0 f   BasicUsageEnvironment.obj
 0001:00001e00       ??6BasicUsageEnvironment@@UAEAAVUsageEnvironment@@PAX@Z 00402e00 f   BasicUsageEnvironment.obj
 0001:00001ee0       ??0BasicUsageEnvironment0@@IAE@AAVTaskScheduler@@@Z 00402ee0 f   BasicUsageEnvironment0.obj
 0001:00001f40       ??_EBasicUsageEnvironment0@@MAEPAXI@Z 00402f40 f i BasicUsageEnvironment0.obj
 0001:00001f40       ??_GBasicUsageEnvironment0@@MAEPAXI@Z 00402f40 f i BasicUsageEnvironment0.obj
 0001:00001f60       ??1BasicUsageEnvironment0@@MAE@XZ 00402f60 f   BasicUsageEnvironment0.obj
 0001:00001f70       ?reset@BasicUsageEnvironment0@@AAEXXZ 00402f70 f   BasicUsageEnvironment0.obj
 0001:00001f80       ?getResultMsg@BasicUsageEnvironment0@@UBEPBDXZ 00402f80 f   BasicUsageEnvironment0.obj
 0001:00001f90       ?setResultMsg@BasicUsageEnvironment0@@UAEXPBD@Z 00402f90 f   BasicUsageEnvironment0.obj
 0001:00001fb0       ?setResultMsg@BasicUsageEnvironment0@@UAEXPBD0@Z 00402fb0 f   BasicUsageEnvironment0.obj
 0001:00001fd0       ?setResultMsg@BasicUsageEnvironment0@@UAEXPBD00@Z 00402fd0 f   BasicUsageEnvironment0.obj
 0001:00002000       ?setResultErrMsg@BasicUsageEnvironment0@@UAEXPBDH@Z 00403000 f   BasicUsageEnvironment0.obj
 0001:00002040       ?appendToResultMsg@BasicUsageEnvironment0@@UAEXPBD@Z 00403040 f   BasicUsageEnvironment0.obj
 0001:000020a0       ?reportBackgroundError@BasicUsageEnvironment0@@UAEXXZ 004030a0 f   BasicUsageEnvironment0.obj
 0001:00002180       ??PTimeval@@QBEHABV0@@Z    00403180 f   DelayQueue.obj
 0001:000021b0       ??YTimeval@@QAEXABVDelayInterval@@@Z 004031b0 f   DelayQueue.obj
 0001:000021f0       ??ZTimeval@@QAEXABVDelayInterval@@@Z 004031f0 f   DelayQueue.obj
 0001:00002240       ??G@YA?AVDelayInterval@@ABVTimeval@@0@Z 00403240 f   DelayQueue.obj
 0001:00002290       ??D@YA?AVDelayInterval@@FABV0@@Z 00403290 f   DelayQueue.obj
 0001:00002360       ??0DelayQueueEntry@@IAE@VDelayInterval@@@Z 00403360 f   DelayQueue.obj
 0001:00002390       ??_EDelayQueueEntry@@UAEPAXI@Z 00403390 f i DelayQueue.obj
 0001:00002390       ??_GDelayQueueEntry@@UAEPAXI@Z 00403390 f i DelayQueue.obj
 0001:000023b0       ??1DelayQueueEntry@@UAE@XZ 004033b0 f   DelayQueue.obj
 0001:000023c0       ?handleTimeout@DelayQueueEntry@@MAEXXZ 004033c0 f   DelayQueue.obj
 0001:000023d0       ??0DelayQueue@@QAE@XZ      004033d0 f   DelayQueue.obj
 0001:00002440       ??_GDelayQueue@@UAEPAXI@Z  00403440 f i DelayQueue.obj
 0001:00002440       ??_EDelayQueue@@UAEPAXI@Z  00403440 f i DelayQueue.obj
 0001:00002460       ??1DelayQueue@@UAE@XZ      00403460 f   DelayQueue.obj
 0001:000024c0       ?addEntry@DelayQueue@@QAEXPAVDelayQueueEntry@@@Z 004034c0 f   DelayQueue.obj
 0001:00002520       ?updateEntry@DelayQueue@@QAEXPAVDelayQueueEntry@@VDelayInterval@@@Z 00403520 f   DelayQueue.obj
 0001:00002550       ?updateEntry@DelayQueue@@QAEXJVDelayInterval@@@Z 00403550 f   DelayQueue.obj
 0001:00002580       ?removeEntry@DelayQueue@@QAEXPAVDelayQueueEntry@@@Z 00403580 f   DelayQueue.obj
 0001:000025c0       ?removeEntry@DelayQueue@@QAEPAVDelayQueueEntry@@J@Z 004035c0 f   DelayQueue.obj
 0001:000025e0       ?timeToNextAlarm@DelayQueue@@QAEABVDelayInterval@@XZ 004035e0 f   DelayQueue.obj
 0001:00002630       ?handleAlarm@DelayQueue@@QAEXXZ 00403630 f   DelayQueue.obj
 0001:000026a0       ?findEntryByToken@DelayQueue@@AAEPAVDelayQueueEntry@@J@Z 004036a0 f   DelayQueue.obj
 0001:00002700       ?synchronize@DelayQueue@@AAEXXZ 00403700 f   DelayQueue.obj
 0001:00002850       ?TimeNow@@YA?AVEventTime@@XZ 00403850 f   DelayQueue.obj
 0001:000028b0       ??0Authenticator@@QAE@XZ   004038b0 f   DigestAuthentication.obj
 0001:000028d0       ??_GAuthenticator@@UAEPAXI@Z 004038d0 f i DigestAuthentication.obj
 0001:000028d0       ??_EAuthenticator@@UAEPAXI@Z 004038d0 f i DigestAuthentication.obj
 0001:000028f0       ??0Authenticator@@QAE@PBD0@Z 004038f0 f   DigestAuthentication.obj
 0001:00002920       ??0Authenticator@@QAE@ABV0@@Z 00403920 f   DigestAuthentication.obj
 0001:00002950       ??4Authenticator@@QAEAAV0@ABV0@@Z 00403950 f   DigestAuthentication.obj
 0001:00002990       ??1Authenticator@@UAE@XZ   00403990 f   DigestAuthentication.obj
 0001:000029a0       ?reset@Authenticator@@QAEXXZ 004039a0 f   DigestAuthentication.obj
 0001:000029c0       ?setRealmAndNonce@Authenticator@@QAEXPBD0@Z 004039c0 f   DigestAuthentication.obj
 0001:000029e0       ?setRealmAndRandomNonce@Authenticator@@QAEXPBD@Z 004039e0 f   DigestAuthentication.obj
 0001:00002a40       ?setUsernameAndPassword@Authenticator@@QAEXPBD0I@Z 00403a40 f   DigestAuthentication.obj
 0001:00002a70       ?computeDigestResponse@Authenticator@@QBEPBDPBD0@Z 00403a70 f   DigestAuthentication.obj
 0001:00002bb0       ?reclaimDigestResponse@Authenticator@@QBEXPBD@Z 00403bb0 f   DigestAuthentication.obj
 0001:00002bc0       ?resetRealmAndNonce@Authenticator@@AAEXXZ 00403bc0 f   DigestAuthentication.obj
 0001:00002bf0       ?resetUsernameAndPassword@Authenticator@@AAEXXZ 00403bf0 f   DigestAuthentication.obj
 0001:00002c20       ?assignRealmAndNonce@Authenticator@@AAEXPBD0@Z 00403c20 f   DigestAuthentication.obj
 0001:00002c50       ?assignUsernameAndPassword@Authenticator@@AAEXPBD0I@Z 00403c50 f   DigestAuthentication.obj
 0001:00002c80       ?assign@Authenticator@@AAEXPBD000I@Z 00403c80 f   DigestAuthentication.obj
 0001:00002cb0       ?Hik_ReleaseInstance@@YAXPAU_HikInstance@@@Z 00403cb0 f   DvrWnd.obj
 0001:00002cd0       ?CreateWnd@@YAPAUHWND__@@XZ 00403cd0 f   DvrWnd.obj
 0001:00002e20       ?MessageLoop@@YGKPAX@Z     00403e20 f   DvrWnd.obj
 0001:00002ea0       ?StopHikMessageLoop@@YAXPAU_HikInstance@@@Z 00403ea0 f   DvrWnd.obj
 0001:00002ec0       ?createNewRTPSink@EncoderMediaSubsession@@MAEPAVRTPSink@@PAVGroupsock@@EPAVFramedSource@@@Z 00403ec0 f   EncoderMediaSubsession.obj
 0001:00002f10       ?createNewVideoSource@EncoderMediaSubsession@@MAEPAVFramedSource@@IAAI@Z 00403f10 f   EncoderMediaSubsession.obj
 0001:00002f60       ?createNewAudioSource@EncoderMediaSubsession@@MAEPAVFramedSource@@IAAI@Z 00403f60 f   EncoderMediaSubsession.obj
 0001:00002fa0       ?SetVideoParameters@EncoderMediaSubsession@@QAEXEHHHHHPAD@Z 00403fa0 f   EncoderMediaSubsession.obj
 0001:00003020       ?SetAudioParameters@EncoderMediaSubsession@@QAEXHHHPAD@Z 00404020 f   EncoderMediaSubsession.obj
 0001:00003080       ?createNew@EncoderMediaSubsession@@SAPAV1@AAVUsageEnvironment@@PAXIIG@Z 00404080 f   EncoderMediaSubsession.obj
 0001:00003100       ??0EncoderMediaSubsession@@IAE@AAVUsageEnvironment@@PAXIIG@Z 00404100 f   EncoderMediaSubsession.obj
 0001:000031a0       ??_GEncoderMediaSubsession@@MAEPAXI@Z 004041a0 f i EncoderMediaSubsession.obj
 0001:000031a0       ??_EEncoderMediaSubsession@@MAEPAXI@Z 004041a0 f i EncoderMediaSubsession.obj
 0001:000031c0       ??1EncoderMediaSubsession@@MAE@XZ 004041c0 f   EncoderMediaSubsession.obj
 0001:00003230       ?sdpLines@EncoderMediaSubsession@@MAEPBDXZ 00404230 f   EncoderMediaSubsession.obj
 0001:00003370       ?envir@Medium@@QBEAAVUsageEnvironment@@XZ 00404370 f i EncoderMediaSubsession.obj
 0001:00003380       ?getStreamParameters@EncoderMediaSubsession@@MAEXIIABVPort@@0HEEAAIAAE1AAV2@3AAPAX@Z 00404380 f   EncoderMediaSubsession.obj
 0001:000037a0       ?startStream@EncoderMediaSubsession@@MAEXIPAXP6AX0@Z0AAGAAIP6AX0E@Z00II@Z 004047a0 f   EncoderMediaSubsession.obj
 0001:000038a0       ?pauseStream@EncoderMediaSubsession@@MAEXIPAX@Z 004048a0 f   EncoderMediaSubsession.obj
 0001:00003910       ?seekStream@EncoderMediaSubsession@@MAEXIPAXN@Z 00404910 f   EncoderMediaSubsession.obj
 0001:00003940       ?setStreamScale@EncoderMediaSubsession@@MAEXIPAXM@Z 00404940 f   EncoderMediaSubsession.obj
 0001:00003970       ?deleteStream@EncoderMediaSubsession@@MAEXIAAPAX@Z 00404970 f   EncoderMediaSubsession.obj
 0001:00003a00       ?getAuxSDPLine@EncoderMediaSubsession@@MAEPBDPAVRTPSink@@PAVFramedSource@@@Z 00404a00 f   EncoderMediaSubsession.obj
 0001:00003a20       ?seekStreamSource@EncoderMediaSubsession@@MAEXPAVFramedSource@@N@Z 00404a20 f   EncoderMediaSubsession.obj
 0001:00003a30       ?setStreamSourceScale@EncoderMediaSubsession@@MAEXPAVFramedSource@@M@Z 00404a30 f   EncoderMediaSubsession.obj
 0001:00003a40       ?closeStreamSource@EncoderMediaSubsession@@MAEXPAVFramedSource@@@Z 00404a40 f   EncoderMediaSubsession.obj
 0001:00003a50       ?setSDPLinesFromRTPSink@EncoderMediaSubsession@@AAEXPAVRTPSink@@PAVFramedSource@@I@Z 00404a50 f   EncoderMediaSubsession.obj
 0001:00003b90       ??0StreamState@@QAE@AAVEncoderMediaSubsession@@ABVPort@@1PAVRTPSink@@PAVBasicUDPSink@@IPAVFramedSource@@PAVGroupsock@@5@Z 00404b90 f   EncoderMediaSubsession.obj
 0001:00003c10       ??_GStreamState@@UAEPAXI@Z 00404c10 f i EncoderMediaSubsession.obj
 0001:00003c10       ??_EStreamState@@UAEPAXI@Z 00404c10 f i EncoderMediaSubsession.obj
 0001:00003c30       ??1StreamState@@UAE@XZ     00404c30 f   EncoderMediaSubsession.obj
 0001:00003c40       ?startPlaying@StreamState@@QAEXPAVDestinations@@P6AXPAX@Z1P6AX1E@Z1@Z 00404c40 f   EncoderMediaSubsession.obj
 0001:00003db0       ?pause@StreamState@@QAEXXZ 00404db0 f   EncoderMediaSubsession.obj
 0001:00003de0       ?endPlaying@StreamState@@QAEXPAVDestinations@@PAD1@Z 00404de0 f   EncoderMediaSubsession.obj
 0001:00003f90       ?reclaim@StreamState@@QAEXXZ 00404f90 f   EncoderMediaSubsession.obj
 0001:00003ff0       ?createNew@EncoderVideoSource@@SAPAV1@AAVUsageEnvironment@@IIIIIPAD@Z 00404ff0 f   EncoderSource.obj
 0001:00004070       ??0EncoderVideoSource@@IAE@AAVUsageEnvironment@@IIIIIW4VideoCodec@0@PAD@Z 00405070 f   EncoderSource.obj
 0001:00004240       ??_GEncoderVideoSource@@MAEPAXI@Z 00405240 f i EncoderSource.obj
 0001:00004240       ??_EEncoderVideoSource@@MAEPAXI@Z 00405240 f i EncoderSource.obj
 0001:00004260       ??1EncoderVideoSource@@MAE@XZ 00405260 f   EncoderSource.obj
 0001:000042f0       ?isMPEG4VideoStreamFramer@EncoderVideoSource@@EBEIXZ 004052f0 f   EncoderSource.obj
 0001:00004300       ?isH264VideoStreamFramer@EncoderVideoSource@@EBEIXZ 00405300 f   EncoderSource.obj
 0001:00004310       ?doGetNextFrame@EncoderVideoSource@@EAEXXZ 00405310 f   EncoderSource.obj
 0001:00004330       ?MPEG4_doGetNextFrame@EncoderVideoSource@@AAEXXZ 00405330 f   EncoderSource.obj
 0001:00004470       ?getLivehdFrame@EncoderVideoSource@@AAEHXZ 00405470 f   EncoderSource.obj
 0001:00004900       ?H264_doGetNextFrame@EncoderVideoSource@@AAEXXZ 00405900 f   EncoderSource.obj
 0001:00004910       ?computePresentationTime@EncoderVideoSource@@AAEHXZ 00405910 f   EncoderSource.obj
 0001:00004a70       ?reset@EncoderVideoSource@@QAEXXZ 00405a70 f   EncoderSource.obj
 0001:00004a80       ?getConfigBytes@EncoderVideoSource@@QBEPAEAAI@Z 00405a80 f   EncoderSource.obj
 0001:00004aa0       ?createNew@EncoderAudioSource@@SAPAV1@AAVUsageEnvironment@@IIIPAD@Z 00405aa0 f   EncoderSource.obj
 0001:00004b20       ??0EncoderAudioSource@@IAE@AAVUsageEnvironment@@IIIW4AudioCodec@0@PAD@Z 00405b20 f   EncoderSource.obj
 0001:00004bf0       ??_GEncoderAudioSource@@MAEPAXI@Z 00405bf0 f i EncoderSource.obj
 0001:00004bf0       ??_EEncoderAudioSource@@MAEPAXI@Z 00405bf0 f i EncoderSource.obj
 0001:00004c10       ??1EncoderAudioSource@@MAE@XZ 00405c10 f   EncoderSource.obj
 0001:00004c80       ?isAMRAudioSource@EncoderAudioSource@@EBEIXZ 00405c80 f   EncoderSource.obj
 0001:00004c90       ?computeAudioPresentationTime@EncoderAudioSource@@AAEHXZ 00405c90 f   EncoderSource.obj
 0001:00004d30       ?doGetNextFrame@EncoderAudioSource@@EAEXXZ 00405d30 f   EncoderSource.obj
 0001:00004df0       ?RecordExceptionInfo@@YAHPAU_EXCEPTION_POINTERS@@PBD@Z 00405df0 f   ExceptionHandler.obj
 0001:00005ef0       ??0FramedFilter@@IAE@AAVUsageEnvironment@@PAVFramedSource@@@Z 00406ef0 f   FramedFilter.obj
 0001:00005f10       ??_EFramedFilter@@MAEPAXI@Z 00406f10 f i FramedFilter.obj
 0001:00005f10       ??_GFramedFilter@@MAEPAXI@Z 00406f10 f i FramedFilter.obj
 0001:00005f30       ??1FramedFilter@@MAE@XZ    00406f30 f   FramedFilter.obj
 0001:00005f90       ?MIMEtype@FramedFilter@@MBEPBDXZ 00406f90 f   FramedFilter.obj
 0001:00005fb0       ?getAttributes@FramedFilter@@MBEXXZ 00406fb0 f   FramedFilter.obj
 0001:00005fc0       ?doStopGettingFrames@FramedFilter@@MAEXXZ 00406fc0 f   FramedFilter.obj
 0001:00005fd0       ??0FramedSource@@IAE@AAVUsageEnvironment@@@Z 00406fd0 f   FramedSource.obj
 0001:00006000       ??_EFramedSource@@MAEPAXI@Z 00407000 f i FramedSource.obj
 0001:00006000       ??_GFramedSource@@MAEPAXI@Z 00407000 f i FramedSource.obj
 0001:00006020       ??1FramedSource@@MAE@XZ    00407020 f   FramedSource.obj
 0001:00006030       ?isFramedSource@FramedSource@@EBEIXZ 00407030 f   FramedSource.obj
 0001:00006040       ?lookupByName@FramedSource@@SAIAAVUsageEnvironment@@PBDAAPAV1@@Z 00407040 f   FramedSource.obj
 0001:000060a0       ?getNextFrame@FramedSource@@QAEXPAEIP6AXPAXIIUtimeval@@I@Z1P6AX1@Z1@Z 004070a0 f   FramedSource.obj
 0001:00006120       ?afterGetting@FramedSource@@KAXPAV1@@Z 00407120 f   FramedSource.obj
 0001:00006150       ?handleClosure@FramedSource@@SAXPAX@Z 00407150 f   FramedSource.obj
 0001:00006170       ?stopGettingFrames@FramedSource@@QAEXXZ 00407170 f   FramedSource.obj
 0001:00006180       ?doStopGettingFrames@FramedSource@@MAEXXZ 00407180 f   FramedSource.obj
 0001:00006190       ?maxFrameSize@FramedSource@@UBEIXZ 00407190 f   FramedSource.obj
 0001:000061a0       ?GetWinVer@@YAHPADPAH0@Z   004071a0 f   GetWinVer.obj
 0001:00006490       ?assign@Scope@@AAEXEPBD@Z  00407490 f   GroupEId.obj
 0001:000064c0       ?clean@Scope@@AAEXXZ       004074c0 f   GroupEId.obj
 0001:000064e0       ??0Scope@@QAE@EPBD@Z       004074e0 f   GroupEId.obj
 0001:00006500       ??0Scope@@QAE@ABV0@@Z      00407500 f   GroupEId.obj
 0001:00006520       ??4Scope@@QAEAAV0@ABV0@@Z  00407520 f   GroupEId.obj
 0001:000065a0       ??1Scope@@QAE@XZ           004075a0 f   GroupEId.obj
 0001:000065b0       ?publicKeySize@Scope@@QBEIXZ 004075b0 f   GroupEId.obj
 0001:000065d0       ??0GroupEId@@QAE@ABUin_addr@@GABVScope@@I@Z 004075d0 f   GroupEId.obj
 0001:00006640       ??0GroupEId@@QAE@ABUin_addr@@0GI@Z 00407640 f   GroupEId.obj
 0001:000066d0       ??0GroupEId@@QAE@XZ        004076d0 f   GroupEId.obj
 0001:000066f0       ?isSSM@GroupEId@@QBEIXZ    004076f0 f   GroupEId.obj
 0001:00006700       ?init@GroupEId@@AAEXABUin_addr@@0GABVScope@@I@Z 00407700 f   GroupEId.obj
 0001:00006740       ??0OutputSocket@@QAE@AAVUsageEnvironment@@@Z 00407740 f   Groupsock.obj
 0001:000067b0       ??_EOutputSocket@@UAEPAXI@Z 004077b0 f i Groupsock.obj
 0001:000067b0       ??_GOutputSocket@@UAEPAXI@Z 004077b0 f i Groupsock.obj
 0001:000067d0       ??0OutputSocket@@IAE@AAVUsageEnvironment@@VPort@@@Z 004077d0 f   Groupsock.obj
 0001:00006830       ??1OutputSocket@@UAE@XZ    00407830 f   Groupsock.obj
 0001:00006840       ?write@OutputSocket@@QAEIIVPort@@EPAEI@Z 00407840 f   Groupsock.obj
 0001:00006900       ?handleRead@OutputSocket@@EAEIPAEIAAIAAUsockaddr_in@@@Z 00407900 f   Groupsock.obj
 0001:00006910       ??0destRecord@@QAE@ABUin_addr@@ABVPort@@EPAV0@@Z 00407910 f   Groupsock.obj
 0001:000069a0       ??_EdestRecord@@UAEPAXI@Z  004079a0 f i Groupsock.obj
 0001:000069a0       ??_GdestRecord@@UAEPAXI@Z  004079a0 f i Groupsock.obj
 0001:000069c0       ??1GroupEId@@QAE@XZ        004079c0 f i Groupsock.obj
 0001:000069d0       ??1destRecord@@UAE@XZ      004079d0 f   Groupsock.obj
 0001:00006ab0       ??0Groupsock@@QAE@AAVUsageEnvironment@@ABUin_addr@@VPort@@E@Z 00407ab0 f   Groupsock.obj
 0001:00006c40       ??_EGroupsock@@UAEPAXI@Z   00407c40 f i Groupsock.obj
 0001:00006c40       ??_GGroupsock@@UAEPAXI@Z   00407c40 f i Groupsock.obj
 0001:00006c60       ??0Groupsock@@QAE@AAVUsageEnvironment@@ABUin_addr@@1VPort@@@Z 00407c60 f   Groupsock.obj
 0001:00006df0       ??1Groupsock@@UAE@XZ       00407df0 f   Groupsock.obj
 0001:00006ed0       ?changeDestinationParameters@Groupsock@@QAEXABUin_addr@@VPort@@H@Z 00407ed0 f   Groupsock.obj
 0001:00007040       ?addDestination@Groupsock@@QAEXABUin_addr@@ABVPort@@@Z 00408040 f   Groupsock.obj
 0001:000070d0       ?removeDestination@Groupsock@@QAEXABUin_addr@@ABVPort@@@Z 004080d0 f   Groupsock.obj
 0001:00007130       ?removeAllDestinations@Groupsock@@QAEXXZ 00408130 f   Groupsock.obj
 0001:00007150       ?multicastSendOnly@Groupsock@@QAEXXZ 00408150 f   Groupsock.obj
 0001:00007190       ?output@Groupsock@@QAEIAAVUsageEnvironment@@EPAEIPAVDirectedNetInterface@@@Z 00408190 f   Groupsock.obj
 0001:000072c0       ?handleRead@Groupsock@@UAEIPAEIAAIAAUsockaddr_in@@@Z 004082c0 f   Groupsock.obj
 0001:00007440       ?wasLoopedBackFromUs@Groupsock@@QAEIAAVUsageEnvironment@@AAUsockaddr_in@@@Z 00408440 f   Groupsock.obj
 0001:00007480       ?outputToAllMembersExcept@Groupsock@@AAEHPAVDirectedNetInterface@@EPAEII@Z 00408480 f   Groupsock.obj
 0001:00007690       ??6@YAAAVUsageEnvironment@@AAV0@ABVGroupsock@@@Z 00408690 f   Groupsock.obj
 0001:00007780       ?Fetch@GroupsockLookupTable@@QAEPAVGroupsock@@AAVUsageEnvironment@@IVPort@@EAAI@Z 00408780 f   Groupsock.obj
 0001:000077d0       ?Fetch@GroupsockLookupTable@@QAEPAVGroupsock@@AAVUsageEnvironment@@IIVPort@@AAI@Z 004087d0 f   Groupsock.obj
 0001:00007820       ?Lookup@GroupsockLookupTable@@QAEPAVGroupsock@@IVPort@@@Z 00408820 f   Groupsock.obj
 0001:00007840       ?Lookup@GroupsockLookupTable@@QAEPAVGroupsock@@IIVPort@@@Z 00408840 f   Groupsock.obj
 0001:00007860       ?Lookup@GroupsockLookupTable@@QAEPAVGroupsock@@AAVUsageEnvironment@@H@Z 00408860 f   Groupsock.obj
 0001:000078d0       ?Remove@GroupsockLookupTable@@QAEIPBVGroupsock@@@Z 004088d0 f   Groupsock.obj
 0001:00007980       ?AddNew@GroupsockLookupTable@@AAEPAVGroupsock@@AAVUsageEnvironment@@IIVPort@@E@Z 00408980 f   Groupsock.obj
 0001:00007b10       ??0Iterator@GroupsockLookupTable@@QAE@AAV1@@Z 00408b10 f   Groupsock.obj
 0001:00007b30       ?next@Iterator@GroupsockLookupTable@@QAEPAVGroupsock@@XZ 00408b30 f   Groupsock.obj
 0001:00007b70       ?id@?$ctype@G@std@@$E      00408b70 f i Groupsock.obj
 0001:00007b80       ??0NoReuse@@QAE@XZ         00408b80 f   GroupsockHelper.obj
 0001:00007b90       ??1NoReuse@@QAE@XZ         00408b90 f   GroupsockHelper.obj
 0001:00007ba0       ?setupDatagramSocket@@YAHAAVUsageEnvironment@@VPort@@@Z 00408ba0 f   GroupsockHelper.obj
 0001:00007d00       ?makeSocketNonBlocking@@YAIH@Z 00408d00 f   GroupsockHelper.obj
 0001:00007d30       ?makeSocketBlocking@@YAIH@Z 00408d30 f   GroupsockHelper.obj
 0001:00007d60       ?setupStreamSocket@@YAHAAVUsageEnvironment@@VPort@@I@Z 00408d60 f   GroupsockHelper.obj
 0001:00007e90       ?readSocket@@YAHAAVUsageEnvironment@@HPAEIAAUsockaddr_in@@PAUtimeval@@@Z 00408e90 f   GroupsockHelper.obj
 0001:00008010       ?readSocketExact@@YAHAAVUsageEnvironment@@HPAEIAAUsockaddr_in@@PAUtimeval@@@Z 00409010 f   GroupsockHelper.obj
 0001:00008070       ?writeSocket@@YAIAAVUsageEnvironment@@HUin_addr@@VPort@@EPAEI@Z 00409070 f   GroupsockHelper.obj
 0001:00008140       ?getSendBufferSize@@YAIAAVUsageEnvironment@@H@Z 00409140 f   GroupsockHelper.obj
 0001:000081b0       ?getReceiveBufferSize@@YAIAAVUsageEnvironment@@H@Z 004091b0 f   GroupsockHelper.obj
 0001:000081d0       ?setSendBufferTo@@YAIAAVUsageEnvironment@@HI@Z 004091d0 f   GroupsockHelper.obj
 0001:00008220       ?setReceiveBufferTo@@YAIAAVUsageEnvironment@@HI@Z 00409220 f   GroupsockHelper.obj
 0001:00008240       ?increaseSendBufferTo@@YAIAAVUsageEnvironment@@HI@Z 00409240 f   GroupsockHelper.obj
 0001:000082d0       ?increaseReceiveBufferTo@@YAIAAVUsageEnvironment@@HI@Z 004092d0 f   GroupsockHelper.obj
 0001:000082f0       ?socketJoinGroup@@YAIAAVUsageEnvironment@@HI@Z 004092f0 f   GroupsockHelper.obj
 0001:00008360       ?socketLeaveGroup@@YAIAAVUsageEnvironment@@HI@Z 00409360 f   GroupsockHelper.obj
 0001:000083b0       ?socketJoinGroupSSM@@YAIAAVUsageEnvironment@@HII@Z 004093b0 f   GroupsockHelper.obj
 0001:00008420       ?socketLeaveGroupSSM@@YAIAAVUsageEnvironment@@HII@Z 00409420 f   GroupsockHelper.obj
 0001:00008480       ?getSourcePort@@YAIAAVUsageEnvironment@@HAAVPort@@@Z 00409480 f   GroupsockHelper.obj
 0001:00008570       ?ourIPAddress@@YAIAAVUsageEnvironment@@@Z 00409570 f   GroupsockHelper.obj
 0001:000087e0       ?chooseRandomIPv4SSMAddress@@YAIAAVUsageEnvironment@@@Z 004097e0 f   GroupsockHelper.obj
 0001:00008810       ?timestampString@@YAPBDXZ  00409810 f   GroupsockHelper.obj
 0001:00008860       ?gettimeofday@@YAHPAUtimeval@@PAH@Z 00409860 f   GroupsockHelper.obj
 0001:000089a0       ??0HashTable@@IAE@XZ       004099a0 f   HashTable.obj
 0001:000089b0       ??_GHashTable@@UAEPAXI@Z   004099b0 f i HashTable.obj
 0001:000089b0       ??_EHashTable@@UAEPAXI@Z   004099b0 f i HashTable.obj
 0001:000089d0       ??1HashTable@@UAE@XZ       004099d0 f   HashTable.obj
 0001:000089e0       ??0Iterator@HashTable@@IAE@XZ 004099e0 f   HashTable.obj
 0001:000089f0       ??_EIterator@HashTable@@UAEPAXI@Z 004099f0 f i HashTable.obj
 0001:000089f0       ??_GIterator@HashTable@@UAEPAXI@Z 004099f0 f i HashTable.obj
 0001:00008a10       ??1Iterator@HashTable@@UAE@XZ 00409a10 f   HashTable.obj
 0001:00008a20       ?RemoveNext@HashTable@@QAEPAXXZ 00409a20 f   HashTable.obj
 0001:00008a70       ?initChannelList@@YAXXZ    00409a70 f   HikData.obj
 0001:00008ab0       ?getChannelState@@YAJI@Z   00409ab0 f   HikData.obj
 0001:00008b10       ?setChannelState@@YAJIJ@Z  00409b10 f   HikData.obj
 0001:00008b70       ?reclaimChannelState@@YAXI@Z 00409b70 f   HikData.obj
 0001:00008bc0       ?initFrameData@@YAXPAUframeQueue@@@Z 00409bc0 f   HikData.obj
 0001:00008c00       ?deleteFrontNodeData@@YAHPAUframeQueue@@@Z 00409c00 f   HikData.obj
 0001:00008c40       ?addFrameData@@YAHEPAUframeQueue@@PAUsingleframe@@@Z 00409c40 f   HikData.obj
 0001:00008cf0       ?readFrameData@@YAHEPAUframeQueue@@PAUsingleframe@@@Z 00409cf0 f   HikData.obj
 0001:00008d80       ?DestoryFrameData@@YAXPAUframeQueue@@@Z 00409d80 f   HikData.obj
 0001:00008db0       ?freeSingleFrameData@@YAXPAUframeData@@@Z 00409db0 f   HikData.obj
 0001:00008e00       ?I420Cif2Qcif@@YAXPAE0@Z   00409e00 f   HikData.obj
 0001:00008f90       ?videoGetFrameInfoByHik@@YAXEPADPAHHH@Z 00409f90 f   HikData.obj
 0001:00009040       ?savePicFile@@YAXPADJJJJ0@Z 0040a040 f   HikData.obj
 0001:000090b0       ?resetCapturePicState@@YAXE@Z 0040a0b0 f   HikData.obj
 0001:00009100       ?CapPicFun@@YGXJPADJJJJJJ@Z 0040a100 f   HikData.obj
 0001:000091c0       ?ThreadCallbackEntry@@YAXE@Z 0040a1c0 f   HikData.obj
 0001:000093d0       ?ThreadCallback@@YAKPAE@Z  0040a3d0 f   HikData.obj
 0001:00009450       ?getCritialSection@@YAPAU_RTL_CRITICAL_SECTION@@XZ 0040a450 f   HikData.obj
 0001:00009460       ?getFrameByHikSDK@@YAXE@Z  0040a460 f   HikData.obj
 0001:000094d0       _our_inet_addr             0040a4d0 f   inet.obj
 0001:000094e0       _our_inet_ntoa             0040a4e0 f   inet.obj
 0001:000094f0       _initializeWinsockIfNecessary 0040a4f0 f   inet.obj
 0001:00009570       _our_gethostbyname         0040a570 f   inet.obj
 0001:00009590       _our_random                0040a590 f   inet.obj
 0001:000095a0       _our_srandom               0040a5a0 f   inet.obj
 0001:000095b0       _our_random32              0040a5b0 f   inet.obj
 0001:000095d0       ??0Locale@@QAE@PBDH@Z      0040a5d0 f   Locale.obj
 0001:00009610       ??_GLocale@@UAEPAXI@Z      0040a610 f i Locale.obj
 0001:00009610       ??_ELocale@@UAEPAXI@Z      0040a610 f i Locale.obj
 0001:00009630       ??1Locale@@UAE@XZ          0040a630 f   Locale.obj
 0001:00009660       ?getProfileParamenterInfo@@YAPAU_HikProfile@@XZ 0040a660 f   mainSdk.obj
 0001:00009670       ?httpRequestKey@@YAHPAD0@Z 0040a670 f   mainSdk.obj
 0001:000098d0       ?supportMoreVideoAccess@@YAXPAVRTSPServer@@HHPADE@Z 0040a8d0 f   mainSdk.obj
 0001:00009d80       ?eventLoop@@YAXXZ          0040ad80 f   mainSdk.obj
 0001:00009d90       ?realEntryMain@@YAXE@Z     0040ad90 f   mainSdk.obj
 0001:00009f60       ?StarvThreadCallback@@YAKPAE@Z 0040af60 f   mainSdk.obj
 0001:0000a070       ?startStarvSDK@@YAXE@Z     0040b070 f   mainSdk.obj
 0001:0000a100       _main                      0040b100 f   mainSdk.obj
 0001:0000a2b0       ??0Medium@@IAE@AAVUsageEnvironment@@@Z 0040b2b0 f   Media.obj
 0001:0000a310       ??_EMedium@@MAEPAXI@Z      0040b310 f i Media.obj
 0001:0000a310       ??_GMedium@@MAEPAXI@Z      0040b310 f i Media.obj
 0001:0000a330       ??1Medium@@MAE@XZ          0040b330 f   Media.obj
 0001:0000a350       ?lookupByName@Medium@@SAIAAVUsageEnvironment@@PBDAAPAV1@@Z 0040b350 f   Media.obj
 0001:0000a3a0       ?close@Medium@@SAXAAVUsageEnvironment@@PBD@Z 0040b3a0 f   Media.obj
 0001:0000a3c0       ?close@Medium@@SAXPAV1@@Z  0040b3c0 f   Media.obj
 0001:0000a3e0       ?isSource@Medium@@UBEIXZ   0040b3e0 f   Media.obj
 0001:0000a3f0       ?isSink@Medium@@UBEIXZ     0040b3f0 f   Media.obj
 0001:0000a400       ?isRTCPInstance@Medium@@UBEIXZ 0040b400 f   Media.obj
 0001:0000a410       ?isRTSPClient@Medium@@UBEIXZ 0040b410 f   Media.obj
 0001:0000a420       ?isRTSPServer@Medium@@UBEIXZ 0040b420 f   Media.obj
 0001:0000a430       ?isMediaSession@Medium@@UBEIXZ 0040b430 f   Media.obj
 0001:0000a440       ?isServerMediaSession@Medium@@UBEIXZ 0040b440 f   Media.obj
 0001:0000a450       ?isDarwinInjector@Medium@@UBEIXZ 0040b450 f   Media.obj
 0001:0000a460       ?getOurTables@_Tables@@SAPAV1@AAVUsageEnvironment@@@Z 0040b460 f   Media.obj
 0001:0000a4c0       ?reclaimIfPossible@_Tables@@QAEXXZ 0040b4c0 f   Media.obj
 0001:0000a4f0       ??0_Tables@@IAE@AAVUsageEnvironment@@@Z 0040b4f0 f   Media.obj
 0001:0000a510       ??_G_Tables@@MAEPAXI@Z     0040b510 f i Media.obj
 0001:0000a510       ??_E_Tables@@MAEPAXI@Z     0040b510 f i Media.obj
 0001:0000a530       ??1_Tables@@MAE@XZ         0040b530 f   Media.obj
 0001:0000a540       ?ourMedia@MediaLookupTable@@SAPAV1@AAVUsageEnvironment@@@Z 0040b540 f   Media.obj
 0001:0000a5b0       ?lookup@MediaLookupTable@@QBEPAVMedium@@PBD@Z 0040b5b0 f   Media.obj
 0001:0000a5c0       ?addNew@MediaLookupTable@@QAEXPAVMedium@@PAD@Z 0040b5c0 f   Media.obj
 0001:0000a5e0       ?remove@MediaLookupTable@@QAEXPBD@Z 0040b5e0 f   Media.obj
 0001:0000a650       ?generateNewName@MediaLookupTable@@QAEXPADI@Z 0040b650 f   Media.obj
 0001:0000a670       ??0MediaLookupTable@@IAE@AAVUsageEnvironment@@@Z 0040b670 f   Media.obj
 0001:0000a6a0       ??_GMediaLookupTable@@MAEPAXI@Z 0040b6a0 f i Media.obj
 0001:0000a6a0       ??_EMediaLookupTable@@MAEPAXI@Z 0040b6a0 f i Media.obj
 0001:0000a6c0       ??1MediaLookupTable@@MAE@XZ 0040b6c0 f   Media.obj
 0001:0000a6e0       ??0MediaSink@@IAE@AAVUsageEnvironment@@@Z 0040b6e0 f   MediaSink.obj
 0001:0000a700       ??_GMediaSink@@MAEPAXI@Z   0040b700 f i MediaSink.obj
 0001:0000a700       ??_EMediaSink@@MAEPAXI@Z   0040b700 f i MediaSink.obj
 0001:0000a720       ??1MediaSink@@MAE@XZ       0040b720 f   MediaSink.obj
 0001:0000a770       ?isSink@MediaSink@@EBEIXZ  0040b770 f   MediaSink.obj
 0001:0000a780       ?lookupByName@MediaSink@@SAIAAVUsageEnvironment@@PBDAAPAV1@@Z 0040b780 f   MediaSink.obj
 0001:0000a7e0       ?sourceIsCompatibleWithUs@MediaSink@@MAEIAAVMediaSource@@@Z 0040b7e0 f   MediaSink.obj
 0001:0000a7f0       ?startPlaying@MediaSink@@QAEIAAVMediaSource@@P6AXPAX@Z1@Z 0040b7f0 f   MediaSink.obj
 0001:0000a850       ?stopPlaying@MediaSink@@UAEXXZ 0040b850 f   MediaSink.obj
 0001:0000a890       ?onSourceClosure@MediaSink@@KAXPAX@Z 0040b890 f   MediaSink.obj
 0001:0000a8b0       ?isRTPSink@MediaSink@@UBEIXZ 0040b8b0 f   MediaSink.obj
 0001:0000a8c0       ??0OutPacketBuffer@@QAE@II@Z 0040b8c0 f   MediaSink.obj
 0001:0000a910       ??1OutPacketBuffer@@QAE@XZ 0040b910 f   MediaSink.obj
 0001:0000a920       ?enqueue@OutPacketBuffer@@QAEXPBEI@Z 0040b920 f   MediaSink.obj
 0001:0000a970       ?enqueueWord@OutPacketBuffer@@QAEXI@Z 0040b970 f   MediaSink.obj
 0001:0000a9a0       ?insert@OutPacketBuffer@@QAEXPBEII@Z 0040b9a0 f   MediaSink.obj
 0001:0000a9f0       ?insertWord@OutPacketBuffer@@QAEXII@Z 0040b9f0 f   MediaSink.obj
 0001:0000aa20       ?extract@OutPacketBuffer@@QAEXPAEII@Z 0040ba20 f   MediaSink.obj
 0001:0000aa60       ?extractWord@OutPacketBuffer@@QAEII@Z 0040ba60 f   MediaSink.obj
 0001:0000aa80       ?skipBytes@OutPacketBuffer@@QAEXI@Z 0040ba80 f   MediaSink.obj
 0001:0000aab0       ?setOverflowData@OutPacketBuffer@@QAEXIIABUtimeval@@I@Z 0040bab0 f   MediaSink.obj
 0001:0000aae0       ?useOverflowData@OutPacketBuffer@@QAEXXZ 0040bae0 f   MediaSink.obj
 0001:0000ab10       ?adjustPacketStart@OutPacketBuffer@@QAEXI@Z 0040bb10 f   MediaSink.obj
 0001:0000ab40       ?resetPacketStart@OutPacketBuffer@@QAEXXZ 0040bb40 f   MediaSink.obj
 0001:0000ab60       ??0MediaSource@@IAE@AAVUsageEnvironment@@@Z 0040bb60 f   MediaSource.obj
 0001:0000ab80       ??_EMediaSource@@MAEPAXI@Z 0040bb80 f i MediaSource.obj
 0001:0000ab80       ??_GMediaSource@@MAEPAXI@Z 0040bb80 f i MediaSource.obj
 0001:0000aba0       ??1MediaSource@@MAE@XZ     0040bba0 f   MediaSource.obj
 0001:0000abb0       ?isSource@MediaSource@@EBEIXZ 0040bbb0 f   MediaSource.obj
 0001:0000abc0       ?MIMEtype@MediaSource@@UBEPBDXZ 0040bbc0 f   MediaSource.obj
 0001:0000abd0       ?isFramedSource@MediaSource@@UBEIXZ 0040bbd0 f   MediaSource.obj
 0001:0000abe0       ?isRTPSource@MediaSource@@UBEIXZ 0040bbe0 f   MediaSource.obj
 0001:0000abf0       ?isMPEG1or2VideoStreamFramer@MediaSource@@UBEIXZ 0040bbf0 f   MediaSource.obj
 0001:0000ac00       ?isMPEG4VideoStreamFramer@MediaSource@@UBEIXZ 0040bc00 f   MediaSource.obj
 0001:0000ac10       ?isH264VideoStreamFramer@MediaSource@@UBEIXZ 0040bc10 f   MediaSource.obj
 0001:0000ac20       ?isDVVideoStreamFramer@MediaSource@@UBEIXZ 0040bc20 f   MediaSource.obj
 0001:0000ac30       ?isJPEGVideoSource@MediaSource@@UBEIXZ 0040bc30 f   MediaSource.obj
 0001:0000ac40       ?isAMRAudioSource@MediaSource@@UBEIXZ 0040bc40 f   MediaSource.obj
 0001:0000ac50       ?lookupByName@MediaSource@@SAIAAVUsageEnvironment@@PBDAAPAV1@@Z 0040bc50 f   MediaSource.obj
 0001:0000acb0       ?getAttributes@MediaSource@@UBEXXZ 0040bcb0 f   MediaSource.obj
 0001:0000acc0       ??0CMiniVersion@@QAE@PBD@Z 0040bcc0 f   MiniVersion.obj
 0001:0000ad50       ?Init@CMiniVersion@@QAEHXZ 0040bd50 f   MiniVersion.obj
 0001:0000ae70       ?Release@CMiniVersion@@QAEXXZ 0040be70 f   MiniVersion.obj
 0001:0000ae90       ?GetFileVersion@CMiniVersion@@QAEHPAG@Z 0040be90 f   MiniVersion.obj
 0001:0000aec0       ?GetProductVersion@CMiniVersion@@QAEHPAG@Z 0040bec0 f   MiniVersion.obj
 0001:0000aef0       ?GetFileFlags@CMiniVersion@@QAEHAAK@Z 0040bef0 f   MiniVersion.obj
 0001:0000af10       ?GetFileOS@CMiniVersion@@QAEHAAK@Z 0040bf10 f   MiniVersion.obj
 0001:0000af30       ?GetFileType@CMiniVersion@@QAEHAAK@Z 0040bf30 f   MiniVersion.obj
 0001:0000af50       ?GetFileSubtype@CMiniVersion@@QAEHAAK@Z 0040bf50 f   MiniVersion.obj
 0001:0000af70       ?GetCompanyName@CMiniVersion@@QAEHPADH@Z 0040bf70 f   MiniVersion.obj
 0001:0000afc0       ?GetFileDescription@CMiniVersion@@QAEHPADH@Z 0040bfc0 f   MiniVersion.obj
 0001:0000b010       ?GetProductName@CMiniVersion@@QAEHPADH@Z 0040c010 f   MiniVersion.obj
 0001:0000b060       ?GetFixedInfo@CMiniVersion@@IAEHAAUtagVS_FIXEDFILEINFO@@@Z 0040c060 f   MiniVersion.obj
 0001:0000b0b0       ?GetStringInfo@CMiniVersion@@IAEHPBDPAD@Z 0040c0b0 f   MiniVersion.obj
 0001:0000b1a0       ??0MPEG4ESVideoRTPSink@@IAE@AAVUsageEnvironment@@PAXPAVGroupsock@@EI@Z 0040c1a0 f   MPEG4ESVideoRTPSink.obj
 0001:0000b1f0       ??_GMPEG4ESVideoRTPSink@@MAEPAXI@Z 0040c1f0 f i MPEG4ESVideoRTPSink.obj
 0001:0000b1f0       ??_EMPEG4ESVideoRTPSink@@MAEPAXI@Z 0040c1f0 f i MPEG4ESVideoRTPSink.obj
 0001:0000b210       ??1MPEG4ESVideoRTPSink@@MAE@XZ 0040c210 f   MPEG4ESVideoRTPSink.obj
 0001:0000b270       ?createNew@MPEG4ESVideoRTPSink@@SAPAV1@AAVUsageEnvironment@@PAXPAVGroupsock@@EI@Z 0040c270 f   MPEG4ESVideoRTPSink.obj
 0001:0000b2f0       ?sourceIsCompatibleWithUs@MPEG4ESVideoRTPSink@@MAEIAAVMediaSource@@@Z 0040c2f0 f   MPEG4ESVideoRTPSink.obj
 0001:0000b300       ?doSpecialFrameHandling@MPEG4ESVideoRTPSink@@MAEXIPAEIUtimeval@@I@Z 0040c300 f   MPEG4ESVideoRTPSink.obj
 0001:0000b390       ?allowFragmentationAfterStart@MPEG4ESVideoRTPSink@@MBEIXZ 0040c390 f   MPEG4ESVideoRTPSink.obj
 0001:0000b3a0       ?frameCanAppearAfterPacketStart@MPEG4ESVideoRTPSink@@MBEIPBEI@Z 0040c3a0 f   MPEG4ESVideoRTPSink.obj
 0001:0000b3b0       ?auxSDPLine@MPEG4ESVideoRTPSink@@MAEPBDXZ 0040c3b0 f   MPEG4ESVideoRTPSink.obj
 0001:0000b4e0       ?createNew@MPEG4VideoStreamFramer@@SAPAV1@AAVUsageEnvironment@@PAVFramedSource@@@Z 0040c4e0 f   MPEG4VideoStreamFramer.obj
 0001:0000b550       ?getConfigBytes@MPEG4VideoStreamFramer@@QBEPAEAAI@Z 0040c550 f   MPEG4VideoStreamFramer.obj
 0001:0000b570       ??0MPEG4VideoStreamFramer@@IAE@AAVUsageEnvironment@@PAVFramedSource@@I@Z 0040c570 f   MPEG4VideoStreamFramer.obj
 0001:0000b620       ??_GMPEG4VideoStreamFramer@@MAEPAXI@Z 0040c620 f i MPEG4VideoStreamFramer.obj
 0001:0000b620       ??_EMPEG4VideoStreamFramer@@MAEPAXI@Z 0040c620 f i MPEG4VideoStreamFramer.obj
 0001:0000b640       ??1MPEG4VideoStreamFramer@@MAE@XZ 0040c640 f   MPEG4VideoStreamFramer.obj
 0001:0000b6b0       ?startNewConfig@MPEG4VideoStreamFramer@@IAEXXZ 0040c6b0 f   MPEG4VideoStreamFramer.obj
 0001:0000b6e0       ?appendToNewConfig@MPEG4VideoStreamFramer@@IAEXPAEI@Z 0040c6e0 f   MPEG4VideoStreamFramer.obj
 0001:0000b750       ?completeNewConfig@MPEG4VideoStreamFramer@@IAEXXZ 0040c750 f   MPEG4VideoStreamFramer.obj
 0001:0000b790       ?isMPEG4VideoStreamFramer@MPEG4VideoStreamFramer@@EBEIXZ 0040c790 f   MPEG4VideoStreamFramer.obj
 0001:0000b7a0       ??0MPEG4VideoStreamParser@@QAE@PAVMPEG4VideoStreamFramer@@PAVFramedSource@@@Z 0040c7a0 f   MPEG4VideoStreamFramer.obj
 0001:0000b7f0       ??_EMPEG4VideoStreamParser@@UAEPAXI@Z 0040c7f0 f i MPEG4VideoStreamFramer.obj
 0001:0000b7f0       ??_GMPEG4VideoStreamParser@@UAEPAXI@Z 0040c7f0 f i MPEG4VideoStreamFramer.obj
 0001:0000b810       ??1MPEG4VideoStreamParser@@UAE@XZ 0040c810 f   MPEG4VideoStreamFramer.obj
 0001:0000b820       ?setParseState@MPEG4VideoStreamParser@@AAEXW4MPEGParseState@@@Z 0040c820 f   MPEG4VideoStreamFramer.obj
 0001:0000b830       ?flushInput@MPEG4VideoStreamParser@@EAEXXZ 0040c830 f   MPEG4VideoStreamFramer.obj
 0001:0000b870       ?parse@MPEG4VideoStreamParser@@EAEIXZ 0040c870 f   MPEG4VideoStreamFramer.obj
 0001:0000b980       ?parseVisualObjectSequence@MPEG4VideoStreamParser@@AAEII@Z 0040c980 f   MPEG4VideoStreamFramer.obj
 0001:0000bb90       ?parseVisualObject@MPEG4VideoStreamParser@@AAEIXZ 0040cb90 f   MPEG4VideoStreamFramer.obj
 0001:0000bdd0       ?get4Bytes@StreamParser@@IAEIXZ 0040cdd0 f i MPEG4VideoStreamFramer.obj
 0001:0000be20       ?test4Bytes@StreamParser@@IAEIXZ 0040ce20 f i MPEG4VideoStreamFramer.obj
 0001:0000be60       ?get1Byte@StreamParser@@IAEEXZ 0040ce60 f i MPEG4VideoStreamFramer.obj
 0001:0000be90       ?getNextFrameBit@MPEG4VideoStreamParser@@AAEIAAE@Z 0040ce90 f   MPEG4VideoStreamFramer.obj
 0001:0000bee0       ?getNextFrameBits@MPEG4VideoStreamParser@@AAEIIAAI@Z 0040cee0 f   MPEG4VideoStreamFramer.obj
 0001:0000bf40       ?analyzeVOLHeader@MPEG4VideoStreamParser@@AAEXXZ 0040cf40 f   MPEG4VideoStreamFramer.obj
 0001:0000c110       ?saveByte@MPEGVideoStreamParser@@IAEXE@Z 0040d110 f i MPEG4VideoStreamFramer.obj
 0001:0000c130       ?save4Bytes@MPEGVideoStreamParser@@IAEXI@Z 0040d130 f i MPEG4VideoStreamFramer.obj
 0001:0000c190       ?parseVideoObjectLayer@MPEG4VideoStreamParser@@AAEIXZ 0040d190 f   MPEG4VideoStreamFramer.obj
 0001:0000c2f0       ?ensureValidBytes@StreamParser@@AAEXI@Z 0040d2f0 f i MPEG4VideoStreamFramer.obj
 0001:0000c310       ?parseGroupOfVideoObjectPlane@MPEG4VideoStreamParser@@AAEIXZ 0040d310 f   MPEG4VideoStreamFramer.obj
 0001:0000c550       ?parseVideoObjectPlane@MPEG4VideoStreamParser@@AAEIXZ 0040d550 f   MPEG4VideoStreamFramer.obj
 0001:0000c9f0       ?parseVisualObjectSequenceEndCode@MPEG4VideoStreamParser@@AAEIXZ 0040d9f0 f   MPEG4VideoStreamFramer.obj
 0001:0000ca50       ??0TimeCode@@QAE@XZ        0040da50 f   MPEGVideoStreamFramer.obj
 0001:0000ca70       ??_GTimeCode@@UAEPAXI@Z    0040da70 f i MPEGVideoStreamFramer.obj
 0001:0000ca70       ??_ETimeCode@@UAEPAXI@Z    0040da70 f i MPEGVideoStreamFramer.obj
 0001:0000ca90       ??1TimeCode@@UAE@XZ        0040da90 f   MPEGVideoStreamFramer.obj
 0001:0000caa0       ??8TimeCode@@QAEHABV0@@Z   0040daa0 f   MPEGVideoStreamFramer.obj
 0001:0000caf0       ??0MPEGVideoStreamFramer@@IAE@AAVUsageEnvironment@@PAVFramedSource@@@Z 0040daf0 f   MPEGVideoStreamFramer.obj
 0001:0000cb70       ??_EMPEGVideoStreamFramer@@MAEPAXI@Z 0040db70 f i MPEGVideoStreamFramer.obj
 0001:0000cb70       ??_GMPEGVideoStreamFramer@@MAEPAXI@Z 0040db70 f i MPEGVideoStreamFramer.obj
 0001:0000cb90       ??1MPEGVideoStreamFramer@@MAE@XZ 0040db90 f   MPEGVideoStreamFramer.obj
 0001:0000cc00       ?flushInput@MPEGVideoStreamFramer@@QAEXXZ 0040dc00 f   MPEGVideoStreamFramer.obj
 0001:0000cc20       ?reset@MPEGVideoStreamFramer@@AAEXXZ 0040dc20 f   MPEGVideoStreamFramer.obj
 0001:0000cc60       ?computePresentationTime@MPEGVideoStreamFramer@@IAEXI@Z 0040dc60 f   MPEGVideoStreamFramer.obj
 0001:0000cd90       ?setTimeCode@MPEGVideoStreamFramer@@IAEXIIIII@Z 0040dd90 f   MPEGVideoStreamFramer.obj
 0001:0000ceb0       ?doGetNextFrame@MPEGVideoStreamFramer@@EAEXXZ 0040deb0 f   MPEGVideoStreamFramer.obj
 0001:0000ced0       ?continueReadProcessing@MPEGVideoStreamFramer@@CAXPAXPAEIUtimeval@@@Z 0040ded0 f   MPEGVideoStreamFramer.obj
 0001:0000cee0       ?continueReadProcessing@MPEGVideoStreamFramer@@AAEXXZ 0040dee0 f   MPEGVideoStreamFramer.obj
 0001:0000cf60       ??0MPEGVideoStreamParser@@QAE@PAVMPEGVideoStreamFramer@@PAVFramedSource@@@Z 0040df60 f   MPEGVideoStreamParser.obj
 0001:0000cf90       ??_EMPEGVideoStreamParser@@UAEPAXI@Z 0040df90 f i MPEGVideoStreamParser.obj
 0001:0000cf90       ??_GMPEGVideoStreamParser@@UAEPAXI@Z 0040df90 f i MPEGVideoStreamParser.obj
 0001:0000cfb0       ??1MPEGVideoStreamParser@@UAE@XZ 0040dfb0 f   MPEGVideoStreamParser.obj
 0001:0000cfc0       ?restoreSavedParserState@MPEGVideoStreamParser@@EAEXXZ 0040dfc0 f   MPEGVideoStreamParser.obj
 0001:0000cfe0       ?setParseState@MPEGVideoStreamParser@@IAEXXZ 0040dfe0 f   MPEGVideoStreamParser.obj
 0001:0000d000       ?registerReadInterest@MPEGVideoStreamParser@@QAEXPAEI@Z 0040e000 f   MPEGVideoStreamParser.obj
 0001:0000d030       ?setPacketSizes@MultiFramedRTPSink@@QAEXII@Z 0040e030 f   MultiFramedRTPSink.obj
 0001:0000d0c0       ??0MultiFramedRTPSink@@IAE@AAVUsageEnvironment@@PAXPAVGroupsock@@EIPBDI@Z 0040e0c0 f   MultiFramedRTPSink.obj
 0001:0000d150       ??_GMultiFramedRTPSink@@MAEPAXI@Z 0040e150 f i MultiFramedRTPSink.obj
 0001:0000d150       ??_EMultiFramedRTPSink@@MAEPAXI@Z 0040e150 f i MultiFramedRTPSink.obj
 0001:0000d170       ??1MultiFramedRTPSink@@MAE@XZ 0040e170 f   MultiFramedRTPSink.obj
 0001:0000d1e0       ?doSpecialFrameHandling@MultiFramedRTPSink@@MAEXIPAEIUtimeval@@I@Z 0040e1e0 f   MultiFramedRTPSink.obj
 0001:0000d200       ?allowFragmentationAfterStart@MultiFramedRTPSink@@MBEIXZ 0040e200 f   MultiFramedRTPSink.obj
 0001:0000d210       ?allowOtherFramesAfterLastFragment@MultiFramedRTPSink@@MBEIXZ 0040e210 f   MultiFramedRTPSink.obj
 0001:0000d220       ?frameCanAppearAfterPacketStart@MultiFramedRTPSink@@MBEIPBEI@Z 0040e220 f   MultiFramedRTPSink.obj
 0001:0000d230       ?specialHeaderSize@MultiFramedRTPSink@@MBEIXZ 0040e230 f   MultiFramedRTPSink.obj
 0001:0000d240       ?frameSpecificHeaderSize@MultiFramedRTPSink@@MBEIXZ 0040e240 f   MultiFramedRTPSink.obj
 0001:0000d250       ?computeOverflowForNewFrame@MultiFramedRTPSink@@MBEII@Z 0040e250 f   MultiFramedRTPSink.obj
 0001:0000d270       ?setMarkerBit@MultiFramedRTPSink@@IAEXXZ 0040e270 f   MultiFramedRTPSink.obj
 0001:0000d2a0       ?setTimestamp@MultiFramedRTPSink@@IAEXUtimeval@@@Z 0040e2a0 f   MultiFramedRTPSink.obj
 0001:0000d2d0       ?setSpecialHeaderWord@MultiFramedRTPSink@@IAEXII@Z 0040e2d0 f   MultiFramedRTPSink.obj
 0001:0000d300       ?setSpecialHeaderBytes@MultiFramedRTPSink@@IAEXPBEII@Z 0040e300 f   MultiFramedRTPSink.obj
 0001:0000d330       ?setFrameSpecificHeaderWord@MultiFramedRTPSink@@IAEXII@Z 0040e330 f   MultiFramedRTPSink.obj
 0001:0000d360       ?setFrameSpecificHeaderBytes@MultiFramedRTPSink@@IAEXPBEII@Z 0040e360 f   MultiFramedRTPSink.obj
 0001:0000d390       ?setFramePadding@MultiFramedRTPSink@@IAEXI@Z 0040e390 f   MultiFramedRTPSink.obj
 0001:0000d400       ?continuePlaying@MultiFramedRTPSink@@MAEIXZ 0040e400 f   MultiFramedRTPSink.obj
 0001:0000d410       ?stopPlaying@MultiFramedRTPSink@@UAEXXZ 0040e410 f   MultiFramedRTPSink.obj
 0001:0000d440       ?buildAndSendPacket@MultiFramedRTPSink@@AAEXI@Z 0040e440 f   MultiFramedRTPSink.obj
 0001:0000d4e0       ?packFrame@MultiFramedRTPSink@@AAEXXZ 0040e4e0 f   MultiFramedRTPSink.obj
 0001:0000d5a0       ?afterGettingFrame@MultiFramedRTPSink@@CAXPAXIIUtimeval@@I@Z 0040e5a0 f   MultiFramedRTPSink.obj
 0001:0000d5d0       ?afterGettingFrame1@MultiFramedRTPSink@@AAEXIIUtimeval@@I@Z 0040e5d0 f   MultiFramedRTPSink.obj
 0001:0000d870       ?isTooBigForAPacket@MultiFramedRTPSink@@ABEII@Z 0040e870 f   MultiFramedRTPSink.obj
 0001:0000d8a0       ?sendPacketIfNecessary@MultiFramedRTPSink@@AAEXXZ 0040e8a0 f   MultiFramedRTPSink.obj
 0001:0000da20       ?sendNext@MultiFramedRTPSink@@CAXPAX@Z 0040ea20 f   MultiFramedRTPSink.obj
 0001:0000da30       ?ourHandleClosure@MultiFramedRTPSink@@CAXPAX@Z 0040ea30 f   MultiFramedRTPSink.obj
 0001:0000da50       ??0NetAddress@@QAE@PBEI@Z  0040ea50 f   NetAddress.obj
 0001:0000da70       ??_GNetAddress@@UAEPAXI@Z  0040ea70 f i NetAddress.obj
 0001:0000da70       ??_ENetAddress@@UAEPAXI@Z  0040ea70 f i NetAddress.obj
 0001:0000da90       ??0NetAddress@@QAE@I@Z     0040ea90 f   NetAddress.obj
 0001:0000dae0       ??0NetAddress@@QAE@ABV0@@Z 0040eae0 f   NetAddress.obj
 0001:0000db10       ??4NetAddress@@QAEAAV0@ABV0@@Z 0040eb10 f   NetAddress.obj
 0001:0000db40       ??1NetAddress@@UAE@XZ      0040eb40 f   NetAddress.obj
 0001:0000db50       ?assign@NetAddress@@AAEXPBEI@Z 0040eb50 f   NetAddress.obj
 0001:0000dba0       ?clean@NetAddress@@AAEXXZ  0040eba0 f   NetAddress.obj
 0001:0000dbc0       ??0NetAddressList@@QAE@PBD@Z 0040ebc0 f   NetAddress.obj
 0001:0000dd10       ??_GNetAddressList@@UAEPAXI@Z 0040ed10 f i NetAddress.obj
 0001:0000dd10       ??_ENetAddressList@@UAEPAXI@Z 0040ed10 f i NetAddress.obj
 0001:0000dd30       ??0NetAddressList@@QAE@ABV0@@Z 0040ed30 f   NetAddress.obj
 0001:0000dd60       ??4NetAddressList@@QAEAAV0@ABV0@@Z 0040ed60 f   NetAddress.obj
 0001:0000dd90       ??1NetAddressList@@UAE@XZ  0040ed90 f   NetAddress.obj
 0001:0000dda0       ?assign@NetAddressList@@AAEXIPAPAVNetAddress@@@Z 0040eda0 f   NetAddress.obj
 0001:0000de40       ?clean@NetAddressList@@AAEXXZ 0040ee40 f   NetAddress.obj
 0001:0000de90       ?firstAddress@NetAddressList@@QBEPBVNetAddress@@XZ 0040ee90 f   NetAddress.obj
 0001:0000dea0       ??0Iterator@NetAddressList@@QAE@ABV1@@Z 0040eea0 f   NetAddress.obj
 0001:0000dec0       ?nextAddress@Iterator@NetAddressList@@QAEPBVNetAddress@@XZ 0040eec0 f   NetAddress.obj
 0001:0000dee0       ??0Port@@QAE@G@Z           0040eee0 f   NetAddress.obj
 0001:0000df00       ??6@YAAAVUsageEnvironment@@AAV0@ABVPort@@@Z 0040ef00 f   NetAddress.obj
 0001:0000df30       ??0AddressPortLookupTable@@QAE@XZ 0040ef30 f   NetAddress.obj
 0001:0000df50       ??_GAddressPortLookupTable@@UAEPAXI@Z 0040ef50 f i NetAddress.obj
 0001:0000df50       ??_EAddressPortLookupTable@@UAEPAXI@Z 0040ef50 f i NetAddress.obj
 0001:0000df70       ??1AddressPortLookupTable@@UAE@XZ 0040ef70 f   NetAddress.obj
 0001:0000df90       ?Add@AddressPortLookupTable@@QAEPAXIIVPort@@PAX@Z 0040ef90 f   NetAddress.obj
 0001:0000dfd0       ?Lookup@AddressPortLookupTable@@QAEPAXIIVPort@@@Z 0040efd0 f   NetAddress.obj
 0001:0000e010       ?Remove@AddressPortLookupTable@@QAEIIIVPort@@@Z 0040f010 f   NetAddress.obj
 0001:0000e050       ??0Iterator@AddressPortLookupTable@@QAE@AAV1@@Z 0040f050 f   NetAddress.obj
 0001:0000e080       ??_EIterator@AddressPortLookupTable@@UAEPAXI@Z 0040f080 f i NetAddress.obj
 0001:0000e080       ??_GIterator@AddressPortLookupTable@@UAEPAXI@Z 0040f080 f i NetAddress.obj
 0001:0000e0a0       ??1Iterator@AddressPortLookupTable@@UAE@XZ 0040f0a0 f   NetAddress.obj
 0001:0000e0c0       ?next@Iterator@AddressPortLookupTable@@QAEPAXXZ 0040f0c0 f   NetAddress.obj
 0001:0000e0d0       ?IsMulticastAddress@@YAII@Z 0040f0d0 f   NetAddress.obj
 0001:0000e100       ??0NetInterface@@IAE@XZ    0040f100 f   NetInterface.obj
 0001:0000e110       ??_ENetInterface@@UAEPAXI@Z 0040f110 f i NetInterface.obj
 0001:0000e110       ??_GNetInterface@@UAEPAXI@Z 0040f110 f i NetInterface.obj
 0001:0000e130       ??1NetInterface@@UAE@XZ    0040f130 f   NetInterface.obj
 0001:0000e140       ??0DirectedNetInterface@@IAE@XZ 0040f140 f   NetInterface.obj
 0001:0000e160       ??_EDirectedNetInterface@@UAEPAXI@Z 0040f160 f i NetInterface.obj
 0001:0000e160       ??_GDirectedNetInterface@@UAEPAXI@Z 0040f160 f i NetInterface.obj
 0001:0000e180       ??1DirectedNetInterface@@UAE@XZ 0040f180 f   NetInterface.obj
 0001:0000e190       ??0DirectedNetInterfaceSet@@QAE@XZ 0040f190 f   NetInterface.obj
 0001:0000e1b0       ??_EDirectedNetInterfaceSet@@UAEPAXI@Z 0040f1b0 f i NetInterface.obj
 0001:0000e1b0       ??_GDirectedNetInterfaceSet@@UAEPAXI@Z 0040f1b0 f i NetInterface.obj
 0001:0000e1d0       ??1DirectedNetInterfaceSet@@UAE@XZ 0040f1d0 f   NetInterface.obj
 0001:0000e1f0       ?Add@DirectedNetInterfaceSet@@QAEPAVDirectedNetInterface@@PBV2@@Z 0040f1f0 f   NetInterface.obj
 0001:0000e210       ?Remove@DirectedNetInterfaceSet@@QAEIPBVDirectedNetInterface@@@Z 0040f210 f   NetInterface.obj
 0001:0000e220       ??0Iterator@DirectedNetInterfaceSet@@QAE@AAV1@@Z 0040f220 f   NetInterface.obj
 0001:0000e250       ??_GIterator@DirectedNetInterfaceSet@@UAEPAXI@Z 0040f250 f i NetInterface.obj
 0001:0000e250       ??_EIterator@DirectedNetInterfaceSet@@UAEPAXI@Z 0040f250 f i NetInterface.obj
 0001:0000e270       ??1Iterator@DirectedNetInterfaceSet@@UAE@XZ 0040f270 f   NetInterface.obj
 0001:0000e290       ?next@Iterator@DirectedNetInterfaceSet@@QAEPAVDirectedNetInterface@@XZ 0040f290 f   NetInterface.obj
 0001:0000e2a0       ??0Socket@@IAE@AAVUsageEnvironment@@VPort@@@Z 0040f2a0 f   NetInterface.obj
 0001:0000e310       ??_GSocket@@UAEPAXI@Z      0040f310 f i NetInterface.obj
 0001:0000e310       ??_ESocket@@UAEPAXI@Z      0040f310 f i NetInterface.obj
 0001:0000e330       ??1Socket@@UAE@XZ          0040f330 f   NetInterface.obj
 0001:0000e350       ?changePort@Socket@@IAEIVPort@@@Z 0040f350 f   NetInterface.obj
 0001:0000e3b0       ??6@YAAAVUsageEnvironment@@AAV0@ABVSocket@@@Z 0040f3b0 f   NetInterface.obj
 0001:0000e3f0       ??0SocketLookupTable@@IAE@XZ 0040f3f0 f   NetInterface.obj
 0001:0000e410       ??_GSocketLookupTable@@UAEPAXI@Z 0040f410 f i NetInterface.obj
 0001:0000e410       ??_ESocketLookupTable@@UAEPAXI@Z 0040f410 f i NetInterface.obj
 0001:0000e430       ??1SocketLookupTable@@UAE@XZ 0040f430 f   NetInterface.obj
 0001:0000e450       ?Fetch@SocketLookupTable@@QAEPAVSocket@@AAVUsageEnvironment@@VPort@@AAI@Z 0040f450 f   NetInterface.obj
 0001:0000e4d0       ?Remove@SocketLookupTable@@QAEIPBVSocket@@@Z 0040f4d0 f   NetInterface.obj
 0001:0000e500       ??0NetInterfaceTrafficStats@@QAE@XZ 0040f500 f   NetInterface.obj
 0001:0000e510       ?countPacket@NetInterfaceTrafficStats@@QAEXI@Z 0040f510 f   NetInterface.obj
 0001:0000e540       ?haveSeenTraffic@NetInterfaceTrafficStats@@QBEIXZ 0040f540 f   NetInterface.obj
 0001:0000e590       _our_MD5Init               0040f590 f   our_md5.obj
 0001:0000e5c0       _ourMD5Update              0040f5c0 f   our_md5.obj
 0001:0000f010       _our_MD5Final              00410010 f   our_md5.obj
 0001:0000f0d0       _our_MD5End                004100d0 f   our_md5hl.obj
 0001:0000f140       _our_MD5File               00410140 f   our_md5hl.obj
 0001:0000f1f0       _our_MD5Data               004101f0 f   our_md5hl.obj
 0001:0000f230       ?get_public_key@@YAPADXZ   00410230 f   rsa_crypto.obj
 0001:0000f240       ?init_crypto_key@@YAPAXPAEI0I@Z 00410240 f   rsa_crypto.obj
 0001:0000f2e0       ?crypto_encode@@YAHPAXPAEI1I@Z 004102e0 f   rsa_crypto.obj
 0001:0000f370       ?crypto_decode@@YAHPAXPAEI1I@Z 00410370 f   rsa_crypto.obj
 0001:0000f3b0       ?release_crypto_key@@YAXPAX@Z 004103b0 f   rsa_crypto.obj
 0001:0000f3c0       ?hex_digit@@YAHE@Z         004103c0 f   rsa_crypto.obj
 0001:0000f400       ?hex_value@@YADI@Z         00410400 f   rsa_crypto.obj
 0001:0000f420       ?hex2array@@YAHPADHPAEH@Z  00410420 f   rsa_crypto.obj
 0001:0000f4a0       ?array2hex@@YAHPAEHPADH@Z  004104a0 f   rsa_crypto.obj
 0001:0000f500       ?reapOldMembers@RTCPMemberDatabase@@QAEXI@Z 00410500 f   RTCP.obj
 0001:0000f570       ??0RTCPInstance@@IAE@AAVUsageEnvironment@@PAVGroupsock@@IPBEPAVRTPSink@@PBVRTPSource@@I@Z 00410570 f   RTCP.obj
 0001:0000f780       ??_GRTCPMemberDatabase@@UAEPAXI@Z 00410780 f i RTCP.obj
 0001:0000f780       ??_ERTCPMemberDatabase@@UAEPAXI@Z 00410780 f i RTCP.obj
 0001:0000f7e0       ??_ERTCPInstance@@MAEPAXI@Z 004107e0 f i RTCP.obj
 0001:0000f7e0       ??_GRTCPInstance@@MAEPAXI@Z 004107e0 f i RTCP.obj
 0001:0000f800       ??1RTCPInstance@@MAE@XZ    00410800 f   RTCP.obj
 0001:0000f910       ?createNew@RTCPInstance@@SAPAV1@AAVUsageEnvironment@@PAVGroupsock@@IPBEPAVRTPSink@@PBVRTPSource@@I@Z 00410910 f   RTCP.obj
 0001:0000f990       ?lookupByName@RTCPInstance@@SAIAAVUsageEnvironment@@PBDAAPAV1@@Z 00410990 f   RTCP.obj
 0001:0000f9f0       ?isRTCPInstance@RTCPInstance@@EBEIXZ 004109f0 f   RTCP.obj
 0001:0000fa00       ?numMembers@RTCPInstance@@QBEIXZ 00410a00 f   RTCP.obj
 0001:0000fa10       ?setByeHandler@RTCPInstance@@QAEXP6AXPAX@Z0I@Z 00410a10 f   RTCP.obj
 0001:0000fa40       ?setSRHandler@RTCPInstance@@QAEXP6AXPAX@Z0@Z 00410a40 f   RTCP.obj
 0001:0000fa60       ?setRRHandler@RTCPInstance@@QAEXP6AXPAX@Z0@Z 00410a60 f   RTCP.obj
 0001:0000fa80       ?setSpecificRRHandler@RTCPInstance@@QAEXIVPort@@P6AXPAX@Z1@Z 00410a80 f   RTCP.obj
 0001:0000fb40       ?unsetSpecificRRHandler@RTCPInstance@@AAEXIVPort@@@Z 00410b40 f   RTCP.obj
 0001:0000fb90       ?setStreamSocket@RTCPInstance@@QAEXHE@Z 00410b90 f   RTCP.obj
 0001:0000fbc0       ?addStreamSocket@RTCPInstance@@QAEXHE@Z 00410bc0 f   RTCP.obj
 0001:0000fbf0       ?incomingReportHandler@RTCPInstance@@CAXPAV1@H@Z 00410bf0 f   RTCP.obj
 0001:0000fc00       ?incomingReportHandler1@RTCPInstance@@AAEXXZ 00410c00 f   RTCP.obj
 0001:00010050       ?onReceive@RTCPInstance@@AAEXHHI@Z 00411050 f   RTCP.obj
 0001:000100d0       ?sendReport@RTCPInstance@@QAEXXZ 004110d0 f   RTCP.obj
 0001:00010130       ?sendBYE@RTCPInstance@@QAEXXZ 00411130 f   RTCP.obj
 0001:00010150       ?sendBuiltPacket@RTCPInstance@@AAEXXZ 00411150 f   RTCP.obj
 0001:000101a0       ?checkNewSSRC@RTCPInstance@@QAEHXZ 004111a0 f   RTCP.obj
 0001:000101e0       ?removeLastReceivedSSRC@RTCPInstance@@QAEXXZ 004111e0 f   RTCP.obj
 0001:000101f0       ?removeSSRC@RTCPInstance@@QAEXII@Z 004111f0 f   RTCP.obj
 0001:00010250       ?onExpire@RTCPInstance@@CAXPAV1@@Z 00411250 f   RTCP.obj
 0001:00010260       ?addReport@RTCPInstance@@AAEXXZ 00411260 f   RTCP.obj
 0001:00010280       ?addSR@RTCPInstance@@AAEXXZ 00411280 f   RTCP.obj
 0001:00010330       ?addRR@RTCPInstance@@AAEXXZ 00411330 f   RTCP.obj
 0001:00010360       ?enqueueCommonReportPrefix@RTCPInstance@@AAEXEII@Z 00411360 f   RTCP.obj
 0001:000103c0       ?enqueueCommonReportSuffix@RTCPInstance@@AAEXXZ 004113c0 f   RTCP.obj
 0001:00010440       ?enqueueReportBlock@RTCPInstance@@AAEXPAVRTPReceptionStats@@@Z 00411440 f   RTCP.obj
 0001:00010590       ?addSDES@RTCPInstance@@AAEXXZ 00411590 f   RTCP.obj
 0001:00010620       ?addBYE@RTCPInstance@@AAEXXZ 00411620 f   RTCP.obj
 0001:00010660       ?schedule@RTCPInstance@@QAEXN@Z 00411660 f   RTCP.obj
 0001:000106b0       ?reschedule@RTCPInstance@@QAEXN@Z 004116b0 f   RTCP.obj
 0001:000106e0       ?onExpire1@RTCPInstance@@AAEXXZ 004116e0 f   RTCP.obj
 0001:00010760       ??0SDESItem@@QAE@EPBE@Z    00411760 f   RTCP.obj
 0001:000107c0       ?totalSize@SDESItem@@QBEIXZ 004117c0 f   RTCP.obj
 0001:000107d0       _Schedule                  004117d0 f   RTCP.obj
 0001:000107f0       _Reschedule                004117f0 f   RTCP.obj
 0001:00010810       _SendRTCPReport            00411810 f   RTCP.obj
 0001:00010820       _SendBYEPacket             00411820 f   RTCP.obj
 0001:00010830       _TypeOfEvent               00411830 f   RTCP.obj
 0001:00010840       _SentPacketSize            00411840 f   RTCP.obj
 0001:00010850       _PacketType                00411850 f   RTCP.obj
 0001:00010860       _ReceivedPacketSize        00411860 f   RTCP.obj
 0001:00010870       _NewMember                 00411870 f   RTCP.obj
 0001:00010880       _NewSender                 00411880 f   RTCP.obj
 0001:00010890       _AddMember                 00411890 f   RTCP.obj
 0001:000108a0       _AddSender                 004118a0 f   RTCP.obj
 0001:000108b0       _RemoveMember              004118b0 f   RTCP.obj
 0001:000108c0       _RemoveSender              004118c0 f   RTCP.obj
 0001:000108d0       _drand30                   004118d0 f   RTCP.obj
 0001:00010900       _rtcp_interval             00411900 f   rtcp_from_spec.obj
 0001:000109a0       _OnExpire                  004119a0 f   rtcp_from_spec.obj
 0001:00010b20       _OnReceive                 00411b20 f   rtcp_from_spec.obj
 0001:00010d00       ??0RTPInterface@@QAE@PAVMedium@@PAVGroupsock@@@Z 00411d00 f   RTPInterface.obj
 0001:00010d60       ??_ERTPInterface@@UAEPAXI@Z 00411d60 f i RTPInterface.obj
 0001:00010d60       ??_GRTPInterface@@UAEPAXI@Z 00411d60 f i RTPInterface.obj
 0001:00010d80       ??1RTPInterface@@UAE@XZ    00411d80 f   RTPInterface.obj
 0001:00010da0       ?setStreamSocket@RTPInterface@@QAEXHE@Z 00411da0 f   RTPInterface.obj
 0001:00010dc0       ?addStreamSocket@RTPInterface@@QAEXHE@Z 00411dc0 f   RTPInterface.obj
 0001:00010e40       ?removeStreamSocket@RTPInterface@@QAEXHE@Z 00411e40 f   RTPInterface.obj
 0001:00010f90       ?setServerRequestAlternativeByteHandler@RTPInterface@@QAEXP6AXPAXE@Z0@Z 00411f90 f   RTPInterface.obj
 0001:00010ff0       ?sendPacket@RTPInterface@@QAEHPAEI@Z 00411ff0 f   RTPInterface.obj
 0001:00011050       ?startNetworkReading@RTPInterface@@QAEXP6AXPAXH@Z@Z 00412050 f   RTPInterface.obj
 0001:000110b0       ?handleRead@RTPInterface@@QAEIPAEIAAIAAUsockaddr_in@@@Z 004120b0 f   RTPInterface.obj
 0001:000111b0       ?stopNetworkReading@RTPInterface@@QAEXXZ 004121b0 f   RTPInterface.obj
 0001:000112c0       ??0SocketDescriptor@@QAE@AAVUsageEnvironment@@H@Z 004122c0 f   RTPInterface.obj
 0001:00011310       ??_GSocketDescriptor@@UAEPAXI@Z 00412310 f i RTPInterface.obj
 0001:00011310       ??_ESocketDescriptor@@UAEPAXI@Z 00412310 f i RTPInterface.obj
 0001:00011330       ??1SocketDescriptor@@UAE@XZ 00412330 f   RTPInterface.obj
 0001:00011350       ?registerRTPInterface@SocketDescriptor@@QAEXEPAVRTPInterface@@@Z 00412350 f   RTPInterface.obj
 0001:000113a0       ?lookupRTPInterface@SocketDescriptor@@QAEPAVRTPInterface@@E@Z 004123a0 f   RTPInterface.obj
 0001:000113c0       ?deregisterRTPInterface@SocketDescriptor@@QAEXE@Z 004123c0 f   RTPInterface.obj
 0001:00011470       ?tcpReadHandler@SocketDescriptor@@CAXPAV1@H@Z 00412470 f   RTPInterface.obj
 0001:000115e0       ??0tcpStreamRecord@@QAE@HEPAV0@@Z 004125e0 f   RTPInterface.obj
 0001:00011600       ??_EtcpStreamRecord@@UAEPAXI@Z 00412600 f i RTPInterface.obj
 0001:00011600       ??_GtcpStreamRecord@@UAEPAXI@Z 00412600 f i RTPInterface.obj
 0001:00011620       ??1tcpStreamRecord@@UAE@XZ 00412620 f   RTPInterface.obj
 0001:00011640       ?lookupByName@RTPSink@@SAIAAVUsageEnvironment@@PBDAAPAV1@@Z 00412640 f   RTPSink.obj
 0001:000116a0       ?isRTPSink@RTPSink@@EBEIXZ 004126a0 f   RTPSink.obj
 0001:000116b0       ??0RTPSink@@IAE@AAVUsageEnvironment@@PAVGroupsock@@EIPBDI@Z 004126b0 f   RTPSink.obj
 0001:000117b0       ??_GRTPSink@@MAEPAXI@Z     004127b0 f i RTPSink.obj
 0001:000117b0       ??_ERTPSink@@MAEPAXI@Z     004127b0 f i RTPSink.obj
 0001:000117d0       ??1RTPSink@@MAE@XZ         004127d0 f   RTPSink.obj
 0001:00011850       ?convertToRTPTimestamp@RTPSink@@QAEIUtimeval@@@Z 00412850 f   RTPSink.obj
 0001:000118c0       ?presetNextTimestamp@RTPSink@@QAEIXZ 004128c0 f   RTPSink.obj
 0001:000118e0       ?getTotalBitrate@RTPSink@@QAEXAAIAAN@Z 004128e0 f   RTPSink.obj
 0001:00011950       ?sdpMediaType@RTPSink@@UBEPBDXZ 00412950 f   RTPSink.obj
 0001:00011960       ?rtpmapLine@RTPSink@@UBEPADXZ 00412960 f   RTPSink.obj
 0001:00011a20       ?auxSDPLine@RTPSink@@UAEPBDXZ 00412a20 f   RTPSink.obj
 0001:00011a30       ??0RTPTransmissionStatsDB@@AAE@AAVRTPSink@@@Z 00412a30 f   RTPSink.obj
 0001:00011a60       ??_ERTPTransmissionStatsDB@@EAEPAXI@Z 00412a60 f i RTPSink.obj
 0001:00011a60       ??_GRTPTransmissionStatsDB@@EAEPAXI@Z 00412a60 f i RTPSink.obj
 0001:00011a80       ??1RTPTransmissionStatsDB@@EAE@XZ 00412a80 f   RTPSink.obj
 0001:00011ac0       ?noteIncomingRR@RTPTransmissionStatsDB@@QAEXIABUsockaddr_in@@IIIII@Z 00412ac0 f   RTPSink.obj
 0001:00011b60       ?removeRecord@RTPTransmissionStatsDB@@QAEXI@Z 00412b60 f   RTPSink.obj
 0001:00011ba0       ??0Iterator@RTPTransmissionStatsDB@@QAE@AAV1@@Z 00412ba0 f   RTPSink.obj
 0001:00011bd0       ??_GIterator@RTPTransmissionStatsDB@@UAEPAXI@Z 00412bd0 f i RTPSink.obj
 0001:00011bd0       ??_EIterator@RTPTransmissionStatsDB@@UAEPAXI@Z 00412bd0 f i RTPSink.obj
 0001:00011bf0       ??1Iterator@RTPTransmissionStatsDB@@UAE@XZ 00412bf0 f   RTPSink.obj
 0001:00011c10       ?next@Iterator@RTPTransmissionStatsDB@@QAEPAVRTPTransmissionStats@@XZ 00412c10 f   RTPSink.obj
 0001:00011c20       ?lookup@RTPTransmissionStatsDB@@QBEPAVRTPTransmissionStats@@I@Z 00412c20 f   RTPSink.obj
 0001:00011c30       ?add@RTPTransmissionStatsDB@@AAEXIPAVRTPTransmissionStats@@@Z 00412c30 f   RTPSink.obj
 0001:00011c50       ??0RTPTransmissionStats@@AAE@AAVRTPSink@@I@Z 00412c50 f   RTPSink.obj
 0001:00011cb0       ??_GRTPTransmissionStats@@EAEPAXI@Z 00412cb0 f i RTPSink.obj
 0001:00011cb0       ??_ERTPTransmissionStats@@EAEPAXI@Z 00412cb0 f i RTPSink.obj
 0001:00011cd0       ??1RTPTransmissionStats@@EAE@XZ 00412cd0 f   RTPSink.obj
 0001:00011ce0       ?noteIncomingRR@RTPTransmissionStats@@AAEXABUsockaddr_in@@IIIII@Z 00412ce0 f   RTPSink.obj
 0001:00011db0       ?roundTripDelay@RTPTransmissionStats@@QBEIXZ 00412db0 f   RTPSink.obj
 0001:00011e10       ?getTotalOctetCount@RTPTransmissionStats@@QAEXAAI0@Z 00412e10 f   RTPSink.obj
 0001:00011e30       ?getTotalPacketCount@RTPTransmissionStats@@QAEXAAI0@Z 00412e30 f   RTPSink.obj
 0001:00011e50       ?packetsReceivedSinceLastRR@RTPTransmissionStats@@QBEIXZ 00412e50 f   RTPSink.obj
 0001:00011e70       ?packetsLostBetweenRR@RTPTransmissionStats@@QBEHXZ 00412e70 f   RTPSink.obj
 0001:00011e90       ?lookupByName@RTPSource@@SAIAAVUsageEnvironment@@PBDAAPAV1@@Z 00412e90 f   RTPSource.obj
 0001:00011ef0       ?hasBeenSynchronizedUsingRTCP@RTPSource@@UAEIXZ 00412ef0 f   RTPSource.obj
 0001:00011f00       ?isRTPSource@RTPSource@@EBEIXZ 00412f00 f   RTPSource.obj
 0001:00011f10       ??0RTPSource@@IAE@AAVUsageEnvironment@@PAVGroupsock@@EI@Z 00412f10 f   RTPSource.obj
 0001:00011fc0       ??_ERTPSource@@MAEPAXI@Z   00412fc0 f i RTPSource.obj
 0001:00011fc0       ??_GRTPSource@@MAEPAXI@Z   00412fc0 f i RTPSource.obj
 0001:00011fe0       ??1RTPSource@@MAE@XZ       00412fe0 f   RTPSource.obj
 0001:00012050       ?getAttributes@RTPSource@@EBEXXZ 00413050 f   RTPSource.obj
 0001:00012060       ??0RTPReceptionStatsDB@@IAE@XZ 00413060 f   RTPSource.obj
 0001:00012090       ??_GRTPReceptionStatsDB@@MAEPAXI@Z 00413090 f i RTPSource.obj
 0001:00012090       ??_ERTPReceptionStatsDB@@MAEPAXI@Z 00413090 f i RTPSource.obj
 0001:000120b0       ?reset@RTPReceptionStatsDB@@QAEXXZ 004130b0 f   RTPSource.obj
 0001:00012130       ??1RTPReceptionStatsDB@@MAE@XZ 00413130 f   RTPSource.obj
 0001:00012170       ?noteIncomingPacket@RTPReceptionStatsDB@@QAEXIGIIIAAUtimeval@@AAII@Z 00413170 f   RTPSource.obj
 0001:00012230       ?noteIncomingSR@RTPReceptionStatsDB@@QAEXIIII@Z 00413230 f   RTPSource.obj
 0001:000122c0       ?removeRecord@RTPReceptionStatsDB@@QAEXI@Z 004132c0 f   RTPSource.obj
 0001:000122f0       ??0Iterator@RTPReceptionStatsDB@@QAE@AAV1@@Z 004132f0 f   RTPSource.obj
 0001:00012320       ??_EIterator@RTPReceptionStatsDB@@UAEPAXI@Z 00413320 f i RTPSource.obj
 0001:00012320       ??_GIterator@RTPReceptionStatsDB@@UAEPAXI@Z 00413320 f i RTPSource.obj
 0001:00012340       ??1Iterator@RTPReceptionStatsDB@@UAE@XZ 00413340 f   RTPSource.obj
 0001:00012360       ?next@Iterator@RTPReceptionStatsDB@@QAEPAVRTPReceptionStats@@I@Z 00413360 f   RTPSource.obj
 0001:00012390       ?lookup@RTPReceptionStatsDB@@QBEPAVRTPReceptionStats@@I@Z 00413390 f   RTPSource.obj
 0001:000123a0       ?add@RTPReceptionStatsDB@@IAEXIPAVRTPReceptionStats@@@Z 004133a0 f   RTPSource.obj
 0001:000123c0       ??0RTPReceptionStats@@IAE@IG@Z 004133c0 f   RTPSource.obj
 0001:000123f0       ??_ERTPReceptionStats@@MAEPAXI@Z 004133f0 f i RTPSource.obj
 0001:000123f0       ??_GRTPReceptionStats@@MAEPAXI@Z 004133f0 f i RTPSource.obj
 0001:00012410       ??0RTPReceptionStats@@IAE@I@Z 00413410 f   RTPSource.obj
 0001:00012430       ??1RTPReceptionStats@@MAE@XZ 00413430 f   RTPSource.obj
 0001:00012440       ?init@RTPReceptionStats@@AAEXI@Z 00413440 f   RTPSource.obj
 0001:000124a0       ?initSeqNum@RTPReceptionStats@@AAEXG@Z 004134a0 f   RTPSource.obj
 0001:000124c0       ?noteIncomingPacket@RTPReceptionStats@@AAEXGIIIAAUtimeval@@AAII@Z 004134c0 f   RTPSource.obj
 0001:00012750       ?noteIncomingSR@RTPReceptionStats@@AAEXIII@Z 00413750 f   RTPSource.obj
 0001:000127c0       ?totNumKBytesReceived@RTPReceptionStats@@QBENXZ 004137c0 f   RTPSource.obj
 0001:00012800       ?jitter@RTPReceptionStats@@QBEIXZ 00413800 f   RTPSource.obj
 0001:00012810       ?reset@RTPReceptionStats@@AAEXXZ 00413810 f   RTPSource.obj
 0001:00012820       ?seqNumLT@@YAIGG@Z         00413820 f   RTPSource.obj
 0001:00012860       ?eat_white@@YAPADPAD@Z     00413860 f   RTSPCommon.obj
 0001:00012880       ?next_white@@YAPADPAD@Z    00413880 f   RTSPCommon.obj
 0001:000128b0       ?next_line@@YAPADPAD@Z     004138b0 f   RTSPCommon.obj
 0001:000128e0       ?parseRTSPResponseString@@YAIPBDIPADI1I1I1IPAIPAPAE@Z 004138e0 f   RTSPCommon.obj
 0001:00012b40       ?parseRTSPRequestString@@YAIPBDIPADI1I1I1I@Z 00413b40 f   RTSPCommon.obj
 0001:00012e10       ?parseRTSPGetPostString@@YAIPBDIPADI1I1I1I1I@Z 00413e10 f   RTSPCommon.obj
 0001:00013010       ?parseRangeParam@@YAIPBDAAN1@Z 00414010 f   RTSPCommon.obj
 0001:000130f0       ?parseRangeHeader@@YAIPBDAAN1@Z 004140f0 f   RTSPCommon.obj
 0001:00013140       ?parseSpecifiedStringParam@@YAIPBDPAD1I@Z 00414140 f   RTSPCommon.obj
 0001:000131b0       ?parseTransportHeader@@YAXPBDAAW4StreamingMode@@AAPAD2AAEAAG433@Z 004141b0 f   RTSPCommon.obj
 0001:00013470       ?parsePlayNowHeader@@YAIPBD@Z 00414470 f   RTSPCommon.obj
 0001:000134a0       ?parseTokenFromURLSuffix@@YAXPAD00@Z 004144a0 f   RTSPCommon.obj
 0001:00013500       ?HexToDec@@YAHPAD@Z        00414500 f   RTSPCommon.obj
 0001:00013570       ?rtsp_parse_param_line_within_range@@YAPADPADH0@Z 00414570 f   RTSPEncoderSession.obj
 0001:00013610       ?rtsp_get_msg@@YAHPADH0@Z  00414610 f   RTSPEncoderSession.obj
 0001:000136a0       ??0RTSPEncoderSession@RTSPServer@@QAE@AAV1@PAVServerMediaSession@@IUsockaddr_in@@PADG3333I@Z 004146a0 f   RTSPEncoderSession.obj
 0001:00013930       ??_GRTSPEncoderSession@RTSPServer@@UAEPAXI@Z 00414930 f i RTSPEncoderSession.obj
 0001:00013930       ??_ERTSPEncoderSession@RTSPServer@@UAEPAXI@Z 00414930 f i RTSPEncoderSession.obj
 0001:00013950       ??1RTSPEncoderSession@RTSPServer@@UAE@XZ 00414950 f   RTSPEncoderSession.obj
 0001:00013960       ?noteLiveness@RTSPEncoderSession@RTSPServer@@IAEXXZ 00414960 f   RTSPEncoderSession.obj
 0001:000139b0       ?livenessTimeoutTask@RTSPEncoderSession@RTSPServer@@KAXPAV12@@Z 004149b0 f   RTSPEncoderSession.obj
 0001:000139d0       ?handleRequestBytes@RTSPEncoderSession@RTSPServer@@MAEXH@Z 004149d0 f   RTSPEncoderSession.obj
 0001:00014200       ?handleCmd_Badrequest@RTSPEncoderSession@RTSPServer@@IAEXXZ 00415200 f   RTSPEncoderSession.obj
 0001:00014240       ?handleCmd_Unauthorized@RTSPEncoderSession@RTSPServer@@IAEXXZ 00415240 f   RTSPEncoderSession.obj
 0001:00014400       ?handleCmd_SeeOtherServer@RTSPEncoderSession@RTSPServer@@MAEXPBD@Z 00415400 f   RTSPEncoderSession.obj
 0001:00014540       ?handleCmd_DESCRIBE@RTSPEncoderSession@RTSPServer@@MAEXPBD00@Z 00415540 f   RTSPEncoderSession.obj
 0001:00014850       ?handleCmd_SETUP@RTSPEncoderSession@RTSPServer@@MAEXPBD000@Z 00415850 f   RTSPEncoderSession.obj
 0001:00014e10       ?handleCmd_withinSession@RTSPEncoderSession@RTSPServer@@MAEXPBD0000@Z 00415e10 f   RTSPEncoderSession.obj
 0001:00014fd0       ?handleCmd_TEARDOWN@RTSPEncoderSession@RTSPServer@@MAEXPAVServerMediaSubsession@@PBD@Z 00415fd0 f   RTSPEncoderSession.obj
 0001:00015060       ?handleCmd_PLAY@RTSPEncoderSession@RTSPServer@@MAEXPAVServerMediaSubsession@@PBD1@Z 00416060 f   RTSPEncoderSession.obj
 0001:00015770       ?handleCmd_PAUSE@RTSPEncoderSession@RTSPServer@@MAEXPAVServerMediaSubsession@@PBD@Z 00416770 f   RTSPEncoderSession.obj
 0001:00015810       ?handleCmd_GET_PARAMETER_SubDirList@RTSPEncoderSession@RTSPServer@@MAEXPAVServerMediaSubsession@@PBD1@Z 00416810 f   RTSPEncoderSession.obj
 0001:00015ac0       ?handleCmd_GET_PARAMETER_SubFileList@RTSPEncoderSession@RTSPServer@@MAEXPAVServerMediaSubsession@@PBD1@Z 00416ac0 f   RTSPEncoderSession.obj
 0001:00015db0       ?handleCmd_GET_PARAMETER@RTSPEncoderSession@RTSPServer@@MAEXPAVServerMediaSubsession@@PBD1@Z 00416db0 f   RTSPEncoderSession.obj
 0001:00015e70       ?handleCmd_SET_PARAMETER_ResponsePtz@RTSPEncoderSession@RTSPServer@@MAEXPAVServerMediaSubsession@@PBD1@Z 00416e70 f   RTSPEncoderSession.obj
 0001:000164f0       ?handleCmd_SET_PARAMETER_ResponseScene@RTSPEncoderSession@RTSPServer@@MAEXPAVServerMediaSubsession@@PBD1@Z 004174f0 f   RTSPEncoderSession.obj
 0001:000166b0       ?handleCmd_SET_PARAMETER@RTSPEncoderSession@RTSPServer@@MAEXPAVServerMediaSubsession@@PBD1@Z 004176b0 f   RTSPEncoderSession.obj
 0001:000169d0       ?reNoteLiveness@RTSPEncoderSession@RTSPServer@@QAEXXZ 004179d0 f   RTSPEncoderSession.obj
 0001:00016a20       ?heartbeat@RTSPEncoderSession@RTSPServer@@SAXPAX@Z 00417a20 f   RTSPEncoderSession.obj
 0001:00016a90       ?do_heartbeat@RTSPEncoderSession@RTSPServer@@QAEH_N0PAD@Z 00417a90 f   RTSPEncoderSession.obj
 0001:00016cb0       ?deviceAlarm@RTSPEncoderSession@RTSPServer@@IAEXPADH@Z 00417cb0 f   RTSPEncoderSession.obj
 0001:00016ee0       ?register_Platform@RTSPEncoderSession@RTSPServer@@QAEHPAUsockaddr_in@@_N@Z 00417ee0 f   RTSPEncoderSession.obj
 0001:000172f0       ?createNewEncoderSession@RTSPServer@@UAEPAVRTSPEncoderSession@1@PAVServerMediaSession@@IUsockaddr_in@@PADG2222I@Z 004182f0 f   RTSPEncoderSession.obj
 0001:000173b0       ?GetRandom@RTSPEncoderSession@RTSPServer@@IAEPADXZ 004183b0 f   RTSPEncoderSession.obj
 0001:00017400       ?setSessionState@@YAHPADH@Z 00418400 f   RTSPEncoderSession.obj
 0001:00017490       ?getSessionState@@YAHPAD@Z 00418490 f   RTSPEncoderSession.obj
 0001:00017520       ?createNew@RTSPOverHTTPServer@@SAPAV1@AAVUsageEnvironment@@VPort@@1PBD@Z 00418520 f   RTSPOverHTTPServer.obj
 0001:000175b0       ?setUpOurSocket@RTSPOverHTTPServer@@KAHAAVUsageEnvironment@@AAVPort@@@Z 004185b0 f   RTSPOverHTTPServer.obj
 0001:000176a0       ??0RTSPOverHTTPServer@@IAE@AAVUsageEnvironment@@HVPort@@PBD@Z 004186a0 f   RTSPOverHTTPServer.obj
 0001:00017720       ??_ERTSPOverHTTPServer@@MAEPAXI@Z 00418720 f i RTSPOverHTTPServer.obj
 0001:00017720       ??_GRTSPOverHTTPServer@@MAEPAXI@Z 00418720 f i RTSPOverHTTPServer.obj
 0001:00017740       ??1RTSPOverHTTPServer@@MAE@XZ 00418740 f   RTSPOverHTTPServer.obj
 0001:000177a0       ?incomingConnectionHandler@RTSPOverHTTPServer@@CAXPAXH@Z 004187a0 f   RTSPOverHTTPServer.obj
 0001:000177b0       ?incomingConnectionHandler1@RTSPOverHTTPServer@@AAEXXZ 004187b0 f   RTSPOverHTTPServer.obj
 0001:00017890       ??0HTTPClientConnection@RTSPOverHTTPServer@@QAE@AAV1@H@Z 00418890 f   RTSPOverHTTPServer.obj
 0001:000178e0       ??_EHTTPClientConnection@RTSPOverHTTPServer@@UAEPAXI@Z 004188e0 f i RTSPOverHTTPServer.obj
 0001:000178e0       ??_GHTTPClientConnection@RTSPOverHTTPServer@@UAEPAXI@Z 004188e0 f i RTSPOverHTTPServer.obj
 0001:00017900       ??1HTTPClientConnection@RTSPOverHTTPServer@@UAE@XZ 00418900 f   RTSPOverHTTPServer.obj
 0001:00017930       ?incomingRequestHandler@HTTPClientConnection@RTSPOverHTTPServer@@CAXPAXH@Z 00418930 f   RTSPOverHTTPServer.obj
 0001:00017940       ?incomingRequestHandler1@HTTPClientConnection@RTSPOverHTTPServer@@AAEXXZ 00418940 f   RTSPOverHTTPServer.obj
 0001:00017b20       ?resetRequestBuffer@HTTPClientConnection@RTSPOverHTTPServer@@AAEXXZ 00418b20 f   RTSPOverHTTPServer.obj
 0001:00017b40       ?parseHTTPRequestString@HTTPClientConnection@RTSPOverHTTPServer@@AAEIPADI0I0I0I@Z 00418b40 f   RTSPOverHTTPServer.obj
 0001:00017b50       ?handleCmd_bad@HTTPClientConnection@RTSPOverHTTPServer@@AAEXXZ 00418b50 f   RTSPOverHTTPServer.obj
 0001:00017b70       ?getServerInfo@@YAXPADPAGH@Z 00418b70 f   RTSPSdk.obj
 0001:00017bb0       ?getDeviceInfo@@YAXEPADPAG0@Z 00418bb0 f   RTSPSdk.obj
 0001:00017c10       ?getHttpServerInfo@@YAXPADPAG@Z 00418c10 f   RTSPSdk.obj
 0001:00017c50       ?getListenPortByChannel@@YAXPAGE@Z 00418c50 f   RTSPSdk.obj
 0001:00017c70       ?getUserAgent@@YAXPADH@Z   00418c70 f   RTSPSdk.obj
 0001:00017cb0       ?readkey@@YAXEPAD@Z        00418cb0 f   RTSPSdk.obj
 0001:00017d40       ?writekey@@YAXEPBD@Z       00418d40 f   RTSPSdk.obj
 0001:00017db0       ?readSerial@RTSPEncoderSession@RTSPServer@@IAEXPAD@Z 00418db0 f   RTSPSdk.obj
 0001:00017dc0       ?writeSerial@RTSPEncoderSession@RTSPServer@@IAEXPBD@Z 00418dc0 f   RTSPSdk.obj
 0001:00017dd0       ?writeActiveServerInfo@RTSPEncoderSession@RTSPServer@@IAEXPBDG@Z 00418dd0 f   RTSPSdk.obj
 0001:00017de0       ?getVideoCodecConfig@@YAXHHPAHPAEPAI@Z 00418de0 f   RTSPSdk.obj
 0001:00017e80       ?deviceReset@RTSPEncoderSession@RTSPServer@@IAEXXZ 00418e80 f   RTSPSdk.obj
 0001:00017e90       ?deviceHandlePtz@RTSPEncoderSession@RTSPServer@@IAEXHH@Z 00418e90 f   RTSPSdk.obj
 0001:00017ea0       ?deviceHandleArmAndDisarmScene@RTSPEncoderSession@RTSPServer@@IAEXH@Z 00418ea0 f   RTSPSdk.obj
 0001:00017eb0       ?deviceReponseVideoPlayBack@RTSPEncoderSession@RTSPServer@@IAEXPAD@Z 00418eb0 f   RTSPSdk.obj
 0001:00017ec0       ?get_LanWebURL@RTSPEncoderSession@RTSPServer@@IAEXPADH@Z 00418ec0 f   RTSPSdk.obj
 0001:00017ef0       ?get_WanWebURL@RTSPEncoderSession@RTSPServer@@IAEXPADH@Z 00418ef0 f   RTSPSdk.obj
 0001:00017f20       ?get_P2PLanURL@RTSPEncoderSession@RTSPServer@@IAEXPADH@Z 00418f20 f   RTSPSdk.obj
 0001:00017f50       ?get_P2PWanURL@RTSPEncoderSession@RTSPServer@@IAEXPADH@Z 00418f50 f   RTSPSdk.obj
 0001:00017f80       ?get_LanFtpURL@RTSPEncoderSession@RTSPServer@@IAEXPADH@Z 00418f80 f   RTSPSdk.obj
 0001:00017fb0       ?get_WanFtpURL@RTSPEncoderSession@RTSPServer@@IAEXPADH@Z 00418fb0 f   RTSPSdk.obj
 0001:00017fe0       ?get_LanVoiceAddr@RTSPEncoderSession@RTSPServer@@IAEXPADH@Z 00418fe0 f   RTSPSdk.obj
 0001:00018010       ?get_WanVoiceAddr@RTSPEncoderSession@RTSPServer@@IAEXPADH@Z 00419010 f   RTSPSdk.obj
 0001:00018040       ?get_LanDataAddr@RTSPEncoderSession@RTSPServer@@IAEXPADH@Z 00419040 f   RTSPSdk.obj
 0001:00018070       ?get_WanDataAddr@RTSPEncoderSession@RTSPServer@@IAEXPADH@Z 00419070 f   RTSPSdk.obj
 0001:000180a0       ?videoGetFrameInfo@@YAXEPAXPADPAEPAH3@Z 004190a0 f   RTSPSdk.obj
 0001:00018160       ?audioGetFrameInfo@@YAXPAXPAD1PAH2@Z 00419160 f   RTSPSdk.obj
 0001:000181c0       ?getFileHandle@@YAPAXHPAD0PAH@Z 004191c0 f   RTSPSdk.obj
 0001:00018210       ?releaseFileHandle@@YAXPAX@Z 00419210 f   RTSPSdk.obj
 0001:00018220       ?getRecordDirectories@@YAXHPAPADPAH11@Z 00419220 f   RTSPSdk.obj
 0001:00018230       ?paraseTimeRangeBy_tzp@@YAXPADQAPAD@Z 00419230 f   RTSPSdk.obj
 0001:00018290       ?parseTime_getTimeFileList@@YAXPAPADPADJJPAH22@Z 00419290 f   RTSPSdk.obj
 0001:000182a0       ?getRecordFiles@@YAXHPADPAPADPAH22@Z 004192a0 f   RTSPSdk.obj
 0001:000182b0       ?getFileVideoFrame@@YAXPAXPAHPAE11_N@Z 004192b0 f   RTSPSdk.obj
 0001:00018310       ?getFileAudioFrame@@YAXPAXPAHPAE11@Z 00419310 f   RTSPSdk.obj
 0001:00018370       ?getSubsessionParaConfig@@YAXPADHHAAI11111@Z 00419370 f   RTSPSdk.obj
 0001:00018540       ?getStoreFileResolution@@YAXPADAAH1@Z 00419540 f   RTSPSdk.obj
 0001:000185c0       ?getUpgradeStatus@@YAXPAD0@Z 004195c0 f   RTSPSdk.obj
 0001:00018640       ?createNew@RTSPServer@@SAPAV1@AAVUsageEnvironment@@VPort@@PAVUserAuthenticationDatabase@@I@Z 00419640 f   RTSPServer.obj
 0001:000186d0       ?lookupByName@RTSPServer@@SAIAAVUsageEnvironment@@PBDAAPAV1@@Z 004196d0 f   RTSPServer.obj
 0001:00018730       ?addServerMediaSession@RTSPServer@@QAEXPAVServerMediaSession@@@Z 00419730 f   RTSPServer.obj
 0001:00018760       ?lookupServerMediaSession@RTSPServer@@UAEPAVServerMediaSession@@PBD@Z 00419760 f   RTSPServer.obj
 0001:00018770       ?removeServerMediaSession@RTSPServer@@QAEXPAVServerMediaSession@@@Z 00419770 f   RTSPServer.obj
 0001:000187b0       ?removeServerMediaSession@RTSPServer@@QAEXPBD@Z 004197b0 f   RTSPServer.obj
 0001:000187d0       ?rtspURLPrefix@RTSPServer@@QBEPADH@Z 004197d0 f   RTSPServer.obj
 0001:00018880       ?rtspURL@RTSPServer@@QBEPADPBVServerMediaSession@@H@Z 00419880 f   RTSPServer.obj
 0001:000188e0       ?setUpOurSocket@RTSPServer@@KAHAAVUsageEnvironment@@AAVPort@@@Z 004198e0 f   RTSPServer.obj
 0001:00018960       ?specialClientAccessCheck@RTSPServer@@MAEIHAAUsockaddr_in@@PBD@Z 00419960 f   RTSPServer.obj
 0001:00018970       ??0RTSPServer@@IAE@AAVUsageEnvironment@@HVPort@@PAVUserAuthenticationDatabase@@I@Z 00419970 f   RTSPServer.obj
 0001:00018a00       ??_GRTSPServer@@MAEPAXI@Z  00419a00 f i RTSPServer.obj
 0001:00018a00       ??_ERTSPServer@@MAEPAXI@Z  00419a00 f i RTSPServer.obj
 0001:00018a20       ??1RTSPServer@@MAE@XZ      00419a20 f   RTSPServer.obj
 0001:00018ab0       ?isRTSPServer@RTSPServer@@EBEIXZ 00419ab0 f   RTSPServer.obj
 0001:00018ac0       ?incomingConnectionHandler@RTSPServer@@CAXPAXH@Z 00419ac0 f   RTSPServer.obj
 0001:00018ad0       ?incomingConnectionHandler1@RTSPServer@@AAEXXZ 00419ad0 f   RTSPServer.obj
 0001:00018b70       ??0RTSPClientSession@RTSPServer@@QAE@AAV1@IHUsockaddr_in@@@Z 00419b70 f   RTSPServer.obj
 0001:00018c90       ??_ERTSPClientSession@RTSPServer@@UAEPAXI@Z 00419c90 f i RTSPServer.obj
 0001:00018c90       ??_GRTSPClientSession@RTSPServer@@UAEPAXI@Z 00419c90 f i RTSPServer.obj
 0001:00018cb0       ??1RTSPClientSession@RTSPServer@@UAE@XZ 00419cb0 f   RTSPServer.obj
 0001:00018e20       ?closeHttpSocketAndFreeResource@RTSPClientSession@RTSPServer@@QAEXXZ 00419e20 f   RTSPServer.obj
 0001:00018e30       ?reclaimStreamStates@RTSPClientSession@RTSPServer@@IAEXXZ 00419e30 f   RTSPServer.obj
 0001:00018ea0       ?resetRequestBuffer@RTSPClientSession@RTSPServer@@IAEXXZ 00419ea0 f   RTSPServer.obj
 0001:00018ee0       ?incomingRequestHandler@RTSPClientSession@RTSPServer@@KAXPAXH@Z 00419ee0 f   RTSPServer.obj
 0001:00018f00       ?incomingHttpRequestHandler@RTSPClientSession@RTSPServer@@KAXPAXH@Z 00419f00 f   RTSPServer.obj
 0001:00018f10       ?incomingHttpGetRequestHandler@RTSPClientSession@RTSPServer@@KAXPAXH@Z 00419f10 f   RTSPServer.obj
 0001:00018f20       ?incomingHttpGetRequestHandler1@RTSPClientSession@RTSPServer@@MAEXXZ 00419f20 f   RTSPServer.obj
 0001:00018fa0       ?incomingHttpRequestHandler1@RTSPClientSession@RTSPServer@@MAEXXZ 00419fa0 f   RTSPServer.obj
 0001:00019020       ?incomingRequestHandler1@RTSPClientSession@RTSPServer@@MAEXXZ 0041a020 f   RTSPServer.obj
 0001:000190c0       ?handleAlternativeRequestByte@RTSPClientSession@RTSPServer@@KAXPAXE@Z 0041a0c0 f   RTSPServer.obj
 0001:000190d0       ?handleAlternativeRequestByte1@RTSPClientSession@RTSPServer@@MAEXE@Z 0041a0d0 f   RTSPServer.obj
 0001:00019140       ?handleRequestBytes@RTSPClientSession@RTSPServer@@MAEXH@Z 0041a140 f   RTSPServer.obj
 0001:00019f80       ?dateHeader@@YAPBDXZ       0041af80 f   RTSPServer.obj
 0001:00019fc0       ?handleCmd_bad@RTSPClientSession@RTSPServer@@MAEXPBD@Z 0041afc0 f   RTSPServer.obj
 0001:00019ff0       ?handleCmd_notSupported@RTSPClientSession@RTSPServer@@MAEXPBD@Z 0041aff0 f   RTSPServer.obj
 0001:0001a030       ?handleCmd_notFound@RTSPClientSession@RTSPServer@@MAEXPBD@Z 0041b030 f   RTSPServer.obj
 0001:0001a070       ?handleCmd_unsupportedTransport@RTSPClientSession@RTSPServer@@MAEXPBD@Z 0041b070 f   RTSPServer.obj
 0001:0001a0b0       ?handleCmd_OPTIONS@RTSPClientSession@RTSPServer@@MAEXPBD@Z 0041b0b0 f   RTSPServer.obj
 0001:0001a0f0       ?handleCmd_DESCRIBE@RTSPClientSession@RTSPServer@@MAEXPBD00@Z 0041b0f0 f   RTSPServer.obj
 0001:0001a4d0       ?handleCmd_SETUP@RTSPClientSession@RTSPServer@@MAEXPBD000@Z 0041b4d0 f   RTSPServer.obj
 0001:0001ab80       ?handleCmd_withinSession@RTSPClientSession@RTSPServer@@MAEXPBD0000@Z 0041bb80 f   RTSPServer.obj
 0001:0001aed0       ?handleCmd_TEARDOWN@RTSPClientSession@RTSPServer@@MAEXPAVServerMediaSubsession@@PBD@Z 0041bed0 f   RTSPServer.obj
 0001:0001af60       ?parseScaleHeader@@YAIPBDAAM@Z 0041bf60 f   RTSPServer.obj
 0001:0001afd0       ?handleCmd_PLAY@RTSPClientSession@RTSPServer@@MAEXPAVServerMediaSubsession@@PBD1@Z 0041bfd0 f   RTSPServer.obj
 0001:0001b520       ?handleCmd_PAUSE@RTSPClientSession@RTSPServer@@MAEXPAVServerMediaSubsession@@PBD@Z 0041c520 f   RTSPServer.obj
 0001:0001b5b0       ?handleCmd_GET_PARAMETER@RTSPClientSession@RTSPServer@@MAEXPAVServerMediaSubsession@@PBD1@Z 0041c5b0 f   RTSPServer.obj
 0001:0001b5f0       ?handleCmd_SET_PARAMETER@RTSPClientSession@RTSPServer@@MAEXPAVServerMediaSubsession@@PBD1@Z 0041c5f0 f   RTSPServer.obj
 0001:0001b600       ?authenticationOK@RTSPClientSession@RTSPServer@@IAEIPBD000@Z 0041c600 f   RTSPServer.obj
 0001:0001bb20       ?noteLiveness@RTSPClientSession@RTSPServer@@QAEXXZ 0041cb20 f   RTSPServer.obj
 0001:0001bb60       ?noteClientLiveness@RTSPClientSession@RTSPServer@@KAXPAV12@@Z 0041cb60 f   RTSPServer.obj
 0001:0001bb70       ?livenessTimeoutTask@RTSPClientSession@RTSPServer@@KAXPAV12@@Z 0041cb70 f   RTSPServer.obj
 0001:0001bb80       ?createNewClientSession@RTSPServer@@UAEPAVRTSPClientSession@1@IHUsockaddr_in@@@Z 0041cb80 f   RTSPServer.obj
 0001:0001bc10       ??0ServerMediaSessionIterator@RTSPServer@@QAE@AAV1@@Z 0041cc10 f   RTSPServer.obj
 0001:0001bc50       ??_EServerMediaSessionIterator@RTSPServer@@UAEPAXI@Z 0041cc50 f i RTSPServer.obj
 0001:0001bc50       ??_GServerMediaSessionIterator@RTSPServer@@UAEPAXI@Z 0041cc50 f i RTSPServer.obj
 0001:0001bc70       ??1ServerMediaSessionIterator@RTSPServer@@UAE@XZ 0041cc70 f   RTSPServer.obj
 0001:0001bc90       ?next@ServerMediaSessionIterator@RTSPServer@@QAEPAVServerMediaSession@@XZ 0041cc90 f   RTSPServer.obj
 0001:0001bcb0       ??0UserAuthenticationDatabase@@QAE@PBDI@Z 0041ccb0 f   RTSPServer.obj
 0001:0001bcf0       ??_GUserAuthenticationDatabase@@UAEPAXI@Z 0041ccf0 f i RTSPServer.obj
 0001:0001bcf0       ??_EUserAuthenticationDatabase@@UAEPAXI@Z 0041ccf0 f i RTSPServer.obj
 0001:0001bd10       ??1UserAuthenticationDatabase@@UAE@XZ 0041cd10 f   RTSPServer.obj
 0001:0001bd40       ?addUserRecord@UserAuthenticationDatabase@@UAEXPBD0@Z 0041cd40 f   RTSPServer.obj
 0001:0001bd70       ?removeUserRecord@UserAuthenticationDatabase@@UAEXPBD@Z 0041cd70 f   RTSPServer.obj
 0001:0001bda0       ?lookupPassword@UserAuthenticationDatabase@@UAEPBDPBD@Z 0041cda0 f   RTSPServer.obj
 0001:0001bdb0       ?insert@?$vector@PAVRTSPClientSession@RTSPServer@@V?$allocator@PAVRTSPClientSession@RTSPServer@@@std@@@std@@QAEXPAPAVRTSPClientSession@RTSPServer@@IABQAV34@@Z 0041cdb0 f i RTSPServer.obj
 0001:0001bfc0       ?createNew@ServerMediaSession@@SAPAV1@AAVUsageEnvironment@@PBD11I1@Z 0041cfc0 f   ServerMediaSession.obj
 0001:0001c040       ?lookupByName@ServerMediaSession@@SAIAAVUsageEnvironment@@PBDAAPAV1@@Z 0041d040 f   ServerMediaSession.obj
 0001:0001c0a0       ??0ServerMediaSession@@IAE@AAVUsageEnvironment@@PBD11I1@Z 0041d0a0 f   ServerMediaSession.obj
 0001:0001c170       ??_GServerMediaSession@@UAEPAXI@Z 0041d170 f i ServerMediaSession.obj
 0001:0001c170       ??_EServerMediaSession@@UAEPAXI@Z 0041d170 f i ServerMediaSession.obj
 0001:0001c190       ??1ServerMediaSession@@UAE@XZ 0041d190 f   ServerMediaSession.obj
 0001:0001c210       ?addSubsession@ServerMediaSession@@QAEIPAVServerMediaSubsession@@@Z 0041d210 f   ServerMediaSession.obj
 0001:0001c250       ?resetMediaServersession@ServerMediaSession@@QAEXXZ 0041d250 f   ServerMediaSession.obj
 0001:0001c260       ?testScaleFactor@ServerMediaSession@@QAEXAAM@Z 0041d260 f   ServerMediaSession.obj
 0001:0001c3e0       ?duration@ServerMediaSession@@QBEMXZ 0041d3e0 f   ServerMediaSession.obj
 0001:0001c470       ?isServerMediaSession@ServerMediaSession@@EBEIXZ 0041d470 f   ServerMediaSession.obj
 0001:0001c480       ?generateSDPDescription@ServerMediaSession@@QAEPADXZ 0041d480 f   ServerMediaSession.obj
 0001:0001c650       ??0ServerMediaSubsessionIterator@@QAE@AAVServerMediaSession@@@Z 0041d650 f   ServerMediaSession.obj
 0001:0001c670       ??_GServerMediaSubsessionIterator@@UAEPAXI@Z 0041d670 f i ServerMediaSession.obj
 0001:0001c670       ??_EServerMediaSubsessionIterator@@UAEPAXI@Z 0041d670 f i ServerMediaSession.obj
 0001:0001c690       ??1ServerMediaSubsessionIterator@@UAE@XZ 0041d690 f   ServerMediaSession.obj
 0001:0001c6a0       ?next@ServerMediaSubsessionIterator@@QAEPAVServerMediaSubsession@@XZ 0041d6a0 f   ServerMediaSession.obj
 0001:0001c6b0       ?reset@ServerMediaSubsessionIterator@@QAEXXZ 0041d6b0 f   ServerMediaSession.obj
 0001:0001c6c0       ??0ServerMediaSubsession@@IAE@AAVUsageEnvironment@@@Z 0041d6c0 f   ServerMediaSession.obj
 0001:0001c6f0       ??_GServerMediaSubsession@@UAEPAXI@Z 0041d6f0 f i ServerMediaSession.obj
 0001:0001c6f0       ??_EServerMediaSubsession@@UAEPAXI@Z 0041d6f0 f i ServerMediaSession.obj
 0001:0001c710       ?resetServerMediaSubsession@ServerMediaSubsession@@QAEXXZ 0041d710 f   ServerMediaSession.obj
 0001:0001c730       ??1ServerMediaSubsession@@UAE@XZ 0041d730 f   ServerMediaSession.obj
 0001:0001c790       ?trackId@ServerMediaSubsession@@QAEPBDXZ 0041d790 f   ServerMediaSession.obj
 0001:0001c7e0       ?pauseStream@ServerMediaSubsession@@UAEXIPAX@Z 0041d7e0 f   ServerMediaSession.obj
 0001:0001c7f0       ?seekStream@ServerMediaSubsession@@UAEXIPAXN@Z 0041d7f0 f   ServerMediaSession.obj
 0001:0001c800       ?setStreamScale@ServerMediaSubsession@@UAEXIPAXM@Z 0041d800 f   ServerMediaSession.obj
 0001:0001c810       ?deleteStream@ServerMediaSubsession@@UAEXIAAPAX@Z 0041d810 f   ServerMediaSession.obj
 0001:0001c820       ?testScaleFactor@ServerMediaSubsession@@UAEXAAM@Z 0041d820 f   ServerMediaSession.obj
 0001:0001c830       ?duration@ServerMediaSubsession@@UBEMXZ 0041d830 f   ServerMediaSession.obj
 0001:0001c840       ?setServerAddressAndPortForSDP@ServerMediaSubsession@@QAEXIG@Z 0041d840 f   ServerMediaSession.obj
 0001:0001c860       ?rangeSDPLine@ServerMediaSubsession@@IBEPBDXZ 0041d860 f   ServerMediaSession.obj
 0001:0001c8f0       ?strDup@@YAPADPBD@Z        0041d8f0 f   strDup.obj
 0001:0001c930       ?strDupSize@@YAPADPBD@Z    0041d930 f   strDup.obj
 0001:0001c960       ??0StreamParser@@IAE@PAVFramedSource@@P6AXPAX@Z1P6AX1PAEIUtimeval@@@Z1@Z 0041d960 f   StreamParser.obj
 0001:0001c9d0       ??_EStreamParser@@MAEPAXI@Z 0041d9d0 f i StreamParser.obj
 0001:0001c9d0       ??_GStreamParser@@MAEPAXI@Z 0041d9d0 f i StreamParser.obj
 0001:0001c9f0       ??1StreamParser@@MAE@XZ    0041d9f0 f   StreamParser.obj
 0001:0001ca10       ?ensureValidBytes1@StreamParser@@AAEXI@Z 0041da10 f   StreamParser.obj
 0001:0001cb30       ?afterGettingBytes@StreamParser@@CAXPAXIIUtimeval@@I@Z 0041db30 f   StreamParser.obj
 0001:0001cbc0       ?saveParserState@StreamParser@@IAEXXZ 0041dbc0 f   StreamParser.obj
 0001:0001cbd0       ?restoreSavedParserState@StreamParser@@MAEXXZ 0041dbd0 f   StreamParser.obj
 0001:0001cbe0       ?skipBits@StreamParser@@IAEXI@Z 0041dbe0 f   StreamParser.obj
 0001:0001cc40       ?getBits@StreamParser@@IAEII@Z 0041dc40 f   StreamParser.obj
 0001:0001cd20       ?flushInput@StreamParser@@UAEXXZ 0041dd20 f   StreamParser.obj
 0001:0001cd40       ?reclaim@UsageEnvironment@@QAEXXZ 0041dd40 f   UsageEnvironment.obj
 0001:0001cd60       ??0UsageEnvironment@@IAE@AAVTaskScheduler@@@Z 0041dd60 f   UsageEnvironment.obj
 0001:0001cd80       ??_EUsageEnvironment@@MAEPAXI@Z 0041dd80 f i UsageEnvironment.obj
 0001:0001cd80       ??_GUsageEnvironment@@MAEPAXI@Z 0041dd80 f i UsageEnvironment.obj
 0001:0001cda0       ??1UsageEnvironment@@MAE@XZ 0041dda0 f   UsageEnvironment.obj
 0001:0001cdb0       ??0TaskScheduler@@IAE@XZ   0041ddb0 f   UsageEnvironment.obj
 0001:0001cdc0       ??_ETaskScheduler@@UAEPAXI@Z 0041ddc0 f i UsageEnvironment.obj
 0001:0001cdc0       ??_GTaskScheduler@@UAEPAXI@Z 0041ddc0 f i UsageEnvironment.obj
 0001:0001cde0       ??1TaskScheduler@@UAE@XZ   0041dde0 f   UsageEnvironment.obj
 0001:0001cdf0       ?rescheduleDelayedTask@TaskScheduler@@UAEXAAPAX_JP6AXPAX@Z2@Z 0041ddf0 f   UsageEnvironment.obj
 0001:0001ce20       ??0VideoRTPSink@@IAE@AAVUsageEnvironment@@PAXPAVGroupsock@@EIPBD@Z 0041de20 f   VideoRTPSink.obj
 0001:0001ce60       ??_EVideoRTPSink@@MAEPAXI@Z 0041de60 f i VideoRTPSink.obj
 0001:0001ce60       ??_GVideoRTPSink@@MAEPAXI@Z 0041de60 f i VideoRTPSink.obj
 0001:0001ce80       ??1VideoRTPSink@@MAE@XZ    0041de80 f   VideoRTPSink.obj
 0001:0001ce90       ?sdpMediaType@VideoRTPSink@@EBEPBDXZ 0041de90 f   VideoRTPSink.obj
 0001:0001cea0       ?xvid_enc_init@@YAPAXHHHHHH@Z 0041dea0 f   xvid_interface.obj
 0001:0001d0d0       ?xvid_encode_frame@@YAHPAXPAEHH1I@Z 0041e0d0 f   xvid_interface.obj
 0001:0001d160       ?xvid_release@@YAXPAX@Z    0041e160 f   xvid_interface.obj
 0001:0001d180       _GetLastError@0            0041e180 f   kernel32:KERNEL32.dll
 0001:0001d186       _OutputDebugStringA@4      0041e186 f   kernel32:KERNEL32.dll
 0001:0001d18c       _CreateProcessA@40         0041e18c f   kernel32:KERNEL32.dll
 0001:0001d192       _lstrcatA@8                0041e192 f   kernel32:KERNEL32.dll
 0001:0001d198       _IsDebuggerPresent@0       0041e198 f   kernel32:KERNEL32.dll
 0001:0001d19e       _CloseHandle@4             0041e19e f   kernel32:KERNEL32.dll
 0001:0001d1a4       _VirtualQuery@12           0041e1a4 f   kernel32:KERNEL32.dll
 0001:0001d1aa       _SetFilePointer@16         0041e1aa f   kernel32:KERNEL32.dll
 0001:0001d1b0       _CreateFileA@28            0041e1b0 f   kernel32:KERNEL32.dll
 0001:0001d1b6       _lstrcpyA@8                0041e1b6 f   kernel32:KERNEL32.dll
 0001:0001d1bc       _GetModuleFileNameA@12     0041e1bc f   kernel32:KERNEL32.dll
 0001:0001d1c2       _WriteFile@20              0041e1c2 f   kernel32:KERNEL32.dll
 0001:0001d1c8       _lstrlenA@4                0041e1c8 f   kernel32:KERNEL32.dll
 0001:0001d1ce       _GetCurrentProcess@0       0041e1ce f   kernel32:KERNEL32.dll
 0001:0001d1d4       _GetCurrentProcessId@0     0041e1d4 f   kernel32:KERNEL32.dll
 0001:0001d1da       _GetCurrentThreadId@0      0041e1da f   kernel32:KERNEL32.dll
 0001:0001d1e0       _RaiseException@16         0041e1e0 f   kernel32:KERNEL32.dll
 0001:0001d1e6       _GetSystemInfo@4           0041e1e6 f   kernel32:KERNEL32.dll
 0001:0001d1ec       _GetFileTime@16            0041e1ec f   kernel32:KERNEL32.dll
 0001:0001d1f2       _GetFileSize@8             0041e1f2 f   kernel32:KERNEL32.dll
 0001:0001d1f8       _FileTimeToDosDateTime@12  0041e1f8 f   kernel32:KERNEL32.dll
 0001:0001d1fe       _FileTimeToLocalFileTime@8 0041e1fe f   kernel32:KERNEL32.dll
 0001:0001d204       _GlobalMemoryStatus@4      0041e204 f   kernel32:KERNEL32.dll
 0001:0001d20a       _GetSystemTimeAsFileTime@4 0041e20a f   kernel32:KERNEL32.dll
 0001:0001d210       _GetVersionExA@4           0041e210 f   kernel32:KERNEL32.dll
 0001:0001d216       _QueryPerformanceFrequency@4 0041e216 f   kernel32:KERNEL32.dll
 0001:0001d21c       _QueryPerformanceCounter@4 0041e21c f   kernel32:KERNEL32.dll
 0001:0001d222       _InitializeCriticalSection@4 0041e222 f   kernel32:KERNEL32.dll
 0001:0001d228       _LeaveCriticalSection@4    0041e228 f   kernel32:KERNEL32.dll
 0001:0001d22e       _EnterCriticalSection@4    0041e22e f   kernel32:KERNEL32.dll
 0001:0001d234       _Sleep@4                   0041e234 f   kernel32:KERNEL32.dll
 0001:0001d23a       _GetTickCount@0            0041e23a f   kernel32:KERNEL32.dll
 0001:0001d240       _CreateThread@24           0041e240 f   kernel32:KERNEL32.dll
 0001:0001d246       _lstrcpynA@12              0041e246 f   kernel32:KERNEL32.dll
 0001:0001d24c       _DestroyWindow@4           0041e24c f   user32:USER32.dll
 0001:0001d252       _CreateWindowExA@48        0041e252 f   user32:USER32.dll
 0001:0001d258       _RegisterClassExA@4        0041e258 f   user32:USER32.dll
 0001:0001d25e       _LoadIconA@8               0041e25e f   user32:USER32.dll
 0001:0001d264       _LoadCursorA@8             0041e264 f   user32:USER32.dll
 0001:0001d26a       _DispatchMessageA@4        0041e26a f   user32:USER32.dll
 0001:0001d270       _TranslateMessage@4        0041e270 f   user32:USER32.dll
 0001:0001d276       _GetMessageA@16            0041e276 f   user32:USER32.dll
 0001:0001d27c       _PostMessageA@16           0041e27c f   user32:USER32.dll
 0001:0001d282       _wsprintfA                 0041e282 f   user32:USER32.dll
 0001:0001d288       _wvsprintfA@12             0041e288 f   user32:USER32.dll
 0001:0001d28e       _GetUserNameA@8            0041e28e f   advapi32:ADVAPI32.dll
 0001:0001d294       ___WSAFDIsSet@8            0041e294 f   wsock32:WSOCK32.dll
 0001:0001d29a       _socket@12                 0041e29a f   wsock32:WSOCK32.dll
 0001:0001d2a0       _WSAGetLastError@0         0041e2a0 f   wsock32:WSOCK32.dll
 0001:0001d2a6       _select@20                 0041e2a6 f   wsock32:WSOCK32.dll
 0001:0001d2ac       _gethostname@8             0041e2ac f   wsock32:WSOCK32.dll
 0001:0001d2b2       _closesocket@4             0041e2b2 f   wsock32:WSOCK32.dll
 0001:0001d2b8       _ntohs@4                   0041e2b8 f   wsock32:WSOCK32.dll
 0001:0001d2be       _bind@12                   0041e2be f   wsock32:WSOCK32.dll
 0001:0001d2c4       _setsockopt@20             0041e2c4 f   wsock32:WSOCK32.dll
 0001:0001d2ca       _ioctlsocket@12            0041e2ca f   wsock32:WSOCK32.dll
 0001:0001d2d0       _recvfrom@24               0041e2d0 f   wsock32:WSOCK32.dll
 0001:0001d2d6       _sendto@24                 0041e2d6 f   wsock32:WSOCK32.dll
 0001:0001d2dc       _getsockopt@20             0041e2dc f   wsock32:WSOCK32.dll
 0001:0001d2e2       _getsockname@12            0041e2e2 f   wsock32:WSOCK32.dll
 0001:0001d2e8       _ntohl@4                   0041e2e8 f   wsock32:WSOCK32.dll
 0001:0001d2ee       _gethostbyname@4           0041e2ee f   wsock32:WSOCK32.dll
 0001:0001d2f4       _htonl@4                   0041e2f4 f   wsock32:WSOCK32.dll
 0001:0001d2fa       _inet_addr@4               0041e2fa f   wsock32:WSOCK32.dll
 0001:0001d300       _inet_ntoa@4               0041e300 f   wsock32:WSOCK32.dll
 0001:0001d306       _WSACleanup@0              0041e306 f   wsock32:WSOCK32.dll
 0001:0001d30c       _WSAStartup@8              0041e30c f   wsock32:WSOCK32.dll
 0001:0001d312       _recv@16                   0041e312 f   wsock32:WSOCK32.dll
 0001:0001d318       _send@16                   0041e318 f   wsock32:WSOCK32.dll
 0001:0001d31e       _connect@12                0041e31e f   wsock32:WSOCK32.dll
 0001:0001d324       _htons@4                   0041e324 f   wsock32:WSOCK32.dll
 0001:0001d32a       _listen@8                  0041e32a f   wsock32:WSOCK32.dll
 0001:0001d330       _accept@12                 0041e330 f   wsock32:WSOCK32.dll
 0001:0001d340       _xvid_global               0041e340 f   libxvidcore:xvid.obj
 0001:0001dee0       _xvid_decore               0041eee0 f   libxvidcore:xvid.obj
 0001:0001df30       _xvid_encore               0041ef30 f   libxvidcore:xvid.obj
 0001:0001df80       _xvid_plugin_2pass1        0041ef80 f   libxvidcore:plugin_2pass1.obj
 0001:0001e210       _xvid_plugin_2pass2        0041f210 f   libxvidcore:plugin_2pass2.obj
 0001:000200f0       _xvid_plugin_single        004210f0 f   libxvidcore:plugin_single.obj
 0001:0002aa00       _xvid_Init_QP              0042ba00 f   libxvidcore:qpel.obj
 0001:0002abd0       _init_GMC                  0042bbd0 f   libxvidcore:gmc.obj
 0001:0002b830       _generate_GMCparameters    0042c830 f   libxvidcore:gmc.obj
 0001:0002c000       _generate_GMCimage         0042d000 f   libxvidcore:gmc.obj
 0001:0002c180       _sad16_c                   0042d180 f   libxvidcore:sad.obj
 0001:0002c300       _sad16bi_c                 0042d300 f   libxvidcore:sad.obj
 0001:0002c390       _sad8bi_c                  0042d390 f   libxvidcore:sad.obj
 0001:0002c420       _sad8_c                    0042d420 f   libxvidcore:sad.obj
 0001:0002c510       _dev16_c                   0042d510 f   libxvidcore:sad.obj
 0001:0002c570       _sad16v_c                  0042d570 f   libxvidcore:sad.obj
 0001:0002c5e0       _sad32v_c                  0042d5e0 f   libxvidcore:sad.obj
 0001:0002c670       _mrsad16_c                 0042d670 f   libxvidcore:sad.obj
 0001:0002c750       _sse8_16bit_c              0042d750 f   libxvidcore:sad.obj
 0001:0002c850       _sse8_8bit_c               0042d850 f   libxvidcore:sad.obj
 0001:0002c960       _calc_cbp_plain            0042d960 f   libxvidcore:cbp.obj
 0001:0002c9a0       _calc_cbp_c                0042d9a0 f   libxvidcore:cbp.obj
 0001:0002ca70       _rgb555_to_yv12_c          0042da70 f   libxvidcore:colorspace.obj
 0001:0002ce00       _rgb565_to_yv12_c          0042de00 f   libxvidcore:colorspace.obj
 0001:0002d190       _bgr_to_yv12_c             0042e190 f   libxvidcore:colorspace.obj
 0001:0002d4e0       _bgra_to_yv12_c            0042e4e0 f   libxvidcore:colorspace.obj
 0001:0002d830       _rgb_to_yv12_c             0042e830 f   libxvidcore:colorspace.obj
 0001:0002db80       _abgr_to_yv12_c            0042eb80 f   libxvidcore:colorspace.obj
 0001:0002dee0       _rgba_to_yv12_c            0042eee0 f   libxvidcore:colorspace.obj
 0001:0002e230       _argb_to_yv12_c            0042f230 f   libxvidcore:colorspace.obj
 0001:0002e590       _yuyv_to_yv12_c            0042f590 f   libxvidcore:colorspace.obj
 0001:0002e720       _uyvy_to_yv12_c            0042f720 f   libxvidcore:colorspace.obj
 0001:0002e880       _rgb555i_to_yv12_c         0042f880 f   libxvidcore:colorspace.obj
 0001:0002ef10       _rgb565i_to_yv12_c         0042ff10 f   libxvidcore:colorspace.obj
 0001:0002f5a0       _bgri_to_yv12_c            004305a0 f   libxvidcore:colorspace.obj
 0001:0002fbe0       _bgrai_to_yv12_c           00430be0 f   libxvidcore:colorspace.obj
 0001:00030220       _abgri_to_yv12_c           00431220 f   libxvidcore:colorspace.obj
 0001:00030870       _rgbi_to_yv12_c            00431870 f   libxvidcore:colorspace.obj
 0001:00030eb0       _rgbai_to_yv12_c           00431eb0 f   libxvidcore:colorspace.obj
 0001:00031500       _argbi_to_yv12_c           00432500 f   libxvidcore:colorspace.obj
 0001:00031b60       _yuyvi_to_yv12_c           00432b60 f   libxvidcore:colorspace.obj
 0001:00031db0       _uyvyi_to_yv12_c           00432db0 f   libxvidcore:colorspace.obj
 0001:00031fc0       _yv12_to_rgb555_c          00432fc0 f   libxvidcore:colorspace.obj
 0001:00032440       _yv12_to_rgb565_c          00433440 f   libxvidcore:colorspace.obj
 0001:000328c0       _yv12_to_bgr_c             004338c0 f   libxvidcore:colorspace.obj
 0001:00032cf0       _yv12_to_bgra_c            00433cf0 f   libxvidcore:colorspace.obj
 0001:00033150       _yv12_to_abgr_c            00434150 f   libxvidcore:colorspace.obj
 0001:000335b0       _yv12_to_rgb_c             004345b0 f   libxvidcore:colorspace.obj
 0001:000339e0       _yv12_to_rgba_c            004349e0 f   libxvidcore:colorspace.obj
 0001:00033e40       _yv12_to_argb_c            00434e40 f   libxvidcore:colorspace.obj
 0001:000342a0       _yv12_to_yuyv_c            004352a0 f   libxvidcore:colorspace.obj
 0001:000343d0       _yv12_to_uyvy_c            004353d0 f   libxvidcore:colorspace.obj
 0001:00034500       _yv12_to_rgb555i_c         00435500 f   libxvidcore:colorspace.obj
 0001:00034d60       _yv12_to_rgb565i_c         00435d60 f   libxvidcore:colorspace.obj
 0001:000355e0       _yv12_to_bgri_c            004365e0 f   libxvidcore:colorspace.obj
 0001:00035d90       _yv12_to_bgrai_c           00436d90 f   libxvidcore:colorspace.obj
 0001:00036560       _yv12_to_abgri_c           00437560 f   libxvidcore:colorspace.obj
 0001:00036d30       _yv12_to_rgbi_c            00437d30 f   libxvidcore:colorspace.obj
 0001:000374e0       _yv12_to_rgbai_c           004384e0 f   libxvidcore:colorspace.obj
 0001:00037cb0       _yv12_to_argbi_c           00438cb0 f   libxvidcore:colorspace.obj
 0001:00038480       _yv12_to_yuyvi_c           00439480 f   libxvidcore:colorspace.obj
 0001:00038680       _yv12_to_uyvyi_c           00439680 f   libxvidcore:colorspace.obj
 0001:00038870       _yv12_to_yv12_c            00439870 f   libxvidcore:colorspace.obj
 0001:00038a10       _colorspace_init           00439a10 f   libxvidcore:colorspace.obj
 0001:00038a80       _init_postproc             00439a80 f   libxvidcore:postprocessing.obj
 0001:00038aa0       _image_postproc            00439aa0 f   libxvidcore:postprocessing.obj
 0001:00038eb0       _init_deblock              00439eb0 f   libxvidcore:postprocessing.obj
 0001:00038f00       _deblock8x8_h              00439f00 f   libxvidcore:postprocessing.obj
 0001:0003d9f0       _deblock8x8_v              0043e9f0 f   libxvidcore:postprocessing.obj
 0001:00042030       _init_noise                00443030 f   libxvidcore:postprocessing.obj
 0001:00042280       _add_noise                 00443280 f   libxvidcore:postprocessing.obj
 0001:00042380       _image_brightness_c        00443380 f   libxvidcore:postprocessing.obj
 0001:000423e0       _interpolate8x8_avg2_c     004433e0 f   libxvidcore:interpolate8x8.obj
 0001:000424d0       _interpolate8x8_halfpel_add_c 004434d0 f   libxvidcore:interpolate8x8.obj
 0001:000424f0       _interpolate8x8_avg4_c     004434f0 f   libxvidcore:interpolate8x8.obj
 0001:000426b0       _interpolate8x8_halfpel_h_c 004436b0 f   libxvidcore:interpolate8x8.obj
 0001:00042870       _interpolate8x4_halfpel_h_c 00443870 f   libxvidcore:interpolate8x8.obj
 0001:00042a30       _interpolate8x8_halfpel_h_add_c 00443a30 f   libxvidcore:interpolate8x8.obj
 0001:00042c90       _interpolate8x8_halfpel_v_c 00443c90 f   libxvidcore:interpolate8x8.obj
 0001:00042e60       _interpolate8x4_halfpel_v_c 00443e60 f   libxvidcore:interpolate8x8.obj
 0001:00043030       _interpolate8x8_halfpel_v_add_c 00444030 f   libxvidcore:interpolate8x8.obj
 0001:000432c0       _interpolate8x8_halfpel_hv_c 004442c0 f   libxvidcore:interpolate8x8.obj
 0001:00043590       _interpolate8x4_halfpel_hv_c 00444590 f   libxvidcore:interpolate8x8.obj
 0001:00043860       _interpolate8x8_halfpel_hv_add_c 00444860 f   libxvidcore:interpolate8x8.obj
 0001:00043be0       _interpolate8x8_6tap_lowpass_h_c 00444be0 f   libxvidcore:interpolate8x8.obj
 0001:00043eb0       _interpolate16x16_lowpass_h_c 00444eb0 f   libxvidcore:interpolate8x8.obj
 0001:00044540       _interpolate8x8_lowpass_h_c 00445540 f   libxvidcore:interpolate8x8.obj
 0001:00044870       _interpolate8x8_6tap_lowpass_v_c 00445870 f   libxvidcore:interpolate8x8.obj
 0001:00044bc0       _interpolate16x16_lowpass_v_c 00445bc0 f   libxvidcore:interpolate8x8.obj
 0001:000452e0       _interpolate8x8_lowpass_v_c 004462e0 f   libxvidcore:interpolate8x8.obj
 0001:00045660       _interpolate16x16_lowpass_hv_c 00446660 f   libxvidcore:interpolate8x8.obj
 0001:00045d10       _interpolate8x8_lowpass_hv_c 00446d10 f   libxvidcore:interpolate8x8.obj
 0001:00046060       _MBTransQuantIntra         00447060 f   libxvidcore:mbtransquant.obj
 0001:00046640       _MBTransQuantInter         00447640 f   libxvidcore:mbtransquant.obj
 0001:00046a10       _MBTransQuantInterBVOP     00447a10 f   libxvidcore:mbtransquant.obj
 0001:00046e10       _MBFieldTest_c             00447e10 f   libxvidcore:mbtransquant.obj
 0001:00046fa0       _MBFrameToField            00447fa0 f   libxvidcore:mbtransquant.obj
 0001:00047950       _transfer_8to16copy_c      00448950 f   libxvidcore:mem_transfer.obj
 0001:00047980       _transfer_16to8copy_c      00448980 f   libxvidcore:mem_transfer.obj
 0001:000479d0       _transfer_8to16sub_c       004489d0 f   libxvidcore:mem_transfer.obj
 0001:00047a30       _transfer_8to16subro_c     00448a30 f   libxvidcore:mem_transfer.obj
 0001:00047a80       _transfer_8to16sub2_c      00448a80 f   libxvidcore:mem_transfer.obj
 0001:00047b10       _transfer_8to16sub2ro_c    00448b10 f   libxvidcore:mem_transfer.obj
 0001:00047b90       _transfer_16to8add_c       00448b90 f   libxvidcore:mem_transfer.obj
 0001:00047be0       _transfer8x8_copy_c        00448be0 f   libxvidcore:mem_transfer.obj
 0001:00047c20       _transfer8x4_copy_c        00448c20 f   libxvidcore:mem_transfer.obj
 0001:00047c50       _quant_mpeg_intra_c        00448c50 f   libxvidcore:quant_mpeg.obj
 0001:00047cc0       _quant_mpeg_inter_c        00448cc0 f   libxvidcore:quant_mpeg.obj
 0001:00047d70       _dequant_mpeg_intra_c      00448d70 f   libxvidcore:quant_mpeg.obj
 0001:00047e30       _dequant_mpeg_inter_c      00448e30 f   libxvidcore:quant_mpeg.obj
 0001:00047ef0       _quant_h263_intra_c        00448ef0 f   libxvidcore:quant_h263.obj
 0001:00047fa0       _quant_h263_inter_c        00448fa0 f   libxvidcore:quant_h263.obj
 0001:00048040       _dequant_h263_intra_c      00449040 f   libxvidcore:quant_h263.obj
 0001:000480e0       _dequant_h263_inter_c      004490e0 f   libxvidcore:quant_h263.obj
 0001:00048150       _emms_c                    00449150 f   libxvidcore:emms.obj
 0001:00048160       _idct_int32                00449160 f   libxvidcore:idct.obj
 0001:00048650       _idct_int32_init           00449650 f   libxvidcore:idct.obj
 0001:00048690       _fdct_int32                00449690 f   libxvidcore:fdct.obj
 0001:00048ae0       _bs_put_spritetrajectory   00449ae0 f   libxvidcore:mbcoding.obj
 0001:00048d00       _bs_get_spritetrajectory   00449d00 f   libxvidcore:mbcoding.obj
 0001:00048de0       _init_vlc_tables           00449de0 f   libxvidcore:mbcoding.obj
 0001:000492c0       _CodeCoeffIntra_CalcBits   0044a2c0 f   libxvidcore:mbcoding.obj
 0001:000493a0       _CodeCoeffInter_CalcBits   0044a3a0 f   libxvidcore:mbcoding.obj
 0001:00049480       _MBCoding                  0044a480 f   libxvidcore:mbcoding.obj
 0001:0004a850       _MBCodingBVOP              0044b850 f   libxvidcore:mbcoding.obj
 0001:0004ad00       _check_resync_marker       0044bd00 f   libxvidcore:mbcoding.obj
 0001:0004ae20       _get_mcbpc_intra           0044be20 f   libxvidcore:mbcoding.obj
 0001:0004aec0       _get_mcbpc_inter           0044bec0 f   libxvidcore:mbcoding.obj
 0001:0004afa0       _get_cbpy                  0044bfa0 f   libxvidcore:mbcoding.obj
 0001:0004b050       _get_mv                    0044c050 f   libxvidcore:mbcoding.obj
 0001:0004b340       _get_dc_dif                0044c340 f   libxvidcore:mbcoding.obj
 0001:0004b400       _get_dc_size_lum           0044c400 f   libxvidcore:mbcoding.obj
 0001:0004b500       _get_dc_size_chrom         0044c500 f   libxvidcore:mbcoding.obj
 0001:0004b620       _get_intra_block           0044c620 f   libxvidcore:mbcoding.obj
 0001:0004b8f0       _get_inter_block_h263      0044c8f0 f   libxvidcore:mbcoding.obj
 0001:0004bbe0       _get_inter_block_mpeg      0044cbe0 f   libxvidcore:mbcoding.obj
 0001:0004bf10       _image_create              0044cf10 f   libxvidcore:image.obj
 0001:0004c020       _image_destroy             0044d020 f   libxvidcore:image.obj
 0001:0004c090       _image_swap                0044d090 f   libxvidcore:image.obj
 0001:0004c0c0       _image_copy                0044d0c0 f   libxvidcore:image.obj
 0001:0004c120       _image_setedges            0044d120 f   libxvidcore:image.obj
 0001:0004c630       _image_interpolate         0044d630 f   libxvidcore:image.obj
 0001:0004c810       _image_chroma_optimize     0044d810 f   libxvidcore:image.obj
 0001:0004c9f0       _image_input               0044d9f0 f   libxvidcore:image.obj
 0001:0004d260       _image_output              0044e260 f   libxvidcore:image.obj
 0001:0004d700       _image_psnr                0044e700 f   libxvidcore:image.obj
 0001:0004d7e0       _sse_to_PSNR               0044e7e0 f   libxvidcore:image.obj
 0001:0004d810       _plane_sse                 0044e810 f   libxvidcore:image.obj
 0001:0004dac0       _image_dump_yuvpgm         0044eac0 f   libxvidcore:image.obj
 0001:0004dbe0       _image_mad                 0044ebe0 f   libxvidcore:image.obj
 0001:0004dd60       _output_slice              0044ed60 f   libxvidcore:image.obj
 0001:0004ded0       _image_clear               0044eed0 f   libxvidcore:image.obj
 0001:0004dff0       _xvid_image_deinterlace    0044eff0 f   libxvidcore:image.obj
 0001:0004e200       _decoder_create            0044f200 f   libxvidcore:decoder.obj
 0001:0004e790       _decoder_destroy           0044f790 f   libxvidcore:decoder.obj
 0001:0004e870       _decoder_decode            0044f870 f   libxvidcore:decoder.obj
 0001:00054f40       _enc_create                00455f40 f   libxvidcore:encoder.obj
 0001:00055ae0       _enc_destroy               00456ae0 f   libxvidcore:encoder.obj
 0001:00055dd0       _enc_encode                00456dd0 f   libxvidcore:encoder.obj
 0001:00058e70       _get_intra_matrix          00459e70 f   libxvidcore:quant_matrix.obj
 0001:00058e80       _get_inter_matrix          00459e80 f   libxvidcore:quant_matrix.obj
 0001:00058e90       _get_default_intra_matrix  00459e90 f   libxvidcore:quant_matrix.obj
 0001:00058ea0       _get_default_inter_matrix  00459ea0 f   libxvidcore:quant_matrix.obj
 0001:00058eb0       _is_custom_intra_matrix    00459eb0 f   libxvidcore:quant_matrix.obj
 0001:00058ef0       _is_custom_inter_matrix    00459ef0 f   libxvidcore:quant_matrix.obj
 0001:00058f30       _set_intra_matrix          00459f30 f   libxvidcore:quant_matrix.obj
 0001:00058f60       _init_intra_matrix         00459f60 f   libxvidcore:quant_matrix.obj
 0001:00058fa0       _set_inter_matrix          00459fa0 f   libxvidcore:quant_matrix.obj
 0001:00059050       _init_mpeg_matrix          0045a050 f   libxvidcore:quant_matrix.obj
 0001:00059070       _xvid_malloc               0045a070 f   libxvidcore:mem_align.obj
 0001:000590d0       _xvid_free                 0045a0d0 f   libxvidcore:mem_align.obj
 0001:000590f0       _image_printf              0045a0f0 f   libxvidcore:font.obj
 0001:000592b0       _read_video_packet_header  0045a2b0 f   libxvidcore:bitstream.obj
 0001:00059a60       _BitstreamReadHeaders      0045aa60 f   libxvidcore:bitstream.obj
 0001:0005d4a0       _BitstreamWriteVolHeader   0045e4a0 f   libxvidcore:bitstream.obj
 0001:0005e100       _BitstreamWriteVopHeader   0045f100 f   libxvidcore:bitstream.obj
 0001:0005e5a0       _BitstreamWriteUserData    0045f5a0 f   libxvidcore:bitstream.obj
 0001:0005e890       _BitstreamWriteGroupOfVopHeader 0045f890 f   libxvidcore:bitstream.obj
 0001:0005ec20       _BitstreamWriteEndOfSequence 0045fc20 f   libxvidcore:bitstream.obj
 0001:0005ee30       _write_video_packet_header 0045fe30 f   libxvidcore:bitstream.obj
 0001:0005f170       _predict_acdc              00460170 f   libxvidcore:mbprediction.obj
 0001:0005f4e0       _add_acdc                  004604e0 f   libxvidcore:mbprediction.obj
 0001:0005f670       _MBPrediction              00460670 f   libxvidcore:mbprediction.obj
 0001:0005fb20       _get_pmv2                  00460b20 f   libxvidcore:mbprediction.obj
 0001:0005fda0       _get_pmv2_interlaced       00460da0 f   libxvidcore:mbprediction.obj
 0001:00060000       _get_qpmv2                 00461000 f   libxvidcore:mbprediction.obj
 0001:000602a0       _xvid_me_ChromaSAD         004612a0 f   libxvidcore:estimation_common.obj
 0001:00060430       _xvid_me_interpolate8x8qpel 00461430 f   libxvidcore:estimation_common.obj
 0001:000606b0       _xvid_me_interpolate16x16qpel 004616b0 f   libxvidcore:estimation_common.obj
 0001:00060a90       _xvid_me_AdvDiamondSearch  00461a90 f   libxvidcore:estimation_common.obj
 0001:00060d30       _xvid_me_SquareSearch      00461d30 f   libxvidcore:estimation_common.obj
 0001:00060e30       _xvid_me_DiamondSearch     00461e30 f   libxvidcore:estimation_common.obj
 0001:00060f10       _xvid_me_SubpelRefine      00461f10 f   libxvidcore:estimation_common.obj
 0001:00060fb0       _FullRefine_Fast           00461fb0 f   libxvidcore:estimation_common.obj
 0001:00061860       _getMinFcode               00462860 f   libxvidcore:estimation_common.obj
 0001:00061880       _MEanalysis                00462880 f   libxvidcore:vop_type_decision.obj
 0001:000620b0       _MBMotionCompensation      004630b0 f   libxvidcore:motion_comp.obj
 0001:00062c50       _MBMotionCompensationBVOP  00463c50 f   libxvidcore:motion_comp.obj
 0001:00064750       _xvid_me_SkipDecisionP     00465750 f   libxvidcore:estimation_pvop.obj
 0001:000647d0       _MotionEstimation          004657d0 f   libxvidcore:estimation_pvop.obj
 0001:00066fe0       _MotionEstimateSMP         00467fe0 f   libxvidcore:estimation_pvop.obj
 0001:00067760       _GMEanalysis               00468760 f   libxvidcore:estimation_gmc.obj
 0001:00067b40       _GlobalMotionEst           00468b40 f   libxvidcore:estimation_gmc.obj
 0001:000685a0       _GlobalMotionEstRefine     004695a0 f   libxvidcore:estimation_gmc.obj
 0001:00068ad0       _globalSAD                 00469ad0 f   libxvidcore:estimation_gmc.obj
 0001:00068be0       _CheckCandidate16no4v      00469be0 f   libxvidcore:estimation_bvop.obj
 0001:00068da0       _MotionEstimationBVOP      00469da0 f   libxvidcore:estimation_bvop.obj
 0001:0006b700       _SMPMotionEstimationBVOP   0046c700 f   libxvidcore:estimation_bvop.obj
 0001:0006bee0       _xvid_me_ModeDecision_RD   0046cee0 f   libxvidcore:estimation_rd_based.obj
 0001:0006ea10       _xvid_me_ModeDecision_Fast 0046fa10 f   libxvidcore:estimation_rd_based.obj
 0001:0006f560       _ModeDecision_BVOP_RD      00470560 f   libxvidcore:estimation_rd_based_bvop.obj
 0001:000719a0       _ERR_reason_error_string   004729a0 f   libeay32:LIBEAY32.dll
 0001:000719a6       _BN_bin2bn                 004729a6 f   libeay32:LIBEAY32.dll
 0001:000719ac       _RSA_new                   004729ac f   libeay32:LIBEAY32.dll
 0001:000719b2       _ERR_error_string          004729b2 f   libeay32:LIBEAY32.dll
 0001:000719b8       _ERR_get_error             004729b8 f   libeay32:LIBEAY32.dll
 0001:000719be       _RSA_public_encrypt        004729be f   libeay32:LIBEAY32.dll
 0001:000719c4       _RSA_private_decrypt       004729c4 f   libeay32:LIBEAY32.dll
 0001:000719ca       _RSA_free                  004729ca f   libeay32:LIBEAY32.dll
 0001:000719d0       _X_ClientStop@8            004729d0 f   XClientDLL:XClientDLL.dll
 0001:000719d6       _X_ClientSetCapPicCallBack@4 004729d6 f   XClientDLL:XClientDLL.dll
 0001:000719dc       _X_ClientStart@12          004729dc f   XClientDLL:XClientDLL.dll
 0001:000719e2       _X_ClientInit@8            004729e2 f   XClientDLL:XClientDLL.dll
 0001:000719e8       _MiniDumpWriteDump@28      004729e8 f   dbghelp:dbghelp.dll
 0001:000719ee       ??3@YAXPAX@Z               004729ee f   LIBC:delete.obj
 0001:000719f9       ??2@YAPAXI@Z               004729f9 f   LIBC:new.obj
 0001:00071a07       ?_JumpToContinuation@@YGXPAXPAUEHRegistrationNode@@@Z 00472a07 f   LIBC:trnsctrl.obj
 0001:00071a3b       ?_CallMemberFunction0@@YGXPAX0@Z 00472a3b f   LIBC:trnsctrl.obj
 0001:00071a42       ?_CallMemberFunction1@@YGXPAX00@Z 00472a42 f   LIBC:trnsctrl.obj
 0001:00071a49       ?_CallMemberFunction2@@YGXPAX00H@Z 00472a49 f   LIBC:trnsctrl.obj
 0001:00071a50       ?_UnwindNestedFrames@@YGXPAUEHRegistrationNode@@PAUEHExceptionRecord@@@Z 00472a50 f   LIBC:trnsctrl.obj
 0001:00071a9f       ___CxxFrameHandler         00472a9f f   LIBC:trnsctrl.obj
 0001:00071ad5       ___CxxLongjmpUnwind@4      00472ad5 f   LIBC:trnsctrl.obj
 0001:00071aef       ?_CallCatchBlock2@@YAPAXPAUEHRegistrationNode@@PBU_s_FuncInfo@@PAXHK@Z 00472aef f   LIBC:trnsctrl.obj
 0001:00071b68       ?_CallSETranslator@@YAHPAUEHExceptionRecord@@PAUEHRegistrationNode@@PAX2PBU_s_FuncInfo@@H1@Z 00472b68 f   LIBC:trnsctrl.obj
 0001:00071c91       ?_GetRangeOfTrysToCheck@@YAPBU_s_TryBlockMapEntry@@PBU_s_FuncInfo@@HHPAI1@Z 00472c91 f   LIBC:trnsctrl.obj
 0001:00071d0c       __global_unwind2           00472d0c f   LIBC:exsup.obj
 0001:00071d4e       __local_unwind2            00472d4e f   LIBC:exsup.obj
 0001:00071da6       __NLG_Return2              00472da6 f   LIBC:exsup.obj
 0001:00071db6       __abnormal_termination     00472db6 f   LIBC:exsup.obj
 0001:00071dd9       __NLG_Notify1              00472dd9 f   LIBC:exsup.obj
 0001:00071de2       __NLG_Notify               00472de2 f   LIBC:exsup.obj
 0001:00071df5       __NLG_Dispatch             00472df5 f   LIBC:exsup.obj
 0001:00071dfa       _sprintf                   00472dfa f   LIBC:sprintf.obj
 0001:00071e4c       __purecall                 00472e4c f   LIBC:purevirt.obj
 0001:00071e55       _fprintf                   00472e55 f   LIBC:fprintf.obj
 0001:00071e87       ___initstdio               00472e87 f   LIBC:_file.obj
 0001:00071f2c       ___endstdio                00472f2c f   LIBC:_file.obj
 0001:00071f40       _abort                     00472f40 f   LIBC:abort.obj
 0001:00071f57       _perror                    00472f57 f   LIBC:perror.obj
 0001:00071fd0       __allrem                   00472fd0 f   LIBC:llrem.obj
 0001:00072090       __alldiv                   00473090 f   LIBC:lldiv.obj
 0001:0007213a       __fpmath                   0047313a f   LIBC:fpinit.obj
 0001:00072151       __fpclear                  00473151 f   LIBC:fpinit.obj
 0001:00072152       __cfltcvt_init             00473152 f   LIBC:fpinit.obj
 0001:0007218a       ___setfflag                0047318a f   LIBC:fpinit.obj
 0001:0007219a       _strerror                  0047319a f   LIBC:strerror.obj
 0001:000721d0       _memmove                   004731d0 f   LIBC:memmove.obj
 0001:00072505       _fputs                     00473505 f   LIBC:fputs.obj
 0001:00072550       _strncpy                   00473550 f   LIBC:strncpy.obj
 0001:0007264e       _free                      0047364e f   LIBC:free.obj
 0001:000726b7       __fsopen                   004736b7 f   LIBC:fopen.obj
 0001:000726d7       _fopen                     004736d7 f   LIBC:fopen.obj
 0001:000726ea       _fclose                    004736ea f   LIBC:fclose.obj
 0001:00072748       __except_handler3          00473748 f   LIBC:exsup3.obj
 0001:00072805       __seh_longjmp_unwind@4     00473805 f   LIBC:exsup3.obj
 0001:00072820       __onexit                   00473820 f   LIBC:onexit.obj
 0001:0007288d       _atexit                    0047388d f   LIBC:onexit.obj
 0001:0007289f       ___onexitinit              0047389f f   LIBC:onexit.obj
 0001:000728d0       _strncmp                   004738d0 f   LIBC:strncmp.obj
 0001:00072908       _ctime                     00473908 f   LIBC:ctime.obj
 0001:00072930       __allmul                   00473930 f   LIBC:llmul.obj
 0001:00072964       _fwrite                    00473964 f   LIBC:fwrite.obj
 0001:00072a6e       _calloc                    00473a6e f   LIBC:calloc.obj
 0001:00072b1f       _srand                     00473b1f f   LIBC:rand.obj
 0001:00072b29       _rand                      00473b29 f   LIBC:rand.obj
 0001:00072b47       _setlocale                 00473b47 f   LIBC:setlocal.obj
 0001:00072f21       __expandlocale             00473f21 f   LIBC:setlocal.obj
 0001:00073039       ___init_dummy              00474039 f   LIBC:setlocal.obj
 0001:0007303c       __strcats                  0047403c f   LIBC:setlocal.obj
 0001:00073061       ___lc_strtolc              00474061 f   LIBC:setlocal.obj
 0001:0007312d       ___lc_lctostr              0047412d f   LIBC:setlocal.obj
 0001:00073180       __cinit                    00474180 f   LIBC:crt0dat.obj
 0001:000731ad       _exit                      004741ad f   LIBC:crt0dat.obj
 0001:000731be       __exit                     004741be f   LIBC:crt0dat.obj
 0001:000731cf       __cexit                    004741cf f   LIBC:crt0dat.obj
 0001:000731de       __c_exit                   004741de f   LIBC:crt0dat.obj
 0001:000732a0       __snprintf                 004742a0 f   LIBC:snprintf.obj
 0001:00073300       _strstr                    00474300 f   LIBC:strstr.obj
 0001:00073380       _printf                    00474380 f   LIBC:printf.obj
 0001:000733b1       _atol                      004743b1 f   LIBC:atox.obj
 0001:0007343c       _atoi                      0047443c f   LIBC:atox.obj
 0001:00073447       __atoi64                   00474447 f   LIBC:atox.obj
 0001:00073501       ??1type_info@@UAE@XZ       00474501 f   LIBC:typinfo.obj
 0001:00073516       ??_Etype_info@@UAEPAXI@Z   00474516 f i LIBC:typinfo.obj
 0001:00073516       ??_Gtype_info@@UAEPAXI@Z   00474516 f i LIBC:typinfo.obj
 0001:00073532       ??8type_info@@QBEHABV0@@Z  00474532 f   LIBC:typinfo.obj
 0001:0007354d       ??9type_info@@QBEHABV0@@Z  0047454d f   LIBC:typinfo.obj
 0001:00073569       ?before@type_info@@QBEHABV1@@Z 00474569 f   LIBC:typinfo.obj
 0001:00073588       ?raw_name@type_info@@QBEPBDXZ 00474588 f   LIBC:typinfo.obj
 0001:0007358c       ??0type_info@@AAE@ABV0@@Z  0047458c f   LIBC:typinfo.obj
 0001:00073597       ??4type_info@@AAEAAV0@ABV0@@Z 00474597 f   LIBC:typinfo.obj
 0001:0007359c       __ftol                     0047459c f   LIBC:ftol.obj
 0001:000735c3       _malloc                    004745c3 f   LIBC:malloc.obj
 0001:000735d5       __nh_malloc                004745d5 f   LIBC:malloc.obj
 0001:00073601       __heap_alloc               00474601 f   LIBC:malloc.obj
 0001:00073675       _fread                     00474675 f   LIBC:fread.obj
 0001:0007375d       _fflush                    0047475d f   LIBC:fflush.obj
 0001:00073798       __flush                    00474798 f   LIBC:fflush.obj
 0001:000737f4       __flushall                 004747f4 f   LIBC:fflush.obj
 0001:0007386a       _sscanf                    0047486a f   LIBC:sscanf.obj
 0001:000738a0       __strnicmp                 004748a0 f   LIBC:strnicmp.obj
 0001:0007394d       _localtime                 0047494d f   LIBC:localtim.obj
 0001:00073aad       _time                      00474aad f   LIBC:time.obj
 0001:00073b89       _fseek                     00474b89 f   LIBC:fseek.obj
 0001:00073c20       __alloca_probe             00474c20 f   LIBC:chkstk.obj
 0001:00073c20       __chkstk                   00474c20 f   LIBC:chkstk.obj
 0001:00073c4f       __Getdays                  00474c4f f   LIBC:strftime.obj
 0001:00073cde       __Getmonths                00474cde f   LIBC:strftime.obj
 0001:00073d73       __Gettnames                00474d73 f   LIBC:strftime.obj
 0001:00073fa5       _strftime                  00474fa5 f   LIBC:strftime.obj
 0001:00073fc0       __Strftime                 00474fc0 f   LIBC:strftime.obj
 0001:0007484c       _gmtime                    0047584c f   LIBC:gmtime.obj
 0001:00074945       __CxxThrowException@8      00475945 f   LIBC:throw.obj
 0001:0007497f       _mainCRTStartup            0047597f f   LIBC:crt0.obj
 0001:00074a5e       __amsg_exit                00475a5e f   LIBC:crt0.obj
 0001:00074aa7       _setbuf                    00475aa7 f   LIBC:setbuf.obj
 0001:00074ad0       __aulldiv                  00475ad0 f   LIBC:ulldiv.obj
 0001:00074b38       _realloc                   00475b38 f   LIBC:realloc.obj
 0001:00074dd8       _fgetc                     00475dd8 f   LIBC:fgetc.obj
 0001:00074df2       _getc                      00475df2 f   LIBC:fgetc.obj
 0001:00074dfd       _vsprintf                  00475dfd f   LIBC:vsprintf.obj
 0001:00074e4e       ___InternalCxxFrameHandler 00475e4e f   LIBC:frame.obj
 0001:00075195       ___FrameUnwindToState      00476195 f   LIBC:frame.obj
 0001:000755be       ?_DestructExceptionObject@@YAXPAUEHExceptionRecord@@E@Z 004765be f   LIBC:frame.obj
 0001:00075650       __CallSettingFrame@12      00476650 f   LIBC:lowhelpr.obj
 0001:00075677       __NLG_Return               00476677 f   LIBC:lowhelpr.obj
 0001:0007569c       ?terminate@@YAXXZ          0047669c f   LIBC:hooks.obj
 0001:000756f2       ?unexpected@@YAXXZ         004766f2 f   LIBC:hooks.obj
 0001:00075702       ?_inconsistency@@YAXXZ     00476702 f   LIBC:hooks.obj
 0001:00075758       __flsbuf                   00476758 f   LIBC:_flsbuf.obj
 0001:0007586d       __output                   0047686d f   LIBC:output.obj
 0001:000760d4       __stbuf                    004770d4 f   LIBC:_sftbuf.obj
 0001:00076161       __ftbuf                    00477161 f   LIBC:_sftbuf.obj
 0001:0007619e       __ioinit                   0047719e f   LIBC:ioinit.obj
 0001:00076349       __ioterm                   00477349 f   LIBC:ioinit.obj
 0001:0007636c       __fcloseall                0047736c f   LIBC:closeall.obj
 0001:000763c4       _signal                    004773c4 f   LIBC:winsig.obj
 0001:00076508       _raise                     00477508 f   LIBC:winsig.obj
 0001:0007667a       __FF_MSGBANNER             0047767a f   LIBC:crt0msg.obj
 0001:000766b3       __NMSG_WRITE               004776b3 f   LIBC:crt0msg.obj
 0001:00076806       __GET_RTERRMSG             00477806 f   LIBC:crt0msg.obj
 0001:00076837       __write                    00477837 f   LIBC:write.obj
 0001:000769f0       _strlen                    004779f0 f   LIBC:strlen.obj
 0001:00076a6b       __setdefaultprecision      00477a6b f   LIBC:fp8.obj
 0001:00076a7d       __ms_p5_test_fdiv          00477a7d f   LIBC:testfdiv.obj
 0001:00076abb       __ms_p5_mp_test_fdiv       00477abb f   LIBC:testfdiv.obj
 0001:00076ae4       __forcdecpt                00477ae4 f   LIBC:cvt.obj
 0001:00076b3e       __cropzeros                00477b3e f   LIBC:cvt.obj
 0001:00076b8c       __positive                 00477b8c f   LIBC:cvt.obj
 0001:00076ba4       __fassign                  00477ba4 f   LIBC:cvt.obj
 0001:00076be2       __cftoe                    00477be2 f   LIBC:cvt.obj
 0001:00076ce6       __cftof                    00477ce6 f   LIBC:cvt.obj
 0001:00076dc4       __cftog                    00477dc4 f   LIBC:cvt.obj
 0001:00076ea9       __cfltcvt                  00477ea9 f   LIBC:cvt.obj
 0001:00076f20       _strcpy                    00477f20 f   LIBC:strcat.obj
 0001:00076f30       _strcat                    00477f30 f   LIBC:strcat.obj
 0001:00077010       __GetLinkerVersion         00478010 f   LIBC:heapinit.obj
 0001:0007703d       ___heap_select             0047803d f   LIBC:heapinit.obj
 0001:00077185       __heap_init                00478185 f   LIBC:heapinit.obj
 0001:000771e2       __heap_term                004781e2 f   LIBC:heapinit.obj
 0001:0007728a       __get_sbh_threshold        0047828a f   LIBC:sbheap.obj
 0001:000772a9       __set_sbh_threshold        004782a9 f   LIBC:sbheap.obj
 0001:0007735c       ___sbh_heap_init           0047835c f   LIBC:sbheap.obj
 0001:000773a4       ___sbh_find_block          004783a4 f   LIBC:sbheap.obj
 0001:000773cf       ___sbh_free_block          004783cf f   LIBC:sbheap.obj
 0001:000776f8       ___sbh_alloc_block         004786f8 f   LIBC:sbheap.obj
 0001:00077a01       ___sbh_alloc_new_region    00478a01 f   LIBC:sbheap.obj
 0001:00077ab2       ___sbh_alloc_new_group     00478ab2 f   LIBC:sbheap.obj
 0001:00077bad       ___sbh_resize_block        00478bad f   LIBC:sbheap.obj
 0001:00077ea3       ___sbh_heapmin             00478ea3 f   LIBC:sbheap.obj
 0001:00077f74       ___sbh_heap_check          00478f74 f   LIBC:sbheap.obj
 0001:000782a3       __get_old_sbh_threshold    004792a3 f   LIBC:sbheap.obj
 0001:000782a9       __set_old_sbh_threshold    004792a9 f   LIBC:sbheap.obj
 0001:000782c5       ___old_sbh_new_region      004792c5 f   LIBC:sbheap.obj
 0001:00078409       ___old_sbh_release_region  00479409 f   LIBC:sbheap.obj
 0001:0007845f       ___old_sbh_decommit_pages  0047945f f   LIBC:sbheap.obj
 0001:00078521       ___old_sbh_find_block      00479521 f   LIBC:sbheap.obj
 0001:00078578       ___old_sbh_free_block      00479578 f   LIBC:sbheap.obj
 0001:000785bd       ___old_sbh_alloc_block     004795bd f   LIBC:sbheap.obj
 0001:000787c5       ___old_sbh_alloc_block_from_page 004797c5 f   LIBC:sbheap.obj
 0001:000788e9       ___old_sbh_resize_block    004798e9 f   LIBC:sbheap.obj
 0001:00078992       ___old_sbh_heap_check      00479992 f   LIBC:sbheap.obj
 0001:00078af0       __openfile                 00479af0 f   LIBC:_open.obj
 0001:00078c60       __getstream                00479c60 f   LIBC:stream.obj
 0001:00078cd8       __close                    00479cd8 f   LIBC:close.obj
 0001:00078d8b       __freebuf                  00479d8b f   LIBC:_freebuf.obj
 0001:00078db6       __msize                    00479db6 f   LIBC:msize.obj
 0001:00078e17       _asctime                   00479e17 f   LIBC:asctime.obj
 0001:00078ef0       _memcpy                    00479ef0 f   LIBC:memcpy.obj
 0001:00079230       _memset                    0047a230 f   LIBC:memset.obj
 0001:00079288       ?_set_new_handler@@YAP6AHI@ZP6AHI@Z@Z 0047a288 f   LIBC:handler.obj
 0001:00079298       ?_query_new_handler@@YAP6AHI@ZXZ 0047a298 f   LIBC:handler.obj
 0001:0007929e       __callnewh                 0047a29e f   LIBC:handler.obj
 0001:000792b9       ___init_time               0047a2b9 f   LIBC:inittime.obj
 0001:00079828       ___init_numeric            0047a828 f   LIBC:initnum.obj
 0001:00079a34       ___init_monetary           0047aa34 f   LIBC:initmon.obj
 0001:00079ca6       ___init_ctype              0047aca6 f   LIBC:initctyp.obj
 0001:00079eeb       ___init_collate            0047aeeb f   LIBC:initcoll.obj
 0001:00079ef0       _strcmp                    0047aef0 f   LIBC:strcmp.obj
 0001:00079f80       _strcspn                   0047af80 f   LIBC:strcspn.obj
 0001:00079fc0       _strpbrk                   0047afc0 f   LIBC:strpbrk.obj
 0001:00079ffa       ___get_qualified_locale    0047affa f   LIBC:getqloc.obj
 0001:0007a8c0       _strchr                    0047b8c0 f   LIBC:strchr.obj
 0001:0007a8c6       ___from_strstr_to_strchr   0047b8c6 f   LIBC:strchr.obj
 0001:0007a97c       __isctype                  0047b97c f   LIBC:isctype.obj
 0001:0007a9f1       __filbuf                   0047b9f1 f   LIBC:_filbuf.obj
 0001:0007aaca       __read                     0047baca f   LIBC:read.obj
 0001:0007acc0       __commit                   0047bcc0 f   LIBC:commit.obj
 0001:0007ad17       __input                    0047bd17 f   LIBC:input.obj
 0001:0007b7c8       __tolower                  0047c7c8 f   LIBC:tolower.obj
 0001:0007b7d0       _tolower                   0047c7d0 f   LIBC:tolower.obj
 0001:0007b89b       ___tzset                   0047c89b f   LIBC:tzset.obj
 0001:0007b8b0       __tzset                    0047c8b0 f   LIBC:tzset.obj
 0001:0007bb0e       __isindst                  0047cb0e f   LIBC:tzset.obj
 0001:0007bdfa       ___loctotime_t             0047cdfa f   LIBC:dtoxtime.obj
 0001:0007bebc       __lseek                    0047cebc f   LIBC:lseek.obj
 0001:0007bf56       _ftell                     0047cf56 f   LIBC:ftell.obj
 0001:0007c0b0       __stricmp                  0047d0b0 f   LIBC:stricmp.obj
 0001:0007c0b0       __strcmpi                  0047d0b0 f   LIBC:stricmp.obj
 0001:0007c13c       ?__CxxUnhandledExceptionFilter@@YGJPAU_EXCEPTION_POINTERS@@@Z 0047d13c f   LIBC:unhandld.obj
 0001:0007c182       ?__CxxSetUnhandledExceptionFilter@@YAXXZ 0047d182 f   LIBC:unhandld.obj
 0001:0007c193       ?__CxxRestoreUnhandledExceptionFilter@@YAXXZ 0047d193 f   LIBC:unhandld.obj
 0001:0007c1a0       __XcptFilter               0047d1a0 f   LIBC:winxfltr.obj
 0001:0007c324       __setenvp                  0047d324 f   LIBC:stdenvp.obj
 0001:0007c3dd       __setargv                  0047d3dd f   LIBC:stdargv.obj
 0001:0007c62a       ___crtGetEnvironmentStringsA 0047d62a f   LIBC:a_env.obj
 0001:0007c75c       _setvbuf                   0047d75c f   LIBC:setvbuf.obj
 0001:0007c7fd       ?_ValidateRead@@YAHPBXI@Z  0047d7fd f   LIBC:validate.obj
 0001:0007c819       ?_ValidateWrite@@YAHPAXI@Z 0047d819 f   LIBC:validate.obj
 0001:0007c835       ?_ValidateExecute@@YAHP6GHXZ@Z 0047d835 f   LIBC:validate.obj
 0001:0007c84d       __getbuf                   0047d84d f   LIBC:_getbuf.obj
 0001:0007c891       __isatty                   0047d891 f   LIBC:isatty.obj
 0001:0007c8b7       _wctomb                    0047d8b7 f   LIBC:wctomb.obj
 0001:0007c920       __aullrem                  0047d920 f   LIBC:ullrem.obj
 0001:0007c995       ___crtMessageBoxA          0047d995 f   LIBC:crtmbox.obj
 0001:0007ca1e       __dosmaperr                0047da1e f   LIBC:dosmap.obj
 0001:0007ca85       __statusfp                 0047da85 f   LIBC:ieee87.obj
 0001:0007ca98       __clearfp                  0047da98 f   LIBC:ieee87.obj
 0001:0007caac       __control87                0047daac f   LIBC:ieee87.obj
 0001:0007cae1       __controlfp                0047dae1 f   LIBC:ieee87.obj
 0001:0007caf7       __fpreset                  0047daf7 f   LIBC:ieee87.obj
 0001:0007cc71       __ZeroTail                 0047dc71 f   LIBC:intrncvt.obj
 0001:0007ccba       __IncMan                   0047dcba f   LIBC:intrncvt.obj
 0001:0007cd10       __RoundMan                 0047dd10 f   LIBC:intrncvt.obj
 0001:0007cd9c       __CopyMan                  0047dd9c f   LIBC:intrncvt.obj
 0001:0007cdb7       __FillZeroMan              0047ddb7 f   LIBC:intrncvt.obj
 0001:0007cdc3       __IsZeroMan                0047ddc3 f   LIBC:intrncvt.obj
 0001:0007cdde       __ShrMan                   0047ddde f   LIBC:intrncvt.obj
 0001:0007ce6b       __ld12cvt                  0047de6b f   LIBC:intrncvt.obj
 0001:0007cfd7       __ld12tod                  0047dfd7 f   LIBC:intrncvt.obj
 0001:0007cfed       __ld12tof                  0047dfed f   LIBC:intrncvt.obj
 0001:0007d003       __ld12told                 0047e003 f   LIBC:intrncvt.obj
 0001:0007d07d       __atodbl                   0047e07d f   LIBC:intrncvt.obj
 0001:0007d0aa       __atoldbl                  0047e0aa f   LIBC:intrncvt.obj
 0001:0007d0d8       __atoflt                   0047e0d8 f   LIBC:intrncvt.obj
 0001:0007d105       __fptostr                  0047e105 f   LIBC:_fptostr.obj
 0001:0007d17c       __fltout                   0047e17c f   LIBC:cfout.obj
 0001:0007d1e0       ___dtold                   0047e1e0 f   LIBC:cfout.obj
 0001:0007d296       __fptrap                   0047e296 f   LIBC:crt0fp.obj
 0001:0007d29f       _strtol                    0047e29f f   LIBC:strtol.obj
 0001:0007d4be       _strtoul                   0047e4be f   LIBC:strtol.obj
 0001:0007d4d5       __open                     0047e4d5 f   LIBC:open.obj
 0001:0007d4ec       __sopen                    0047e4ec f   LIBC:open.obj
 0001:0007d7a5       __alloc_osfhnd             0047e7a5 f   LIBC:osfinfo.obj
 0001:0007d83a       __set_osfhnd               0047e83a f   LIBC:osfinfo.obj
 0001:0007d8b1       __free_osfhnd              0047e8b1 f   LIBC:osfinfo.obj
 0001:0007d92b       __get_osfhandle            0047e92b f   LIBC:osfinfo.obj
 0001:0007d968       __open_osfhandle           0047e968 f   LIBC:osfinfo.obj
 0001:0007da05       ___getlocaleinfo           0047ea05 f   LIBC:inithelp.obj
 0001:0007db3d       _localeconv                0047eb3d f   LIBC:lconv.obj
 0001:0007db43       ___crtGetStringTypeW       0047eb43 f   LIBC:w_str.obj
 0001:0007dd08       ___crtGetStringTypeA       0047ed08 f   LIBC:a_str.obj
 0001:0007de51       __itoa                     0047ee51 f   LIBC:xtoa.obj
 0001:0007deda       __ltoa                     0047eeda f   LIBC:xtoa.obj
 0001:0007df04       __ultoa                    0047ef04 f   LIBC:xtoa.obj
 0001:0007df1f       __i64toa                   0047ef1f f   LIBC:xtoa.obj
 0001:0007dfd6       __ui64toa                  0047efd6 f   LIBC:xtoa.obj
 0001:0007dff1       _mbtowc                    0047eff1 f   LIBC:mbtowc.obj
 0001:0007e0b9       _isalpha                   0047f0b9 f   LIBC:_ctype.obj
 0001:0007e0e7       _isupper                   0047f0e7 f   LIBC:_ctype.obj
 0001:0007e10f       _islower                   0047f10f f   LIBC:_ctype.obj
 0001:0007e137       _isdigit                   0047f137 f   LIBC:_ctype.obj
 0001:0007e15f       _isxdigit                  0047f15f f   LIBC:_ctype.obj
 0001:0007e18c       _isspace                   0047f18c f   LIBC:_ctype.obj
 0001:0007e1b4       _ispunct                   0047f1b4 f   LIBC:_ctype.obj
 0001:0007e1dc       _isalnum                   0047f1dc f   LIBC:_ctype.obj
 0001:0007e20a       _isprint                   0047f20a f   LIBC:_ctype.obj
 0001:0007e238       _isgraph                   0047f238 f   LIBC:_ctype.obj
 0001:0007e266       _iscntrl                   0047f266 f   LIBC:_ctype.obj
 0001:0007e28e       ___isascii                 0047f28e f   LIBC:_ctype.obj
 0001:0007e29b       ___toascii                 0047f29b f   LIBC:_ctype.obj
 0001:0007e2a3       ___iscsymf                 0047f2a3 f   LIBC:_ctype.obj
 0001:0007e2e0       ___iscsym                  0047f2e0 f   LIBC:_ctype.obj
 0001:0007e320       __allshl                   0047f320 f   LIBC:llshl.obj
 0001:0007e33f       _ungetc                    0047f33f f   LIBC:ungetc.obj
 0001:0007e3ad       ___crtLCMapStringA         0047f3ad f   LIBC:a_map.obj
 0001:0007e5fc       _getenv                    0047f5fc f   LIBC:getenv.obj
 0001:0007e679       __setmbcp                  0047f679 f   LIBC:mbctype.obj
 0001:0007ea3d       __getmbcp                  0047fa3d f   LIBC:mbctype.obj
 0001:0007ea4d       ___initmbctable            0047fa4d f   LIBC:mbctype.obj
 0001:0007ea69       ___addl                    0047fa69 f   LIBC:mantold.obj
 0001:0007ea8a       ___add_12                  0047fa8a f   LIBC:mantold.obj
 0001:0007eae8       ___shl_12                  0047fae8 f   LIBC:mantold.obj
 0001:0007eb16       ___shr_12                  0047fb16 f   LIBC:mantold.obj
 0001:0007eb43       ___mtold12                 0047fb43 f   LIBC:mantold.obj
 0001:0007ec0a       ___strgtold12              0047fc0a f   LIBC:strgtold.obj
 0001:0007f0db       ___STRINGTOLD              004800db f   LIBC:strgtold.obj
 0001:0007f117       _$I10_OUTPUT               00480117 f   LIBC:x10fout.obj
 0001:0007f3aa       __toupper                  004803aa f   LIBC:toupper.obj
 0001:0007f3b2       _toupper                   004803b2 f   LIBC:toupper.obj
 0001:0007f47e       __chsize                   0048047e f   LIBC:chsize.obj
 0001:0007f5c4       ___crtGetLocaleInfoW       004805c4 f   LIBC:w_loc.obj
 0001:0007f6d7       ___crtGetLocaleInfoA       004806d7 f   LIBC:a_loc.obj
 0001:0007f7f5       __mbsnbicoll               004807f5 f   LIBC:mbsnbico.obj
 0001:0007f834       ___wtomb_environ           00480834 f   LIBC:wtombenv.obj
 0001:0007f8a2       ___ld12mul                 004808a2 f   LIBC:tenpow.obj
 0001:0007fac2       ___multtenpow12            00480ac2 f   LIBC:tenpow.obj
 0001:0007fb3e       __setmode                  00480b3e f   LIBC:setmode.obj
 0001:0007fbb4       ___crtCompareStringA       00480bb4 f   LIBC:a_cmp.obj
 0001:0007fe5c       ___crtsetenv               00480e5c f   LIBC:setenv.obj
 0001:000800a2       __mbschr                   004810a2 f   LIBC:mbschr.obj
 0001:00080115       __strdup                   00481115 f   LIBC:strdup.obj
 0001:00080140       _GetFileVersionInfoA@16    00481140 f   version:VERSION.dll
 0001:00080146       _GetFileVersionInfoSizeA@8 00481146 f   version:VERSION.dll
 0001:0008014c       _VerQueryValueA@16         0048114c f   version:VERSION.dll
 0001:00080152       _WaitForSingleObject@8     00481152 f   kernel32:KERNEL32.dll
 0001:00080158       _RtlUnwind@16              00481158 f   kernel32:KERNEL32.dll
 0001:0008015e       _HeapFree@12               0048115e f   kernel32:KERNEL32.dll
 0001:00080164       _HeapAlloc@12              00481164 f   kernel32:KERNEL32.dll
 0001:0008016a       _ExitProcess@4             0048116a f   kernel32:KERNEL32.dll
 0001:00080170       _TerminateProcess@8        00481170 f   kernel32:KERNEL32.dll
 0001:00080176       _GetTimeZoneInformation@4  00481176 f   kernel32:KERNEL32.dll
 0001:0008017c       _GetSystemTime@4           0048117c f   kernel32:KERNEL32.dll
 0001:00080182       _GetLocalTime@4            00481182 f   kernel32:KERNEL32.dll
 0001:00080188       _GetCommandLineA@0         00481188 f   kernel32:KERNEL32.dll
 0001:0008018e       _GetVersion@0              0048118e f   kernel32:KERNEL32.dll
 0001:00080194       _HeapReAlloc@16            00481194 f   kernel32:KERNEL32.dll
 0001:0008019a       _SetHandleCount@4          0048119a f   kernel32:KERNEL32.dll
 0001:000801a0       _GetStdHandle@4            004811a0 f   kernel32:KERNEL32.dll
 0001:000801a6       _GetFileType@4             004811a6 f   kernel32:KERNEL32.dll
 0001:000801ac       _GetStartupInfoA@4         004811ac f   kernel32:KERNEL32.dll
 0001:000801b2       _SetConsoleCtrlHandler@8   004811b2 f   kernel32:KERNEL32.dll
 0001:000801b8       _GetProcAddress@8          004811b8 f   kernel32:KERNEL32.dll
 0001:000801be       _GetModuleHandleA@4        004811be f   kernel32:KERNEL32.dll
 0001:000801c4       _GetEnvironmentVariableA@12 004811c4 f   kernel32:KERNEL32.dll
 0001:000801ca       _HeapDestroy@4             004811ca f   kernel32:KERNEL32.dll
 0001:000801d0       _HeapCreate@12             004811d0 f   kernel32:KERNEL32.dll
 0001:000801d6       _VirtualFree@12            004811d6 f   kernel32:KERNEL32.dll
 0001:000801dc       _VirtualAlloc@16           004811dc f   kernel32:KERNEL32.dll
 0001:000801e2       _IsBadWritePtr@8           004811e2 f   kernel32:KERNEL32.dll
 0001:000801e8       _HeapSize@12               004811e8 f   kernel32:KERNEL32.dll
 0001:000801ee       _GetCPInfo@8               004811ee f   kernel32:KERNEL32.dll
 0001:000801f4       _IsValidLocale@8           004811f4 f   kernel32:KERNEL32.dll
 0001:000801fa       _IsValidCodePage@4         004811fa f   kernel32:KERNEL32.dll
 0001:00080200       _GetLocaleInfoA@16         00481200 f   kernel32:KERNEL32.dll
 0001:00080206       _EnumSystemLocalesA@8      00481206 f   kernel32:KERNEL32.dll
 0001:0008020c       _GetUserDefaultLCID@0      0048120c f   kernel32:KERNEL32.dll
 0001:00080212       _ReadFile@20               00481212 f   kernel32:KERNEL32.dll
 0001:00080218       _FlushFileBuffers@4        00481218 f   kernel32:KERNEL32.dll
 0001:0008021e       _WideCharToMultiByte@32    0048121e f   kernel32:KERNEL32.dll
 0001:00080224       _SetUnhandledExceptionFilter@4 00481224 f   kernel32:KERNEL32.dll
 0001:0008022a       _UnhandledExceptionFilter@4 0048122a f   kernel32:KERNEL32.dll
 0001:00080230       _FreeEnvironmentStringsA@4 00481230 f   kernel32:KERNEL32.dll
 0001:00080236       _FreeEnvironmentStringsW@4 00481236 f   kernel32:KERNEL32.dll
 0001:0008023c       _GetEnvironmentStrings@0   0048123c f   kernel32:KERNEL32.dll
 0001:00080242       _GetEnvironmentStringsW@0  00481242 f   kernel32:KERNEL32.dll
 0001:00080248       _IsBadReadPtr@8            00481248 f   kernel32:KERNEL32.dll
 0001:0008024e       _IsBadCodePtr@4            0048124e f   kernel32:KERNEL32.dll
 0001:00080254       _LoadLibraryA@4            00481254 f   kernel32:KERNEL32.dll
 0001:0008025a       _SetStdHandle@8            0048125a f   kernel32:KERNEL32.dll
 0001:00080260       _GetStringTypeA@20         00481260 f   kernel32:KERNEL32.dll
 0001:00080266       _GetStringTypeW@16         00481266 f   kernel32:KERNEL32.dll
 0001:0008026c       _MultiByteToWideChar@24    0048126c f   kernel32:KERNEL32.dll
 0001:00080272       _LCMapStringA@24           00481272 f   kernel32:KERNEL32.dll
 0001:00080278       _LCMapStringW@24           00481278 f   kernel32:KERNEL32.dll
 0001:0008027e       _GetACP@0                  0048127e f   kernel32:KERNEL32.dll
 0001:00080284       _GetOEMCP@0                00481284 f   kernel32:KERNEL32.dll
 0001:0008028a       _SetEndOfFile@4            0048128a f   kernel32:KERNEL32.dll
 0001:00080290       _GetLocaleInfoW@16         00481290 f   kernel32:KERNEL32.dll
 0001:00080296       _CompareStringA@24         00481296 f   kernel32:KERNEL32.dll
 0001:0008029c       _CompareStringW@24         0048129c f   kernel32:KERNEL32.dll
 0001:000802a2       _SetEnvironmentVariableA@8 004812a2 f   kernel32:KERNEL32.dll
 0001:000802a8       _ftime                     004812a8 f   LIBC:ftime.obj
 0001:000802a8       __ftime                    004812a8 f   LIBC:ftime.obj
 0003:00000000       _sad16_sse2                00486000     libxvidcore:sad_sse2.obj
 0003:00000160       _sad16_sse3                00486160     libxvidcore:sad_sse2.obj
 0003:000002c0       _dev16_sse2                004862c0     libxvidcore:sad_sse2.obj
 0003:000004d0       _dev16_sse3                004864d0     libxvidcore:sad_sse2.obj
 0003:000006e0       _image_brightness_sse2     004866e0     libxvidcore:postprocessing_sse2.obj
 0003:000007a0       _idct_sse2_skal            004867a0     libxvidcore:fdct_sse2_skal.obj
 0003:00000da0       _fdct_sse2_skal            00486da0     libxvidcore:fdct_sse2_skal.obj
 0003:000012f0       _quant_h263_intra_mmx      004872f0     libxvidcore:quantize_h263_mmx.obj
 0003:00001410       _quant_h263_intra_sse2     00487410     libxvidcore:quantize_h263_mmx.obj
 0003:00001560       _quant_h263_inter_mmx      00487560     libxvidcore:quantize_h263_mmx.obj
 0003:00001670       _quant_h263_inter_sse2     00487670     libxvidcore:quantize_h263_mmx.obj
 0003:000017d0       _dequant_h263_intra_mmx    004877d0     libxvidcore:quantize_h263_mmx.obj
 0003:000018a0       _dequant_h263_intra_xmm    004878a0     libxvidcore:quantize_h263_mmx.obj
 0003:00001960       _dequant_h263_intra_sse2   00487960     libxvidcore:quantize_h263_mmx.obj
 0003:00001a50       _dequant_h263_inter_mmx    00487a50     libxvidcore:quantize_h263_mmx.obj
 0003:00001b00       _dequant_h263_inter_xmm    00487b00     libxvidcore:quantize_h263_mmx.obj
 0003:00001ba0       _dequant_h263_inter_sse2   00487ba0     libxvidcore:quantize_h263_mmx.obj
 0003:00001c70       _calc_cbp_sse2             00487c70     libxvidcore:cbp_sse2.obj
 0003:00001eb0       _sad16_3dne                00487eb0     libxvidcore:sad_3dne.obj
 0003:00002070       _sad8_3dne                 00488070     libxvidcore:sad_3dne.obj
 0003:000020f0       _sad16bi_3dne              004880f0     libxvidcore:sad_3dne.obj
 0003:00002390       _sad8bi_3dne               00488390     libxvidcore:sad_3dne.obj
 0003:00002450       _dev16_3dne                00488450     libxvidcore:sad_3dne.obj
 0003:00002720       _quant_h263_intra_3dne     00488720     libxvidcore:quantize_h263_3dne.obj
 0003:00002bf0       _quant_h263_inter_3dne     00488bf0     libxvidcore:quantize_h263_3dne.obj
 0003:00003100       _dequant_h263_intra_3dne   00489100     libxvidcore:quantize_h263_3dne.obj
 0003:000034a0       _dequant_h263_inter_3dne   004894a0     libxvidcore:quantize_h263_3dne.obj
 0003:00003840       _quant_mpeg_inter_xmm      00489840     libxvidcore:quantize_mpeg_xmm.obj
 0003:00003b30       _dequant_mpeg_intra_3dne   00489b30     libxvidcore:quantize_mpeg_xmm.obj
 0003:00003f40       _dequant_mpeg_inter_3dne   00489f40     libxvidcore:quantize_mpeg_xmm.obj
 0003:00004060       _interpolate8x8_halfpel_h_3dne 0048a060     libxvidcore:interpolate8x8_3dne.obj
 0003:000041e0       _interpolate8x8_halfpel_v_3dne 0048a1e0     libxvidcore:interpolate8x8_3dne.obj
 0003:00004330       _interpolate8x8_halfpel_hv_3dne 0048a330     libxvidcore:interpolate8x8_3dne.obj
 0003:00004640       _interpolate8x4_halfpel_h_3dne 0048a640     libxvidcore:interpolate8x8_3dne.obj
 0003:00004710       _interpolate8x4_halfpel_v_3dne 0048a710     libxvidcore:interpolate8x8_3dne.obj
 0003:000047e0       _interpolate8x4_halfpel_hv_3dne 0048a7e0     libxvidcore:interpolate8x8_3dne.obj
 0003:00004970       _transfer_8to16copy_3dne   0048a970     libxvidcore:mem_transfer_3dne.obj
 0003:00004a50       _transfer_16to8copy_3dne   0048aa50     libxvidcore:mem_transfer_3dne.obj
 0003:00004ad0       _transfer_8to16sub_3dne    0048aad0     libxvidcore:mem_transfer_3dne.obj
 0003:00004c80       _transfer_8to16subro_3dne  0048ac80     libxvidcore:mem_transfer_3dne.obj
 0003:00004e30       _transfer_8to16sub2_3dne   0048ae30     libxvidcore:mem_transfer_3dne.obj
 0003:00005010       _transfer_16to8add_3dne    0048b010     libxvidcore:mem_transfer_3dne.obj
 0003:00005130       _transfer8x8_copy_3dne     0048b130     libxvidcore:mem_transfer_3dne.obj
 0003:000051a0       _transfer8x4_copy_3dne     0048b1a0     libxvidcore:mem_transfer_3dne.obj
 0003:000051e0       _idct_3dne                 0048b1e0     libxvidcore:idct_3dne.obj
 0003:00005950       _interpolate8x8_halfpel_h_3dn 0048b950     libxvidcore:interpolate8x8_3dn.obj
 0003:00005ae0       _interpolate8x8_halfpel_v_3dn 0048bae0     libxvidcore:interpolate8x8_3dn.obj
 0003:00005c50       _interpolate8x8_halfpel_hv_3dn 0048bc50     libxvidcore:interpolate8x8_3dn.obj
 0003:00005f80       _interpolate8x4_halfpel_h_3dn 0048bf80     libxvidcore:interpolate8x8_3dn.obj
 0003:00006060       _interpolate8x4_halfpel_v_3dn 0048c060     libxvidcore:interpolate8x8_3dn.obj
 0003:00006130       _interpolate8x4_halfpel_hv_3dn 0048c130     libxvidcore:interpolate8x8_3dn.obj
 0003:000062e0       _sad16_xmm                 0048c2e0     libxvidcore:sad_xmm.obj
 0003:00006480       _sad8_xmm                  0048c480     libxvidcore:sad_xmm.obj
 0003:00006500       _sad16bi_xmm               0048c500     libxvidcore:sad_xmm.obj
 0003:00006790       _sad8bi_xmm                0048c790     libxvidcore:sad_xmm.obj
 0003:00006860       _dev16_xmm                 0048c860     libxvidcore:sad_xmm.obj
 0003:00006b60       _sad16v_xmm                0048cb60     libxvidcore:sad_xmm.obj
 0003:00006d20       _yuyv_to_yv12_mmx          0048cd20     libxvidcore:colorspace_yuyv_mmx.obj
 0003:00006e90       _yuyv_to_yv12_3dn          0048ce90     libxvidcore:colorspace_yuyv_mmx.obj
 0003:00006fd0       _yuyv_to_yv12_xmm          0048cfd0     libxvidcore:colorspace_yuyv_mmx.obj
 0003:00007110       _uyvy_to_yv12_mmx          0048d110     libxvidcore:colorspace_yuyv_mmx.obj
 0003:00007280       _uyvy_to_yv12_3dn          0048d280     libxvidcore:colorspace_yuyv_mmx.obj
 0003:000073d0       _uyvy_to_yv12_xmm          0048d3d0     libxvidcore:colorspace_yuyv_mmx.obj
 0003:00007520       _yv12_to_yuyv_mmx          0048d520     libxvidcore:colorspace_yuyv_mmx.obj
 0003:00007660       _yv12_to_uyvy_mmx          0048d660     libxvidcore:colorspace_yuyv_mmx.obj
 0003:000077b0       _yv12_to_yuyvi_mmx         0048d7b0     libxvidcore:colorspace_yuyv_mmx.obj
 0003:00007910       _yv12_to_uyvyi_mmx         0048d910     libxvidcore:colorspace_yuyv_mmx.obj
 0003:00007a80       _transfer_8to16copy_mmx    0048da80     libxvidcore:mem_transfer_mmx.obj
 0003:00007b40       _transfer_16to8copy_mmx    0048db40     libxvidcore:mem_transfer_mmx.obj
 0003:00007bd0       _transfer_8to16sub_mmx     0048dbd0     libxvidcore:mem_transfer_mmx.obj
 0003:00007d60       _transfer_8to16subro_mmx   0048dd60     libxvidcore:mem_transfer_mmx.obj
 0003:00007ed0       _transfer_8to16sub2_mmx    0048ded0     libxvidcore:mem_transfer_mmx.obj
 0003:00008210       _transfer_8to16sub2_xmm    0048e210     libxvidcore:mem_transfer_mmx.obj
 0003:000083c0       _transfer_8to16sub2ro_xmm  0048e3c0     libxvidcore:mem_transfer_mmx.obj
 0003:00008560       _transfer_16to8add_mmx     0048e560     libxvidcore:mem_transfer_mmx.obj
 0003:00008650       _transfer8x8_copy_mmx      0048e650     libxvidcore:mem_transfer_mmx.obj
 0003:000086b0       _transfer8x4_copy_mmx      0048e6b0     libxvidcore:mem_transfer_mmx.obj
 0003:000086f0       _interpolate8x8_halfpel_h_xmm 0048e6f0     libxvidcore:interpolate8x8_xmm.obj
 0003:00008870       _interpolate8x8_halfpel_v_xmm 0048e870     libxvidcore:interpolate8x8_xmm.obj
 0003:000089d0       _interpolate8x8_halfpel_hv_xmm 0048e9d0     libxvidcore:interpolate8x8_xmm.obj
 0003:00008ce0       _interpolate8x4_halfpel_h_xmm 0048ece0     libxvidcore:interpolate8x8_xmm.obj
 0003:00008db0       _interpolate8x4_halfpel_v_xmm 0048edb0     libxvidcore:interpolate8x8_xmm.obj
 0003:00008e70       _interpolate8x4_halfpel_hv_xmm 0048ee70     libxvidcore:interpolate8x8_xmm.obj
 0003:00009010       _interpolate8x8_halfpel_add_xmm 0048f010     libxvidcore:interpolate8x8_xmm.obj
 0003:00009090       _interpolate8x8_halfpel_h_add_xmm 0048f090     libxvidcore:interpolate8x8_xmm.obj
 0003:00009260       _interpolate8x8_halfpel_v_add_xmm 0048f260     libxvidcore:interpolate8x8_xmm.obj
 0003:00009400       _interpolate8x8_halfpel_hv_add_xmm 0048f400     libxvidcore:interpolate8x8_xmm.obj
 0003:00009740       _idct_mmx                  0048f740     libxvidcore:idct_mmx.obj
 0003:00009f90       _idct_xmm                  0048ff90     libxvidcore:idct_mmx.obj
 0003:0000a760       _fdct_mmx_skal             00490760     libxvidcore:fdct_mmx_skal.obj
 0003:0000af40       _fdct_xmm_skal             00490f40     libxvidcore:fdct_mmx_skal.obj
 0003:0000b6b0       _sad16bi_3dn               004916b0     libxvidcore:sad_3dn.obj
 0003:0000bc40       _sad8bi_3dn                00491c40     libxvidcore:sad_3dn.obj
 0003:0000bdd0       _check_cpu_features        00491dd0     libxvidcore:cpuid.obj
 0003:0000bef0       _sse_os_trigger            00491ef0     libxvidcore:cpuid.obj
 0003:0000bf00       _sse2_os_trigger           00491f00     libxvidcore:cpuid.obj
 0003:0000bf10       _emms_mmx                  00491f10     libxvidcore:cpuid.obj
 0003:0000bf20       _emms_3dn                  00491f20     libxvidcore:cpuid.obj
 0003:0000bf30       _sad16_mmx                 00491f30     libxvidcore:sad_mmx.obj
 0003:0000c400       _sad8_mmx                  00492400     libxvidcore:sad_mmx.obj
 0003:0000c550       _sad16v_mmx                00492550     libxvidcore:sad_mmx.obj
 0003:0000ca80       _sad16bi_mmx               00492a80     libxvidcore:sad_mmx.obj
 0003:0000d700       _sad8bi_mmx                00493700     libxvidcore:sad_mmx.obj
 0003:0000da50       _dev16_mmx                 00493a50     libxvidcore:sad_mmx.obj
 0003:0000e29f       _sse8_16bit_mmx            0049429f     libxvidcore:sad_mmx.obj
 0003:0000e3bc       _sse8_8bit_mmx             004943bc     libxvidcore:sad_mmx.obj
 0003:0000e560       _calc_cbp_mmx              00494560     libxvidcore:cbp_mmx.obj
 0003:0000e810       _bgr_to_yv12_mmx           00494810     libxvidcore:colorspace_rgb_mmx.obj
 0003:0000ea00       _bgra_to_yv12_mmx          00494a00     libxvidcore:colorspace_rgb_mmx.obj
 0003:0000ec00       _rgb_to_yv12_mmx           00494c00     libxvidcore:colorspace_rgb_mmx.obj
 0003:0000edf0       _rgba_to_yv12_mmx          00494df0     libxvidcore:colorspace_rgb_mmx.obj
 0003:0000eff0       _yv12_to_bgr_mmx           00494ff0     libxvidcore:colorspace_rgb_mmx.obj
 0003:0000f320       _yv12_to_bgra_mmx          00495320     libxvidcore:colorspace_rgb_mmx.obj
 0003:0000f5e0       _yv12_to_yv12_mmx          004955e0     libxvidcore:colorspace_yuv_mmx.obj
 0003:0000f980       _yv12_to_yv12_xmm          00495980     libxvidcore:colorspace_yuv_mmx.obj
 0003:0000fd40       _image_brightness_mmx      00495d40     libxvidcore:postprocessing_mmx.obj
 0003:0000fdb0       _interpolate8x8_halfpel_h_mmx 00495db0     libxvidcore:interpolate8x8_mmx.obj
 0003:0000ff90       _interpolate8x8_halfpel_v_mmx 00495f90     libxvidcore:interpolate8x8_mmx.obj
 0003:00010170       _interpolate8x8_halfpel_hv_mmx 00496170     libxvidcore:interpolate8x8_mmx.obj
 0003:00010480       _interpolate8x4_halfpel_h_mmx 00496480     libxvidcore:interpolate8x8_mmx.obj
 0003:00010580       _interpolate8x4_halfpel_v_mmx 00496580     libxvidcore:interpolate8x8_mmx.obj
 0003:00010680       _interpolate8x4_halfpel_hv_mmx 00496680     libxvidcore:interpolate8x8_mmx.obj
 0003:00010820       _interpolate8x8_avg2_mmx   00496820     libxvidcore:interpolate8x8_mmx.obj
 0003:00010d10       _interpolate8x8_avg4_mmx   00496d10     libxvidcore:interpolate8x8_mmx.obj
 0003:000116e0       _interpolate8x8_6tap_lowpass_h_mmx 004976e0     libxvidcore:interpolate8x8_mmx.obj
 0003:00011be0       _interpolate8x8_6tap_lowpass_v_mmx 00497be0     libxvidcore:interpolate8x8_mmx.obj
 0003:000120f0       _interpolate8x8_halfpel_add_mmx 004980f0     libxvidcore:interpolate8x8_mmx.obj
 0003:000122d0       _interpolate8x8_halfpel_h_add_mmx 004982d0     libxvidcore:interpolate8x8_mmx.obj
 0003:000125c0       _interpolate8x8_halfpel_v_add_mmx 004985c0     libxvidcore:interpolate8x8_mmx.obj
 0003:000128b0       _interpolate8x8_halfpel_hv_add_mmx 004988b0     libxvidcore:interpolate8x8_mmx.obj
 0003:00012c50       _MBFieldTest_mmx           00498c50     libxvidcore:interlacing_mmx.obj
 0003:00012f20       _quant_mpeg_intra_mmx      00498f20     libxvidcore:quantize_mpeg_mmx.obj
 0003:00013280       _quant_mpeg_inter_mmx      00499280     libxvidcore:quantize_mpeg_mmx.obj
 0003:000134a0       _dequant_mpeg_intra_mmx    004994a0     libxvidcore:quantize_mpeg_mmx.obj
 0003:00013590       _dequant_mpeg_inter_mmx    00499590     libxvidcore:quantize_mpeg_mmx.obj
 0003:000136b0       _xvid_H_Pass_16_mmx        004996b0     libxvidcore:qpel_mmx.obj
 0003:00013884       _xvid_H_Pass_Avrg_16_mmx   00499884     libxvidcore:qpel_mmx.obj
 0003:00013ac8       _xvid_H_Pass_Avrg_Up_16_mmx 00499ac8     libxvidcore:qpel_mmx.obj
 0003:00013d0d       _xvid_H_Pass_8_mmx         00499d0d     libxvidcore:qpel_mmx.obj
 0003:00013dfb       _xvid_H_Pass_Avrg_8_mmx    00499dfb     libxvidcore:qpel_mmx.obj
 0003:00013f26       _xvid_H_Pass_Avrg_Up_8_mmx 00499f26     libxvidcore:qpel_mmx.obj
 0003:00014052       _xvid_H_Pass_Add_16_mmx    0049a052     libxvidcore:qpel_mmx.obj
 0003:0001429e       _xvid_H_Pass_Avrg_Add_16_mmx 0049a29e     libxvidcore:qpel_mmx.obj
 0003:0001454f       _xvid_H_Pass_Avrg_Up_Add_16_mmx 0049a54f     libxvidcore:qpel_mmx.obj
 0003:00014801       _xvid_H_Pass_8_Add_mmx     0049a801     libxvidcore:qpel_mmx.obj
 0003:00014930       _xvid_H_Pass_Avrg_8_Add_mmx 0049a930     libxvidcore:qpel_mmx.obj
 0003:00014a91       _xvid_H_Pass_Avrg_Up_8_Add_mmx 0049aa91     libxvidcore:qpel_mmx.obj
 0003:00014bf3       _xvid_V_Pass_16_mmx        0049abf3     libxvidcore:qpel_mmx.obj
 0003:0001546d       _xvid_V_Pass_Avrg_16_mmx   0049b46d     libxvidcore:qpel_mmx.obj
 0003:00015ea5       _xvid_V_Pass_Avrg_Up_16_mmx 0049bea5     libxvidcore:qpel_mmx.obj
 0003:000168dd       _xvid_V_Pass_8_mmx         0049c8dd     libxvidcore:qpel_mmx.obj
 0003:00016cd3       _xvid_V_Pass_Avrg_8_mmx    0049ccd3     libxvidcore:qpel_mmx.obj
 0003:000171af       _xvid_V_Pass_Avrg_Up_8_mmx 0049d1af     libxvidcore:qpel_mmx.obj
 0003:0001768b       _xvid_V_Pass_Add_16_mmx    0049d68b     libxvidcore:qpel_mmx.obj
 0003:000180e0       _xvid_V_Pass_Avrg_Add_16_mmx 0049e0e0     libxvidcore:qpel_mmx.obj
 0003:00018ce8       _xvid_V_Pass_Avrg_Up_Add_16_mmx 0049ece8     libxvidcore:qpel_mmx.obj
 0003:000198f0       _xvid_V_Pass_8_Add_mmx     0049f8f0     libxvidcore:qpel_mmx.obj
 0003:00019dd9       _xvid_V_Pass_Avrg_8_Add_mmx 0049fdd9     libxvidcore:qpel_mmx.obj
 0003:0001a39d       _xvid_V_Pass_Avrg_Up_8_Add_mmx 004a039d     libxvidcore:qpel_mmx.obj
 0003:0001a970       _xvid_GMC_Core_Lin_8_mmx   004a0970     libxvidcore:gmc_mmx.obj
 0003:0001aa70       _xvid_GMC_Core_Lin_8_sse2  004a0a70     libxvidcore:gmc_mmx.obj
 0003:0001ab30       _xvid_GMC_Core_Lin_8_sse41 004a0b30     libxvidcore:gmc_mmx.obj
 0003:0001abe0       _xvid_deinterlace_sse      004a0be0     libxvidcore:deintl_sse.obj
 0004:0000001c       ??_7AMRAudioRTPSink@@6B@   004a101c     AMRAudioRTPSink.obj
 0004:00000078       ??_7AMRAudioSource@@6B@    004a1078     AMRAudioSource.obj
 0004:000000d0       ??_7AudioRTPSink@@6B@      004a10d0     AudioRTPSink.obj
 0004:0000012c       ??_7BasicHashTable@@6B@    004a112c     BasicHashTable.obj
 0004:00000140       ??_7Iterator@BasicHashTable@@6B@ 004a1140     BasicHashTable.obj
 0004:00000148       ??_7BasicTaskScheduler@@6B@ 004a1148     BasicTaskScheduler.obj
 0004:00000168       ??_7BasicTaskScheduler0@@6B@ 004a1168     BasicTaskScheduler0.obj
 0004:00000188       ??_7AlarmHandler@@6B@      004a1188     BasicTaskScheduler0.obj
 0004:00000190       ??_7HandlerDescriptor@@6B@ 004a1190     BasicTaskScheduler0.obj
 0004:00000194       ??_7HandlerSet@@6B@        004a1194     BasicTaskScheduler0.obj
 0004:00000198       ??_7HandlerIterator@@6B@   004a1198     BasicTaskScheduler0.obj
 0004:0000019c       ??_7BasicUDPSink@@6B@      004a119c     BasicUDPSink.obj
 0004:000001d0       ??_7BasicUsageEnvironment@@6B@ 004a11d0     BasicUsageEnvironment.obj
 0004:00000208       ??_7BasicUsageEnvironment0@@6B@ 004a1208     BasicUsageEnvironment0.obj
 0004:00000240       ??_7DelayQueueEntry@@6B@   004a1240     DelayQueue.obj
 0004:00000248       ??_7DelayQueue@@6B@        004a1248     DelayQueue.obj
 0004:00000250       ??_7Authenticator@@6B@     004a1250     DigestAuthentication.obj
 0004:00000254       ??_7EncoderMediaSubsession@@6B@ 004a1254     EncoderMediaSubsession.obj
 0004:000002b8       ??_7StreamState@@6B@       004a12b8     EncoderMediaSubsession.obj
 0004:000002c0       __real@8@00000000000000000000 004a12c0     EncoderMediaSubsession.obj
 0004:000002c8       ??_7EncoderVideoSource@@6B@ 004a12c8     EncoderSource.obj
 0004:00000320       ??_7EncoderAudioSource@@6B@ 004a1320     EncoderSource.obj
 0004:000003b4       ??_7FramedFilter@@6B@      004a13b4     FramedFilter.obj
 0004:0000040c       ??_7FramedSource@@6B@      004a140c     FramedSource.obj
 0004:00000464       ??_7OutputSocket@@6B@      004a1464     Groupsock.obj
 0004:0000046c       ??_7destRecord@@6B@        004a146c     Groupsock.obj
 0004:00000470       ??_7Groupsock@@6B@         004a1470     Groupsock.obj
 0004:00000478       ??_7HashTable@@6B@         004a1478     HashTable.obj
 0004:0000048c       ??_7Iterator@HashTable@@6B@ 004a148c     HashTable.obj
 0004:000004a4       ??_7Locale@@6B@            004a14a4     Locale.obj
 0004:000004b4       ??_7Medium@@6B@            004a14b4     Media.obj
 0004:000004d8       ??_7_Tables@@6B@           004a14d8     Media.obj
 0004:000004dc       ??_7MediaLookupTable@@6B@  004a14dc     Media.obj
 0004:000004e0       ??_7MediaSink@@6B@         004a14e0     MediaSink.obj
 0004:00000514       ??_7MediaSource@@6B@       004a1514     MediaSource.obj
 0004:00000560       ??_7MPEG4ESVideoRTPSink@@6B@ 004a1560     MPEG4ESVideoRTPSink.obj
 0004:000005bc       ??_7MPEG4VideoStreamFramer@@6B@ 004a15bc     MPEG4VideoStreamFramer.obj
 0004:00000614       ??_7MPEG4VideoStreamParser@@6B@ 004a1614     MPEG4VideoStreamFramer.obj
 0004:00000624       ??_7TimeCode@@6B@          004a1624     MPEGVideoStreamFramer.obj
 0004:00000628       ??_7MPEGVideoStreamFramer@@6B@ 004a1628     MPEGVideoStreamFramer.obj
 0004:00000680       __real@8@4012f424000000000000 004a1680     MPEGVideoStreamFramer.obj
 0004:00000688       __real@8@3fff8000000000000000 004a1688     MPEGVideoStreamFramer.obj
 0004:00000690       ??_7MPEGVideoStreamParser@@6B@ 004a1690     MPEGVideoStreamParser.obj
 0004:000006a0       ??_7MultiFramedRTPSink@@6B@ 004a16a0     MultiFramedRTPSink.obj
 0004:000006fc       ??_7NetAddress@@6B@        004a16fc     NetAddress.obj
 0004:00000700       ??_7NetAddressList@@6B@    004a1700     NetAddress.obj
 0004:00000704       ??_7AddressPortLookupTable@@6B@ 004a1704     NetAddress.obj
 0004:00000708       ??_7Iterator@AddressPortLookupTable@@6B@ 004a1708     NetAddress.obj
 0004:0000070c       ??_7NetInterface@@6B@      004a170c     NetInterface.obj
 0004:00000710       ??_7DirectedNetInterface@@6B@ 004a1710     NetInterface.obj
 0004:0000071c       ??_7DirectedNetInterfaceSet@@6B@ 004a171c     NetInterface.obj
 0004:00000720       ??_7Iterator@DirectedNetInterfaceSet@@6B@ 004a1720     NetInterface.obj
 0004:00000724       ??_7Socket@@6B@            004a1724     NetInterface.obj
 0004:0000072c       ??_7SocketLookupTable@@6B@ 004a172c     NetInterface.obj
 0004:0000074c       ??_7RTCPMemberDatabase@@6B@ 004a174c     RTCP.obj
 0004:00000750       ??_7RTCPInstance@@6B@      004a1750     RTCP.obj
 0004:00000778       __real@8@3feb8637bd05af6c6800 004a1778     RTCP.obj
 0004:00000780       __real@8@3ffe8000000000000000 004a1780     RTCP.obj
 0004:00000788       __real@8@40198000000000000000 004a1788     RTCP.obj
 0004:00000790       __real@8@3ff18637bd05af6c6800 004a1790     RTCP.obj
 0004:00000798       __real@8@4001ccccccccccccd000 004a1798     RTCP.obj
 0004:000007a0       __real@8@3fe18000000000000000 004a17a0     RTCP.obj
 0004:000007a8       __real@8@3ffed221df92878b3000 004a17a8     rtcp_from_spec.obj
 0004:000007b0       __real@8@3ffec000000000000000 004a17b0     rtcp_from_spec.obj
 0004:000007b8       __real@8@3ffd8000000000000000 004a17b8     rtcp_from_spec.obj
 0004:000007c0       __real@8@4000a000000000000000 004a17c0     rtcp_from_spec.obj
 0004:000007c8       __real@8@4001a000000000000000 004a17c8     rtcp_from_spec.obj
 0004:000007d0       __real@8@3ffef000000000000000 004a17d0     rtcp_from_spec.obj
 0004:000007d8       __real@8@3ffb8000000000000000 004a17d8     rtcp_from_spec.obj
 0004:000007e0       ??_7RTPInterface@@6B@      004a17e0     RTPInterface.obj
 0004:000007e4       ??_7SocketDescriptor@@6B@  004a17e4     RTPInterface.obj
 0004:000007e8       ??_7tcpStreamRecord@@6B@   004a17e8     RTPInterface.obj
 0004:000007ec       ??_7RTPSink@@6B@           004a17ec     RTPSink.obj
 0004:00000830       __real@8@bfea8637bd05af6c6800 004a1830     RTPSink.obj
 0004:00000838       ??_7RTPTransmissionStatsDB@@6B@ 004a1838     RTPSink.obj
 0004:0000083c       ??_7Iterator@RTPTransmissionStatsDB@@6B@ 004a183c     RTPSink.obj
 0004:00000840       ??_7RTPTransmissionStats@@6B@ 004a1840     RTPSink.obj
 0004:00000844       ??_7RTPSource@@6B@         004a1844     RTPSource.obj
 0004:000008a4       ??_7RTPReceptionStatsDB@@6B@ 004a18a4     RTPSource.obj
 0004:000008a8       ??_7Iterator@RTPReceptionStatsDB@@6B@ 004a18a8     RTPSource.obj
 0004:000008ac       ??_7RTPReceptionStats@@6B@ 004a18ac     RTPSource.obj
 0004:000008b0       __real@8@c012f424000000000000 004a18b0     RTPSource.obj
 0004:000008b8       __real@8@3fe58000000000000000 004a18b8     RTPSource.obj
 0004:000008c0       __real@8@400cf424000000000000 004a18c0     RTPSource.obj
 0004:000008c8       __real@8@401583126e978d4fe000 004a18c8     RTPSource.obj
 0004:000008d0       __real@8@3ff583126e978d4fe000 004a18d0     RTPSource.obj
 0004:000008d8       ??_7RTSPEncoderSession@RTSPServer@@6B@ 004a18d8     RTSPEncoderSession.obj
 0004:00000938       ??_7RTSPOverHTTPServer@@6B@ 004a1938     RTSPOverHTTPServer.obj
 0004:0000095c       ??_7HTTPClientConnection@RTSPOverHTTPServer@@6B@ 004a195c     RTSPOverHTTPServer.obj
 0004:00000960       ??_7RTSPServer@@6B@        004a1960     RTSPServer.obj
 0004:00000994       ??_7RTSPClientSession@RTSPServer@@6B@ 004a1994     RTSPServer.obj
 0004:000009e0       ??_7ServerMediaSessionIterator@RTSPServer@@6B@ 004a19e0     RTSPServer.obj
 0004:000009e4       ??_7UserAuthenticationDatabase@@6B@ 004a19e4     RTSPServer.obj
 0004:000009fc       ??_7ServerMediaSession@@6B@ 004a19fc     ServerMediaSession.obj
 0004:00000a20       __real@4@3fff8000000000000000 004a1a20     ServerMediaSession.obj
 0004:00000a24       ??_7ServerMediaSubsessionIterator@@6B@ 004a1a24     ServerMediaSession.obj
 0004:00000a28       ??_7ServerMediaSubsession@@6B@ 004a1a28     ServerMediaSession.obj
 0004:00000a70       __real@4@00000000000000000000 004a1a70     ServerMediaSession.obj
 0004:00000a74       ??_7StreamParser@@6B@      004a1a74     StreamParser.obj
 0004:00000a80       ??_7UsageEnvironment@@6B@  004a1a80     UsageEnvironment.obj
 0004:00000ab8       ??_7TaskScheduler@@6B@     004a1ab8     UsageEnvironment.obj
 0004:00000ad4       ??_7VideoRTPSink@@6B@      004a1ad4     VideoRTPSink.obj
 0004:00000b60       __real@8@bfff8000000000000000 004a1b60     libxvidcore:plugin_2pass2.obj
 0004:00000b68       __real@8@bff8a3d70a3d70a3d800 004a1b68     libxvidcore:plugin_2pass2.obj
 0004:00000b70       __real@4@3ff8a3d70a3d70a3d800 004a1b70     libxvidcore:plugin_2pass2.obj
 0004:00000b78       __real@8@3ff8a3d70a3d70a3d800 004a1b78     libxvidcore:plugin_2pass2.obj
 0004:00000b80       __real@4@40028000000000000000 004a1b80     libxvidcore:plugin_2pass2.obj
 0004:00000b84       __real@4@4000c000000000000000 004a1b84     libxvidcore:plugin_2pass2.obj
 0004:00000b88       __real@4@3ffc8000000000000000 004a1b88     libxvidcore:plugin_2pass2.obj
 0004:00000b8c       __real@4@3ff58000000000000000 004a1b8c     libxvidcore:plugin_2pass2.obj
 0004:00000b90       __real@8@3ffee666666666666800 004a1b90     libxvidcore:plugin_2pass2.obj
 0004:00000b98       __real@4@3ffbcccccd0000000000 004a1b98     libxvidcore:plugin_2pass2.obj
 0004:00000ba0       __real@8@40008000000000000000 004a1ba0     libxvidcore:plugin_single.obj
 0004:00000ba8       __real@8@3ffbccccccccccccd000 004a1ba8     libxvidcore:plugin_single.obj
 0004:00000bb0       __real@8@3ffb84230fcf80dc3000 004a1bb0     libxvidcore:plugin_single.obj
 0004:00001158       __real@8@3ff2c000000000000000 004a2158     libxvidcore:postprocessing.obj
 0004:00001160       __real@8@3ffdaaaaaaaaaaaaa800 004a2160     libxvidcore:postprocessing.obj
 0004:00001168       __real@8@4005fe00000000000000 004a2168     libxvidcore:postprocessing.obj
 0004:00001170       __real@8@c0068000000000000000 004a2170     libxvidcore:postprocessing.obj
 0004:00001178       __real@8@40028000000000000000 004a2178     libxvidcore:postprocessing.obj
 0004:00001180       __real@8@3ffdb333333333333000 004a2180     libxvidcore:postprocessing.obj
 0004:00001188       __real@8@4002c000000000000000 004a2188     libxvidcore:postprocessing.obj
 0004:00001190       __real@8@4000c000000000000000 004a2190     libxvidcore:postprocessing.obj
 0004:00001198       __real@8@c0008000000000000000 004a2198     libxvidcore:postprocessing.obj
 0004:000011a0       __real@8@3ff18001000200040000 004a21a0     libxvidcore:postprocessing.obj
 0004:00001db8       _coeff_tab                 004a2db8     libxvidcore:mbcoding.obj
 0004:00002748       _max_level                 004a3748     libxvidcore:mbcoding.obj
 0004:00002848       _max_run                   004a3848     libxvidcore:mbcoding.obj
 0004:00002948       _xvid_cbpy_tab             004a3948     libxvidcore:mbcoding.obj
 0004:000029c8       _dcy_tab                   004a39c8     libxvidcore:mbcoding.obj
 0004:000039c0       _dcc_tab                   004a49c0     libxvidcore:mbcoding.obj
 0004:000049b8       _mb_motion_table           004a59b8     libxvidcore:mbcoding.obj
 0004:00004bc0       _mcbpc_intra_table         004a5bc0     libxvidcore:mbcoding.obj
 0004:00004dc0       _mcbpc_inter_table         004a5dc0     libxvidcore:mbcoding.obj
 0004:000055c8       _cbpy_table                004a65c8     libxvidcore:mbcoding.obj
 0004:000057c8       _TMNMVtab0                 004a67c8     libxvidcore:mbcoding.obj
 0004:00005838       _TMNMVtab1                 004a6838     libxvidcore:mbcoding.obj
 0004:00005b38       _TMNMVtab2                 004a6b38     libxvidcore:mbcoding.obj
 0004:00005f18       _dc_threshold              004a6f18     libxvidcore:mbcoding.obj
 0004:00005f98       _dc_lum_tab                004a6f98     libxvidcore:mbcoding.obj
 0004:00005fd8       __real@4@4005c7fae10000000000 004a6fd8     libxvidcore:image.obj
 0004:00005fdc       __real@4@4002a000000000000000 004a6fdc     libxvidcore:image.obj
 0004:00005fe0       __real@4@400efe01000000000000 004a6fe0     libxvidcore:image.obj
 0004:00005fe4       __real@4@4004c086250000000000 004a6fe4     libxvidcore:image.obj
 0004:00006038       __real@4@40058000000000000000 004a7038     libxvidcore:encoder.obj
 0004:0000603c       __real@4@3ff78080808080808000 004a703c     libxvidcore:encoder.obj
 0004:00006040       __real@8@40018000000000000000 004a7040     libxvidcore:encoder.obj
 0004:00006b8c       _roundtab                  004a7b8c     libxvidcore:estimation_common.obj
 0004:00006bcc       _roundtab_76               004a7bcc     libxvidcore:estimation_common.obj
 0004:00006c0c       _roundtab_78               004a7c0c     libxvidcore:estimation_common.obj
 0004:00006c2c       _roundtab_79               004a7c2c     libxvidcore:estimation_common.obj
 0004:00006c3c       _xvid_me_lambda_vec16      004a7c3c     libxvidcore:estimation_common.obj
 0004:0000787c       ??_C@_07PCLE@LC_TIME?$AA@  004a887c     LIBC:setlocal.obj
 0004:00007884       ??_C@_0L@NKG@LC_NUMERIC?$AA@ 004a8884     LIBC:setlocal.obj
 0004:00007890       ??_C@_0M@CBIH@LC_MONETARY?$AA@ 004a8890     LIBC:setlocal.obj
 0004:0000789c       ??_C@_08LFGE@LC_CTYPE?$AA@ 004a889c     LIBC:setlocal.obj
 0004:000078a8       ??_C@_0L@CFLC@LC_COLLATE?$AA@ 004a88a8     LIBC:setlocal.obj
 0004:000078b4       ??_C@_06GCPK@LC_ALL?$AA@   004a88b4     LIBC:setlocal.obj
 0004:000078bc       ??_C@_01FAJB@?$DL?$AA@     004a88bc     LIBC:setlocal.obj
 0004:000078c0       ??_C@_02BGDO@?$DN?$DL?$AA@ 004a88c0     LIBC:setlocal.obj
 0004:000078c4       ??_C@_03DBOJ@_?4?0?$AA@    004a88c4     LIBC:setlocal.obj
 0004:000078c8       ??_C@_01PJCK@?4?$AA@       004a88c8     LIBC:setlocal.obj
 0004:000078cc       ??_C@_01NON@_?$AA@         004a88cc     LIBC:setlocal.obj
 0004:000078d4       ??_7type_info@@6B@         004a88d4     LIBC:typinfo.obj
 0004:000078d8       ??_C@_07CJME@H?3mm?3ss?$AA@ 004a88d8     LIBC:strftime.obj
 0004:000078e0       ??_C@_0BE@MHI@dddd?0?5MMMM?5dd?0?5yyyy?$AA@ 004a88e0     LIBC:strftime.obj
 0004:000078f4       ??_C@_06HCAD@M?1d?1yy?$AA@ 004a88f4     LIBC:strftime.obj
 0004:000078fc       ??_C@_02DBLP@PM?$AA@       004a88fc     LIBC:strftime.obj
 0004:00007900       ??_C@_02ENLM@AM?$AA@       004a8900     LIBC:strftime.obj
 0004:00007904       ??_C@_08LIDF@December?$AA@ 004a8904     LIBC:strftime.obj
 0004:00007910       ??_C@_08NJLI@November?$AA@ 004a8910     LIBC:strftime.obj
 0004:0000791c       ??_C@_07IAMM@October?$AA@  004a891c     LIBC:strftime.obj
 0004:00007924       ??_C@_09MKGD@September?$AA@ 004a8924     LIBC:strftime.obj
 0004:00007930       ??_C@_06PADP@August?$AA@   004a8930     LIBC:strftime.obj
 0004:00007938       ??_C@_04PIJO@July?$AA@     004a8938     LIBC:strftime.obj
 0004:00007940       ??_C@_04ICFP@June?$AA@     004a8940     LIBC:strftime.obj
 0004:00007948       ??_C@_05JFGC@April?$AA@    004a8948     LIBC:strftime.obj
 0004:00007950       ??_C@_05FGPD@March?$AA@    004a8950     LIBC:strftime.obj
 0004:00007958       ??_C@_08PGBA@February?$AA@ 004a8958     LIBC:strftime.obj
 0004:00007964       ??_C@_07BPKJ@January?$AA@  004a8964     LIBC:strftime.obj
 0004:0000796c       ??_C@_03PGJO@Dec?$AA@      004a896c     LIBC:strftime.obj
 0004:00007970       ??_C@_03PDLM@Nov?$AA@      004a8970     LIBC:strftime.obj
 0004:00007974       ??_C@_03BLHK@Oct?$AA@      004a8974     LIBC:strftime.obj
 0004:00007978       ??_C@_03DPFM@Sep?$AA@      004a8978     LIBC:strftime.obj
 0004:0000797c       ??_C@_03CMCH@Aug?$AA@      004a897c     LIBC:strftime.obj
 0004:00007980       ??_C@_03OBKI@Jul?$AA@      004a8980     LIBC:strftime.obj
 0004:00007984       ??_C@_03LEIG@Jun?$AA@      004a8984     LIBC:strftime.obj
 0004:00007988       ??_C@_03MGHB@May?$AA@      004a8988     LIBC:strftime.obj
 0004:0000798c       ??_C@_03MJJM@Apr?$AA@      004a898c     LIBC:strftime.obj
 0004:00007990       ??_C@_03GNHA@Mar?$AA@      004a8990     LIBC:strftime.obj
 0004:00007994       ??_C@_03PICE@Feb?$AA@      004a8994     LIBC:strftime.obj
 0004:00007998       ??_C@_03IEIF@Jan?$AA@      004a8998     LIBC:strftime.obj
 0004:0000799c       ??_C@_08FAKH@Saturday?$AA@ 004a899c     LIBC:strftime.obj
 0004:000079a8       ??_C@_06ONCK@Friday?$AA@   004a89a8     LIBC:strftime.obj
 0004:000079b0       ??_C@_08CCFO@Thursday?$AA@ 004a89b0     LIBC:strftime.obj
 0004:000079bc       ??_C@_09PBIN@Wednesday?$AA@ 004a89bc     LIBC:strftime.obj
 0004:000079c8       ??_C@_07BMBC@Tuesday?$AA@  004a89c8     LIBC:strftime.obj
 0004:000079d0       ??_C@_06CHLK@Monday?$AA@   004a89d0     LIBC:strftime.obj
 0004:000079d8       ??_C@_06OOEM@Sunday?$AA@   004a89d8     LIBC:strftime.obj
 0004:000079e0       ??_C@_03MPKK@Sat?$AA@      004a89e0     LIBC:strftime.obj
 0004:000079e4       ??_C@_03FINJ@Fri?$AA@      004a89e4     LIBC:strftime.obj
 0004:000079e8       ??_C@_03HIKC@Thu?$AA@      004a89e8     LIBC:strftime.obj
 0004:000079ec       ??_C@_03HECK@Wed?$AA@      004a89ec     LIBC:strftime.obj
 0004:000079f0       ??_C@_03ECCP@Tue?$AA@      004a89f0     LIBC:strftime.obj
 0004:000079f4       ??_C@_03PIEP@Mon?$AA@      004a89f4     LIBC:strftime.obj
 0004:000079f8       ??_C@_03FHEP@Sun?$AA@      004a89f8     LIBC:strftime.obj
 0004:000079fc       ??_C@_03MKGK@a?1p?$AA@     004a89fc     LIBC:strftime.obj
 0004:00007a00       ??_C@_05BDJK@am?1pm?$AA@   004a8a00     LIBC:strftime.obj
 0004:00007ab0       ___lookuptable             004a8ab0     LIBC:output.obj
 0004:00007b0c       ??_C@_1O@POHA@?$AA?$CI?$AAn?$AAu?$AAl?$AAl?$AA?$CJ?$AA?$AA@ 004a8b0c     LIBC:output.obj
 0004:00007b1c       ??_C@_06ONKE@?$CInull?$CJ?$AA@ 004a8b1c     LIBC:output.obj
 0004:00007b24       ??_C@_0P@GGKG@runtime?5error?5?$AA@ 004a8b24     LIBC:crt0msg.obj
 0004:00007b34       ??_C@_0O@DELO@TLOSS?5error?$AN?6?$AA@ 004a8b34     LIBC:crt0msg.obj
 0004:00007b44       ??_C@_0N@OMLL@SING?5error?$AN?6?$AA@ 004a8b44     LIBC:crt0msg.obj
 0004:00007b54       ??_C@_0P@OJAK@DOMAIN?5error?$AN?6?$AA@ 004a8b54     LIBC:crt0msg.obj
 0004:00007b64       ??_C@_0CF@EANP@R6028?$AN?6?9?5unable?5to?5initialize?5he@ 004a8b64     LIBC:crt0msg.obj
 0004:00007b8c       ??_C@_0DF@ECGN@R6027?$AN?6?9?5not?5enough?5space?5for?5lo@ 004a8b8c     LIBC:crt0msg.obj
 0004:00007bc4       ??_C@_0DF@FKAC@R6026?$AN?6?9?5not?5enough?5space?5for?5st@ 004a8bc4     LIBC:crt0msg.obj
 0004:00007bfc       ??_C@_0CG@DPMN@R6025?$AN?6?9?5pure?5virtual?5function?5c@ 004a8bfc     LIBC:crt0msg.obj
 0004:00007c24       ??_C@_0DF@CKIP@R6024?$AN?6?9?5not?5enough?5space?5for?5_o@ 004a8c24     LIBC:crt0msg.obj
 0004:00007c5c       ??_C@_0CJ@GGOE@R6019?$AN?6?9?5unable?5to?5open?5console?5@ 004a8c5c     LIBC:crt0msg.obj
 0004:00007c88       ??_C@_0CB@LBOB@R6018?$AN?6?9?5unexpected?5heap?5error?$AN?6@ 004a8c88     LIBC:crt0msg.obj
 0004:00007cac       ??_C@_0CN@FPEG@R6017?$AN?6?9?5unexpected?5multithread?5@ 004a8cac     LIBC:crt0msg.obj
 0004:00007cdc       ??_C@_0CM@OBIC@R6016?$AN?6?9?5not?5enough?5space?5for?5th@ 004a8cdc     LIBC:crt0msg.obj
 0004:00007d08       ??_C@_0CB@HPAL@?$AN?6abnormal?5program?5termination?$AN?6@ 004a8d08     LIBC:crt0msg.obj
 0004:00007d2c       ??_C@_0CM@JOOB@R6009?$AN?6?9?5not?5enough?5space?5for?5en@ 004a8d2c     LIBC:crt0msg.obj
 0004:00007d58       ??_C@_0CK@OIBL@R6008?$AN?6?9?5not?5enough?5space?5for?5ar@ 004a8d58     LIBC:crt0msg.obj
 0004:00007d84       ??_C@_0CF@LKPB@R6002?$AN?6?9?5floating?5point?5not?5load@ 004a8d84     LIBC:crt0msg.obj
 0004:00007dac       ??_C@_0CF@JPDF@Microsoft?5Visual?5C?$CL?$CL?5Runtime?5Lib@ 004a8dac     LIBC:crt0msg.obj
 0004:00007dd4       ??_C@_02JJJH@?6?6?$AA@     004a8dd4     LIBC:crt0msg.obj
 0004:00007dd8       ??_C@_0BK@DEOK@Runtime?5Error?$CB?6?6Program?3?5?$AA@ 004a8dd8     LIBC:crt0msg.obj
 0004:00007df4       ??_C@_03NAME@?4?4?4?$AA@   004a8df4     LIBC:crt0msg.obj
 0004:00007df8       ??_C@_0BH@NNCD@?$DMprogram?5name?5unknown?$DO?$AA@ 004a8df8     LIBC:crt0msg.obj
 0004:00007e10       ??_C@_0BG@JPLP@Illegal?5byte?5sequence?$AA@ 004a8e10     LIBC:syserr.obj
 0004:00007e28       ??_C@_0BE@FLBN@Directory?5not?5empty?$AA@ 004a8e28     LIBC:syserr.obj
 0004:00007e3c       ??_C@_0BJ@KAFL@Function?5not?5implemented?$AA@ 004a8e3c     LIBC:syserr.obj
 0004:00007e58       ??_C@_0BD@CEML@No?5locks?5available?$AA@ 004a8e58     LIBC:syserr.obj
 0004:00007e6c       ??_C@_0BC@GADJ@Filename?5too?5long?$AA@ 004a8e6c     LIBC:syserr.obj
 0004:00007e80       ??_C@_0BK@FNFN@Resource?5deadlock?5avoided?$AA@ 004a8e80     LIBC:syserr.obj
 0004:00007e9c       ??_C@_0BB@EALI@Result?5too?5large?$AA@ 004a8e9c     LIBC:syserr.obj
 0004:00007eb0       ??_C@_0N@FIAN@Domain?5error?$AA@ 004a8eb0     LIBC:syserr.obj
 0004:00007ec0       ??_C@_0M@CLKF@Broken?5pipe?$AA@ 004a8ec0     LIBC:syserr.obj
 0004:00007ecc       ??_C@_0P@OFDM@Too?5many?5links?$AA@ 004a8ecc     LIBC:syserr.obj
 0004:00007edc       ??_C@_0BG@OHDM@Read?9only?5file?5system?$AA@ 004a8edc     LIBC:syserr.obj
 0004:00007ef4       ??_C@_0N@NGPA@Invalid?5seek?$AA@ 004a8ef4     LIBC:syserr.obj
 0004:00007f04       ??_C@_0BI@DMFE@No?5space?5left?5on?5device?$AA@ 004a8f04     LIBC:syserr.obj
 0004:00007f1c       ??_C@_0P@OPNK@File?5too?5large?$AA@ 004a8f1c     LIBC:syserr.obj
 0004:00007f2c       ??_C@_0CE@BADJ@Inappropriate?5I?1O?5control?5operat@ 004a8f2c     LIBC:syserr.obj
 0004:00007f50       ??_C@_0BE@COOK@Too?5many?5open?5files?$AA@ 004a8f50     LIBC:syserr.obj
 0004:00007f64       ??_C@_0BO@ELHF@Too?5many?5open?5files?5in?5system?$AA@ 004a8f64     LIBC:syserr.obj
 0004:00007f84       ??_C@_0BB@IHAB@Invalid?5argument?$AA@ 004a8f84     LIBC:syserr.obj
 0004:00007f98       ??_C@_0P@NDNC@Is?5a?5directory?$AA@ 004a8f98     LIBC:syserr.obj
 0004:00007fa8       ??_C@_0BA@JMMO@Not?5a?5directory?$AA@ 004a8fa8     LIBC:syserr.obj
 0004:00007fb8       ??_C@_0P@GFAI@No?5such?5device?$AA@ 004a8fb8     LIBC:syserr.obj
 0004:00007fc8       ??_C@_0O@KHHM@Improper?5link?$AA@ 004a8fc8     LIBC:syserr.obj
 0004:00007fd8       ??_C@_0M@EPHJ@File?5exists?$AA@ 004a8fd8     LIBC:syserr.obj
 0004:00007fe4       ??_C@_0BA@LPOH@Resource?5device?$AA@ 004a8fe4     LIBC:syserr.obj
 0004:00007ff4       ??_C@_0O@NOFB@Unknown?5error?$AA@ 004a8ff4     LIBC:syserr.obj
 0004:00008004       ??_C@_0M@MLJM@Bad?5address?$AA@ 004a9004     LIBC:syserr.obj
 0004:00008010       ??_C@_0BC@DJON@Permission?5denied?$AA@ 004a9010     LIBC:syserr.obj
 0004:00008024       ??_C@_0BB@KDDC@Not?5enough?5space?$AA@ 004a9024     LIBC:syserr.obj
 0004:00008038       ??_C@_0CB@BBBH@Resource?5temporarily?5unavailable@ 004a9038     LIBC:syserr.obj
 0004:0000805c       ??_C@_0BD@ODIH@No?5child?5processes?$AA@ 004a905c     LIBC:syserr.obj
 0004:00008070       ??_C@_0BE@CDDH@Bad?5file?5descriptor?$AA@ 004a9070     LIBC:syserr.obj
 0004:00008084       ??_C@_0BC@BICL@Exec?5format?5error?$AA@ 004a9084     LIBC:syserr.obj
 0004:00008098       ??_C@_0BC@IGMC@Arg?5list?5too?5long?$AA@ 004a9098     LIBC:syserr.obj
 0004:000080ac       ??_C@_0BK@HLB@No?5such?5device?5or?5address?$AA@ 004a90ac     LIBC:syserr.obj
 0004:000080c8       ??_C@_0BD@MPKK@Input?1output?5error?$AA@ 004a90c8     LIBC:syserr.obj
 0004:000080dc       ??_C@_0BK@ODCM@Interrupted?5function?5call?$AA@ 004a90dc     LIBC:syserr.obj
 0004:000080f8       ??_C@_0BA@BPKN@No?5such?5process?$AA@ 004a90f8     LIBC:syserr.obj
 0004:00008108       ??_C@_0BK@IEMO@No?5such?5file?5or?5directory?$AA@ 004a9108     LIBC:syserr.obj
 0004:00008124       ??_C@_0BI@IIAE@Operation?5not?5permitted?$AA@ 004a9124     LIBC:syserr.obj
 0004:0000813c       ??_C@_08KKBH@No?5error?$AA@ 004a913c     LIBC:syserr.obj
 0004:00008148       __real@8@4015800bf60000000000 004a9148     LIBC:testfdiv.obj
 0004:00008150       __real@8@4014bffffc0000000000 004a9150     LIBC:testfdiv.obj
 0004:00008158       ??_C@_0BK@JEGK@IsProcessorFeaturePresent?$AA@ 004a9158     LIBC:testfdiv.obj
 0004:00008174       ??_C@_08OBID@KERNEL32?$AA@ 004a9174     LIBC:testfdiv.obj
 0004:00008180       ??_C@_05OFLO@e?$CL000?$AA@ 004a9180     LIBC:cvt.obj
 0004:00008188       ??_C@_0BH@PHHF@__GLOBAL_HEAP_SELECTED?$AA@ 004a9188     LIBC:heapinit.obj
 0004:000081a0       ??_C@_0BF@BBGL@__MSVCRT_HEAP_SELECT?$AA@ 004a91a0     LIBC:heapinit.obj
 0004:000081b8       ??_C@_08OBJD@Paraguay?$AA@ 004a91b8     LIBC:getqloc.obj
 0004:000081c4       ??_C@_07GLKH@Uruguay?$AA@  004a91c4     LIBC:getqloc.obj
 0004:000081cc       ??_C@_05FPFC@Chile?$AA@    004a91cc     LIBC:getqloc.obj
 0004:000081d4       ??_C@_07IIGF@Ecuador?$AA@  004a91d4     LIBC:getqloc.obj
 0004:000081dc       ??_C@_09PKAL@Argentina?$AA@ 004a91dc     LIBC:getqloc.obj
 0004:000081e8       ??_C@_04LKAH@Peru?$AA@     004a91e8     LIBC:getqloc.obj
 0004:000081f0       ??_C@_08NEEM@Colombia?$AA@ 004a91f0     LIBC:getqloc.obj
 0004:000081fc       ??_C@_09ODEB@Venezuela?$AA@ 004a91fc     LIBC:getqloc.obj
 0004:00008208       ??_C@_0BD@CLEL@Dominican?5Republic?$AA@ 004a9208     LIBC:getqloc.obj
 0004:0000821c       ??_C@_0N@MDGL@South?5Africa?$AA@ 004a921c     LIBC:getqloc.obj
 0004:0000822c       ??_C@_06NKBG@Panama?$AA@   004a922c     LIBC:getqloc.obj
 0004:00008234       ??_C@_0L@BMHO@Luxembourg?$AA@ 004a9234     LIBC:getqloc.obj
 0004:00008240       ??_C@_0L@IMDK@Costa?5Rica?$AA@ 004a9240     LIBC:getqloc.obj
 0004:0000824c       ??_C@_0M@BLJF@Switzerland?$AA@ 004a924c     LIBC:getqloc.obj
 0004:00008258       ??_C@_09KBOL@Guatemala?$AA@ 004a9258     LIBC:getqloc.obj
 0004:00008264       ??_C@_06JNAK@Canada?$AA@   004a9264     LIBC:getqloc.obj
 0004:0000826c       ??_C@_0BG@OLLP@Spanish?5?9?5Modern?5Sort?$AA@ 004a926c     LIBC:getqloc.obj
 0004:00008284       ??_C@_09IDKE@Australia?$AA@ 004a9284     LIBC:getqloc.obj
 0004:00008290       ??_C@_07JJJJ@English?$AA@  004a9290     LIBC:getqloc.obj
 0004:00008298       ??_C@_07NMDO@Austria?$AA@  004a9298     LIBC:getqloc.obj
 0004:000082a0       ??_C@_06DEFE@German?$AA@   004a92a0     LIBC:getqloc.obj
 0004:000082a8       ??_C@_07JAIH@Belgium?$AA@  004a92a8     LIBC:getqloc.obj
 0004:000082b0       ??_C@_06BNLJ@Mexico?$AA@   004a92b0     LIBC:getqloc.obj
 0004:000082b8       ??_C@_07JHAG@Spanish?$AA@  004a92b8     LIBC:getqloc.obj
 0004:000082c0       ??_C@_06DADE@Basque?$AA@   004a92c0     LIBC:getqloc.obj
 0004:000082c8       ??_C@_06ENFP@Sweden?$AA@   004a92c8     LIBC:getqloc.obj
 0004:000082d0       ??_C@_07JPMH@Swedish?$AA@  004a92d0     LIBC:getqloc.obj
 0004:000082d8       ??_C@_07IEKF@Iceland?$AA@  004a92d8     LIBC:getqloc.obj
 0004:000082e0       ??_C@_09KNEA@Icelandic?$AA@ 004a92e0     LIBC:getqloc.obj
 0004:000082ec       ??_C@_06IJOD@France?$AA@   004a92ec     LIBC:getqloc.obj
 0004:000082f4       ??_C@_06EINI@French?$AA@   004a92f4     LIBC:getqloc.obj
 0004:000082fc       ??_C@_07FOOE@Finland?$AA@  004a92fc     LIBC:getqloc.obj
 0004:00008304       ??_C@_07OJOM@Finnish?$AA@  004a9304     LIBC:getqloc.obj
 0004:0000830c       ??_C@_05FFAC@Spain?$AA@    004a930c     LIBC:getqloc.obj
 0004:00008314       ??_C@_0BL@BIHM@Spanish?5?9?5Traditional?5Sort?$AA@ 004a9314     LIBC:getqloc.obj
 0004:00008330       ??_C@_0O@GLHB@united?9states?$AA@ 004a9330     LIBC:getqloc.obj
 0004:00008340       ??_C@_0P@IIKK@united?9kingdom?$AA@ 004a9340     LIBC:getqloc.obj
 0004:00008350       ??_C@_0BC@FHBO@trinidad?5?$CG?5tobago?$AA@ 004a9350     LIBC:getqloc.obj
 0004:00008364       ??_C@_0M@BDFM@south?9korea?$AA@ 004a9364     LIBC:getqloc.obj
 0004:00008370       ??_C@_0N@CKFA@south?9africa?$AA@ 004a9370     LIBC:getqloc.obj
 0004:00008380       ??_C@_0M@HNHN@south?5korea?$AA@ 004a9380     LIBC:getqloc.obj
 0004:0000838c       ??_C@_0N@MKDO@south?5africa?$AA@ 004a938c     LIBC:getqloc.obj
 0004:0000839c       ??_C@_06KFFJ@slovak?$AA@   004a939c     LIBC:getqloc.obj
 0004:000083a4       ??_C@_0M@NMAC@puerto?9rico?$AA@ 004a93a4     LIBC:getqloc.obj
 0004:000083b0       ??_C@_08EJOH@pr?9china?$AA@ 004a93b0     LIBC:getqloc.obj
 0004:000083bc       ??_C@_08CHMG@pr?5china?$AA@ 004a93bc     LIBC:getqloc.obj
 0004:000083c8       ??_C@_02OCJK@nz?$AA@       004a93c8     LIBC:getqloc.obj
 0004:000083cc       ??_C@_0M@MMKA@new?9zealand?$AA@ 004a93cc     LIBC:getqloc.obj
 0004:000083d8       ??_C@_09MGEH@hong?9kong?$AA@ 004a93d8     LIBC:getqloc.obj
 0004:000083e4       ??_C@_07CCAK@holland?$AA@  004a93e4     LIBC:getqloc.obj
 0004:000083ec       ??_C@_0O@MEPL@great?5britain?$AA@ 004a93ec     LIBC:getqloc.obj
 0004:000083fc       ??_C@_07LGIB@england?$AA@  004a93fc     LIBC:getqloc.obj
 0004:00008404       ??_C@_05BMOA@czech?$AA@    004a9404     LIBC:getqloc.obj
 0004:0000840c       ??_C@_05NMPB@china?$AA@    004a940c     LIBC:getqloc.obj
 0004:00008414       ??_C@_07GN@britain?$AA@    004a9414     LIBC:getqloc.obj
 0004:0000841c       ??_C@_07DLAK@america?$AA@  004a941c     LIBC:getqloc.obj
 0004:00008424       ??_C@_03IPEP@usa?$AA@      004a9424     LIBC:getqloc.obj
 0004:00008428       ??_C@_02PILH@us?$AA@       004a9428     LIBC:getqloc.obj
 0004:0000842c       ??_C@_02FHP@uk?$AA@        004a942c     LIBC:getqloc.obj
 0004:00008430       ??_C@_05DEAI@swiss?$AA@    004a9430     LIBC:getqloc.obj
 0004:00008438       ??_C@_0BA@LIAF@swedish?9finland?$AA@ 004a9438     LIBC:getqloc.obj
 0004:00008448       ??_C@_0BC@FMEG@spanish?9venezuela?$AA@ 004a9448     LIBC:getqloc.obj
 0004:0000845c       ??_C@_0BA@BNMG@spanish?9uruguay?$AA@ 004a945c     LIBC:getqloc.obj
 0004:0000846c       ??_C@_0BE@BKDJ@spanish?9puerto?5rico?$AA@ 004a946c     LIBC:getqloc.obj
 0004:00008480       ??_C@_0N@JIBL@spanish?9peru?$AA@ 004a9480     LIBC:getqloc.obj
 0004:00008490       ??_C@_0BB@OGOF@spanish?9paraguay?$AA@ 004a9490     LIBC:getqloc.obj
 0004:000084a4       ??_C@_0P@LLFA@spanish?9panama?$AA@ 004a94a4     LIBC:getqloc.obj
 0004:000084b4       ??_C@_0BC@BBJM@spanish?9nicaragua?$AA@ 004a94b4     LIBC:getqloc.obj
 0004:000084c8       ??_C@_0P@NJBN@spanish?9modern?$AA@ 004a94c8     LIBC:getqloc.obj
 0004:000084d8       ??_C@_0BA@NHDN@spanish?9mexican?$AA@ 004a94d8     LIBC:getqloc.obj
 0004:000084e8       ??_C@_0BB@JHOJ@spanish?9honduras?$AA@ 004a94e8     LIBC:getqloc.obj
 0004:000084fc       ??_C@_0BC@BOOM@spanish?9guatemala?$AA@ 004a94fc     LIBC:getqloc.obj
 0004:00008510       ??_C@_0BE@EELI@spanish?9el?5salvador?$AA@ 004a9510     LIBC:getqloc.obj
 0004:00008524       ??_C@_0BA@POAE@spanish?9ecuador?$AA@ 004a9524     LIBC:getqloc.obj
 0004:00008534       ??_C@_0BL@LDKN@spanish?9dominican?5republic?$AA@ 004a9534     LIBC:getqloc.obj
 0004:00008550       ??_C@_0BD@HPMH@spanish?9costa?5rica?$AA@ 004a9550     LIBC:getqloc.obj
 0004:00008564       ??_C@_0BB@NDDK@spanish?9colombia?$AA@ 004a9564     LIBC:getqloc.obj
 0004:00008578       ??_C@_0O@BJHA@spanish?9chile?$AA@ 004a9578     LIBC:getqloc.obj
 0004:00008588       ??_C@_0BA@OBNG@spanish?9bolivia?$AA@ 004a9588     LIBC:getqloc.obj
 0004:00008598       ??_C@_0BC@EFAM@spanish?9argentina?$AA@ 004a9598     LIBC:getqloc.obj
 0004:000085ac       ??_C@_0BF@KMMM@portuguese?9brazilian?$AA@ 004a95ac     LIBC:getqloc.obj
 0004:000085c4       ??_C@_0BC@BAAE@norwegian?9nynorsk?$AA@ 004a95c4     LIBC:getqloc.obj
 0004:000085d8       ??_C@_0BB@PBHK@norwegian?9bokmal?$AA@ 004a95d8     LIBC:getqloc.obj
 0004:000085ec       ??_C@_09EHKL@norwegian?$AA@ 004a95ec     LIBC:getqloc.obj
 0004:000085f8       ??_C@_0O@BEAN@italian?9swiss?$AA@ 004a95f8     LIBC:getqloc.obj
 0004:00008608       ??_C@_0O@OIFK@irish?9english?$AA@ 004a9608     LIBC:getqloc.obj
 0004:00008618       ??_C@_0N@NBPL@german?9swiss?$AA@ 004a9618     LIBC:getqloc.obj
 0004:00008628       ??_C@_0BC@ICFJ@german?9luxembourg?$AA@ 004a9628     LIBC:getqloc.obj
 0004:0000863c       ??_C@_0BE@GGPC@german?9lichtenstein?$AA@ 004a963c     LIBC:getqloc.obj
 0004:00008650       ??_C@_0BA@MKDC@german?9austrian?$AA@ 004a9650     LIBC:getqloc.obj
 0004:00008660       ??_C@_0N@ODNB@french?9swiss?$AA@ 004a9660     LIBC:getqloc.obj
 0004:00008670       ??_C@_0BC@MGCM@french?9luxembourg?$AA@ 004a9670     LIBC:getqloc.obj
 0004:00008684       ??_C@_0BA@NABK@french?9canadian?$AA@ 004a9684     LIBC:getqloc.obj
 0004:00008694       ??_C@_0P@CJNO@french?9belgian?$AA@ 004a9694     LIBC:getqloc.obj
 0004:000086a4       ??_C@_0M@LJOL@english?9usa?$AA@ 004a96a4     LIBC:getqloc.obj
 0004:000086b0       ??_C@_0L@FMNC@english?9us?$AA@ 004a96b0     LIBC:getqloc.obj
 0004:000086bc       ??_C@_0L@KBBK@english?9uk?$AA@ 004a96bc     LIBC:getqloc.obj
 0004:000086c8       ??_C@_0BK@NDDE@english?9trinidad?5y?5tobago?$AA@ 004a96c8     LIBC:getqloc.obj
 0004:000086e4       ??_C@_0BF@LKML@english?9south?5africa?$AA@ 004a96e4     LIBC:getqloc.obj
 0004:000086fc       ??_C@_0L@EGPP@english?9nz?$AA@ 004a96fc     LIBC:getqloc.obj
 0004:00008708       ??_C@_0BA@HLH@english?9jamaica?$AA@ 004a9708     LIBC:getqloc.obj
 0004:00008718       ??_C@_0M@PMJI@english?9ire?$AA@ 004a9718     LIBC:getqloc.obj
 0004:00008724       ??_C@_0BC@HINE@english?9caribbean?$AA@ 004a9724     LIBC:getqloc.obj
 0004:00008738       ??_C@_0M@DCFH@english?9can?$AA@ 004a9738     LIBC:getqloc.obj
 0004:00008744       ??_C@_0P@DGHK@english?9belize?$AA@ 004a9744     LIBC:getqloc.obj
 0004:00008754       ??_C@_0M@FLHK@english?9aus?$AA@ 004a9754     LIBC:getqloc.obj
 0004:00008760       ??_C@_0BB@HNCK@english?9american?$AA@ 004a9760     LIBC:getqloc.obj
 0004:00008774       ??_C@_0O@PAMI@dutch?9belgian?$AA@ 004a9774     LIBC:getqloc.obj
 0004:00008784       ??_C@_0BE@FPEJ@chinese?9traditional?$AA@ 004a9784     LIBC:getqloc.obj
 0004:00008798       ??_C@_0BC@CHFL@chinese?9singapore?$AA@ 004a9798     LIBC:getqloc.obj
 0004:000087ac       ??_C@_0BD@DCMH@chinese?9simplified?$AA@ 004a97ac     LIBC:getqloc.obj
 0004:000087c0       ??_C@_0BB@JMOE@chinese?9hongkong?$AA@ 004a97c0     LIBC:getqloc.obj
 0004:000087d4       ??_C@_07NGFN@chinese?$AA@  004a97d4     LIBC:getqloc.obj
 0004:000087dc       ??_C@_03PCOI@chi?$AA@      004a97dc     LIBC:getqloc.obj
 0004:000087e0       ??_C@_03FIHP@chh?$AA@      004a97e0     LIBC:getqloc.obj
 0004:000087e4       ??_C@_08HFLO@canadian?$AA@ 004a97e4     LIBC:getqloc.obj
 0004:000087f0       ??_C@_07INIJ@belgian?$AA@  004a97f0     LIBC:getqloc.obj
 0004:000087f8       ??_C@_0L@LCCA@australian?$AA@ 004a97f8     LIBC:getqloc.obj
 0004:00008804       ??_C@_0BB@BJIO@american?9english?$AA@ 004a9804     LIBC:getqloc.obj
 0004:00008818       ??_C@_0BB@DAGO@american?5english?$AA@ 004a9818     LIBC:getqloc.obj
 0004:0000882c       ??_C@_08HENB@american?$AA@ 004a982c     LIBC:getqloc.obj
 0004:00008838       ??_C@_03DGJE@OCP?$AA@      004a9838     LIBC:getqloc.obj
 0004:0000883c       ??_C@_03EKFG@ACP?$AA@      004a983c     LIBC:getqloc.obj
 0004:00008840       ___dnames                  004a9840     LIBC:timeset.obj
 0004:00008858       ___mnames                  004a9858     LIBC:timeset.obj
 0004:00008880       ??_C@_02JHIA@TZ?$AA@       004a9880     LIBC:tzset.obj
 0004:00008884       ??_C@_0BD@NJFP@GetLastActivePopup?$AA@ 004a9884     LIBC:crtmbox.obj
 0004:00008898       ??_C@_0BA@GILI@GetActiveWindow?$AA@ 004a9898     LIBC:crtmbox.obj
 0004:000088a8       ??_C@_0M@PKCK@MessageBoxA?$AA@ 004a98a8     LIBC:crtmbox.obj
 0004:000088b4       ??_C@_0L@HKL@user32?4dll?$AA@ 004a98b4     LIBC:crtmbox.obj
 0004:000088c0       ??_C@_01A@?$AA?$AA@        004a98c0     LIBC:w_str.obj
 0004:000088c4       ??_C@_13A@?$AA?$AA?$AA?$AA@ 004a98c4     LIBC:w_str.obj
 0004:00008908       ??_C@_06PAPI@1?$CDQNAN?$AA@ 004a9908     LIBC:x10fout.obj
 0004:00008910       ??_C@_05BGNL@1?$CDINF?$AA@ 004a9910     LIBC:x10fout.obj
 0004:00008918       ??_C@_05EDPF@1?$CDIND?$AA@ 004a9918     LIBC:x10fout.obj
 0004:00008920       ??_C@_06LKFM@1?$CDSNAN?$AA@ 004a9920     LIBC:x10fout.obj
 0004:00008960       ??_R1A@?0A@A@type_info@@8  004a9960     LIBC:typinfo.obj
 0004:00008978       ??_R2type_info@@8          004a9978     LIBC:typinfo.obj
 0004:00008980       ??_R3type_info@@8          004a9980     LIBC:typinfo.obj
 0004:00008990       ??_R4type_info@@6B@        004a9990     LIBC:typinfo.obj
 0004:00009a88       __CT??_R0H@84              004aaa88     StreamParser.obj
 0004:00009aa8       __CTA1H                    004aaaa8     StreamParser.obj
 0004:00009ab0       __TI1H                     004aaab0     StreamParser.obj
 0005:00000000       ___xc_a                    004ab000     LIBC:crt0init.obj
 0005:00000084       ___xc_z                    004ab084     LIBC:crt0init.obj
 0005:00000088       ___xi_a                    004ab088     LIBC:crt0init.obj
 0005:0000009c       ___xi_z                    004ab09c     LIBC:crt0init.obj
 0005:000000a0       ___xp_a                    004ab0a0     LIBC:crt0init.obj
 0005:000000a8       ___xp_z                    004ab0a8     LIBC:crt0init.obj
 0005:000000ac       ___xt_a                    004ab0ac     LIBC:crt0init.obj
 0005:000000b4       ___xt_z                    004ab0b4     LIBC:crt0init.obj
 0005:000000c0       ??_C@_03NNND@AMR?$AA@      004ab0c0     AMRAudioRTPSink.obj
 0005:000000c4       ??_C@_06HPM@AMR?9WB?$AA@   004ab0c4     AMRAudioRTPSink.obj
 0005:000000cc       ??_C@_0HG@BLMM@?5audio?5channels?4?5?5In?5the?5current@ 004ab0cc     AMRAudioRTPSink.obj
 0005:00000144       ??_C@_0CM@FAC@AMRAudioRTPSink?3?5Warning?3?5Input?5@ 004ab144     AMRAudioRTPSink.obj
 0005:00000170       ??_C@_0BK@LNCI@a?$DNfmtp?3?$CFd?5octet?9align?$DN1?$AN?6?$AA@ 004ab170     AMRAudioRTPSink.obj
 0005:0000018c       ??_C@_05BDHG@audio?$AA@    004ab18c     AudioRTPSink.obj
 0005:00000194       ??_C@_01BJG@?6?$AA@        004ab194     BasicTaskScheduler.obj
 0005:00000198       ??_C@_07KLGI@?7?$FL?$CF08x?$FN?$AA@ 004ab198     BasicTaskScheduler.obj
 0005:000001a0       ??_C@_0BG@KHKJ@fd_set?5has?5?$CFd?5elems?3?5?$AA@ 004ab1a0     BasicTaskScheduler.obj
 0005:000001b8       ??_C@_0DH@ONOF@?$DN?$DN?$DN?$DN?$DN?$DN?$DN?$DN?$DN?$DN?$DN?$DN?$DN?$DN?$DN?$DN?$DN?$DN?$DN?$DN?$DN?$DN?$DN?$DN?$DN?$DN?$DN?$DNRead@ 004ab1b8     BasicTaskScheduler.obj
 0005:000001f0       ??_C@_0EK@GOFP@resultConditionSet?$DN?$CFd?0?5handler?9?$DO@ 004ab1f0     BasicTaskScheduler.obj
 0005:0000023c       ??_C@_0DI@INHM@?$CK?$DN?$DN?$DN?$DN?$DN?$DN?$DN?$DN?$DN?$DN?$DN?$DN?$DN?$DN?$DN?$DN?$DN?$DN?$DN?$DN?$DN?$DN?$DN?$DN?$DN?$DN?$DN?$DNRea@ 004ab23c     BasicTaskScheduler.obj
 0005:00000274       ??_C@_0DB@PLEG@BasicTaskScheduler?3?3SingleStep?$CI?$CJ@ 004ab274     BasicTaskScheduler.obj
 0005:000002a8       ??_C@_03HHKO@?$CFs?6?$AA@  004ab2a8     BasicTaskScheduler.obj
 0005:000002ac       ??_C@_0BH@BFOO@alarmHandler?5is?5NULL?4?6?$AA@ 004ab2ac     BasicTaskScheduler0.obj
 0005:000002c4       ??_C@_0CG@FKJD@?5bytes?5of?5trailing?5data?5was?5drop@ 004ab2c4     BasicUDPSink.obj
 0005:000002ec       ??_C@_04BMCF@?$CJ?4?5?5?$AA@ 004ab2ec     BasicUDPSink.obj
 0005:000002f4       ??_C@_0GP@HAEK@BasicUDPSink?3?3afterGettingFrame1@ 004ab2f4     BasicUDPSink.obj
 0005:00000364       ??_C@_0CB@MEBP@Failed?5to?5initialize?5?8winsock?8?3?5@ 004ab364     BasicUsageEnvironment.obj
 0005:00000388       ??_C@_02DILL@?$CFs?$AA@    004ab388     BasicUsageEnvironment.obj
 0005:0000038c       ??_C@_06NEML@?$CINULL?$CJ?$AA@ 004ab38c     BasicUsageEnvironment.obj
 0005:00000394       ??_C@_02MECO@?$CFd?$AA@    004ab394     BasicUsageEnvironment.obj
 0005:00000398       ??_C@_02MHMJ@?$CFu?$AA@    004ab398     BasicUsageEnvironment.obj
 0005:0000039c       ??_C@_02JBAA@?$CFf?$AA@    004ab39c     BasicUsageEnvironment.obj
 0005:000003a0       ??_C@_02MHAC@?$CFp?$AA@    004ab3a0     BasicUsageEnvironment.obj
 0005:000003a4       ??_C@_05IPJG@?$CFs?3?$CFs?$AA@ 004ab3a4     DigestAuthentication.obj
 0005:000003ac       ??_C@_08GHKP@?$CFs?3?$CFs?3?$CFs?$AA@ 004ab3ac     DigestAuthentication.obj
 0005:000003b8       ??_C@_04PAPL@Menu?$AA@     004ab3b8     DvrWnd.obj
 0005:000003c0       ??_C@_06GPAH@AnyWnd?$AA@   004ab3c0     DvrWnd.obj
 0005:000003c8       ??_C@_09FKFD@OnDvrMsg?6?$AA@ 004ab3c8     DvrWnd.obj
 0005:000003d4       ??_C@_0BJ@OJNA@WM_DVR_MSG?0?5lParam?5?$DN?5?$CFd?6?$AA@ 004ab3d4     DvrWnd.obj
 0005:000003f0       ??_C@_0DC@MJI@m?$DN?$CFs?5?$CFu?5RTP?1AVP?5?$CFd?$AN?6b?$DNAS?3?$CFu?$AN?6?$CFs?$CF@ 004ab3f0     EncoderMediaSubsession.obj
 0005:00000424       ??_C@_05PHCB@store?$AA@    004ab424     EncoderMediaSubsession.obj
 0005:00000434       ??_C@_06IFP@mobile?$AA@    004ab434     EncoderSource.obj
 0005:0000043c       ??_C@_0BF@KNDK@e?3?2media?2tempete?4cif?$AA@ 004ab43c     EncoderSource.obj
 0005:00000454       ??_C@_02JKAF@rb?$AA@       004ab454     EncoderSource.obj
 0005:00000458       ??_C@_06LFJL@livehd?$AA@   004ab458     EncoderSource.obj
 0005:00000460       ??_C@_04NBIJ@live?$AA@     004ab460     EncoderSource.obj
 0005:00000468       ??_C@_0BB@PBKM@e?3?2media?2qlx?4pcm?$AA@ 004ab468     EncoderSource.obj
 0005:00000480       ??_C@_01HMO@?$CC?$AA@      004ab480     ExceptionHandler.obj
 0005:00000484       ??_C@_02NCJM@?5?$CC?$AA@   004ab484     ExceptionHandler.obj
 0005:00000488       ??_C@_0BB@EKNG@XCrashReport?4exe?$AA@ 004ab488     ExceptionHandler.obj
 0005:0000049c       ??_C@_09PCF@CRASH?4DMP?$AA@ 004ab49c     ExceptionHandler.obj
 0005:000004a8       ??_C@_0BM@OAK@?$AN?6?$DN?$DN?$DN?$DN?$DN?5?$FLend?5of?5?$CFs?$FN?5?$DN?$DN?$DN?$DN?$DN?$AN?6?$AA@ 004ab4a8     ExceptionHandler.obj
 0005:000004c4       ??_C@_03HEHB@?$DP?$DP?5?$AA@ 004ab4c4     ExceptionHandler.obj
 0005:000004c8       ??_C@_05OOAB@?$CF02x?5?$AA@ 004ab4c8     ExceptionHandler.obj
 0005:000004d0       ??_C@_0BF@DLAJ@?$AN?6Bytes?5at?5CS?3EIP?3?$AN?6?$AA@ 004ab4d0     ExceptionHandler.obj
 0005:000004e8       ??_C@_0CP@KJOF@?$CFs?5location?5?$CF08x?5caused?5an?5acces@ 004ab4e8     ExceptionHandler.obj
 0005:00000518       ??_C@_08GMDL@Write?5to?$AA@ 004ab518     ExceptionHandler.obj
 0005:00000524       ??_C@_09OICC@Read?5from?$AA@ 004ab524     ExceptionHandler.obj
 0005:00000530       ??_C@_0CC@NHGH@Exception?5handler?5called?5in?5?$CFs?4?$AN@ 004ab530     ExceptionHandler.obj
 0005:00000554       ??_C@_0DH@PLPP@?$CFs?5caused?5?$CFs?5?$CI0x?$CF08x?$CJ?5?$AN?6in?5modul@ 004ab554     ExceptionHandler.obj
 0005:0000058c       ??_C@_0CC@BDCI@Error?5creating?5exception?5report?$AN@ 004ab58c     ExceptionHandler.obj
 0005:000005b0       ??_C@_0N@PECE@ERRORLOG?4TXT?$AA@ 004ab5b0     ExceptionHandler.obj
 0005:000005c0       ??_C@_07PCHH@Unknown?$AA@  004ab5c0     ExceptionHandler.obj
 0005:000005c8       ??_C@_0BD@JJFK@writing?5minidump?$AN?6?$AA@ 004ab5c8     ExceptionHandler.obj
 0005:000005dc       ??_C@_0BE@KEAG@raising?5exception?$AN?6?$AA@ 004ab5dc     ExceptionHandler.obj
 0005:000005f0       ??_C@_02PIMC@?$AN?6?$AA@   004ab5f0     ExceptionHandler.obj
 0005:000005f4       ??_C@_0BN@CHKF@?5?5?5ProdVer?3?5?5?5?5?$CFd?4?$CFd?4?$CFd?4?$CFd?$AN?6?$AA@ 004ab5f4     ExceptionHandler.obj
 0005:00000614       ??_C@_0BN@PJBN@?5?5?5FileVer?3?5?5?5?5?$CFd?4?$CFd?4?$CFd?4?$CFd?$AN?6?$AA@ 004ab614     ExceptionHandler.obj
 0005:00000634       ??_C@_0BE@NIFO@?5?5?5FileDesc?3?5?5?5?$CFs?$AN?6?$AA@ 004ab634     ExceptionHandler.obj
 0005:00000648       ??_C@_0BE@CCLO@?5?5?5Product?3?5?5?5?5?$CFs?$AN?6?$AA@ 004ab648     ExceptionHandler.obj
 0005:0000065c       ??_C@_0BE@LCL@?5?5?5Company?3?5?5?5?5?$CFs?$AN?6?$AA@ 004ab65c     ExceptionHandler.obj
 0005:00000670       ??_C@_0BH@FKEP@Version?5Information?3?$AN?6?$AA@ 004ab670     ExceptionHandler.obj
 0005:00000688       ??_C@_0CE@PCJK@File?5Size?3?5?5?$CF?910d?5?5File?5Time?3?5?5?$CF@ 004ab688     ExceptionHandler.obj
 0005:000006ac       ??_C@_0CJ@GIHP@Checksum?3?5?5?50x?$CF08x?5?5Time?5Stamp?3?5@ 004ab6ac     ExceptionHandler.obj
 0005:000006d8       ??_C@_0CJ@JBBA@Image?5Base?3?50x?$CF08x?5?5Image?5Size?3?5@ 004ab6d8     ExceptionHandler.obj
 0005:00000704       ??_C@_04PCLE@?$CFs?$AN?6?$AA@ 004ab704     ExceptionHandler.obj
 0005:0000070c       ??_C@_0M@JHID@Module?5?$CFd?$AN?6?$AA@ 004ab70c     ExceptionHandler.obj
 0005:00000718       ??_C@_0BI@LCMF@?$CFd?1?$CFd?1?$CFd?5?$CF02d?3?$CF02d?3?$CF02d?$AA@ 004ab718     ExceptionHandler.obj
 0005:00000730       ??_C@_0CF@OBOK@?$CFd?5MBytes?5user?5address?5space?5fre@ 004ab730     ExceptionHandler.obj
 0005:00000758       ??_C@_0CA@NGEM@?$CFd?5MBytes?5user?5address?5space?4?$AN?6?$AA@ 004ab758     ExceptionHandler.obj
 0005:00000778       ??_C@_0BO@BIHG@?$CFd?5MBytes?5paging?5file?5free?4?$AN?6?$AA@ 004ab778     ExceptionHandler.obj
 0005:00000798       ??_C@_0BJ@EGGL@?$CFd?5MBytes?5paging?5file?4?$AN?6?$AA@ 004ab798     ExceptionHandler.obj
 0005:000007b4       ??_C@_0CC@KAK@?$CFd?5MBytes?5physical?5memory?5free?4?$AN@ 004ab7b4     ExceptionHandler.obj
 0005:000007d8       ??_C@_0BN@GHCE@?$CFd?5MBytes?5physical?5memory?4?$AN?6?$AA@ 004ab7d8     ExceptionHandler.obj
 0005:000007f8       ??_C@_0BG@JCMB@?$CFd?$CF?$CF?5memory?5in?5use?4?$AN?6?$AA@ 004ab7f8     ExceptionHandler.obj
 0005:00000810       ??_C@_0BM@EFMC@?$CFd?5processor?$CIs?$CJ?0?5type?5?$CFd?4?$AN?6?$AA@ 004ab810     ExceptionHandler.obj
 0005:0000082c       ??_C@_0BO@IJDJ@Operating?5system?3?5?5?$CFs?5?$CI?$CFs?$CJ?4?$AN?6?$AA@ 004ab82c     ExceptionHandler.obj
 0005:0000084c       ??_C@_0BB@KEPM@?$CFs?0?5run?5by?5?$CFs?4?$AN?6?$AA@ 004ab84c     ExceptionHandler.obj
 0005:00000860       ??_C@_0BI@IKIM@Error?5occurred?5at?5?$CFs?4?$AN?6?$AA@ 004ab860     ExceptionHandler.obj
 0005:00000878       ??_C@_0BK@BJPJ@an?5Unknown?5exception?5type?$AA@ 004ab878     ExceptionHandler.obj
 0005:00000894       ??_C@_0BK@IOMD@a?5Microsoft?5C?$CL?$CL?5Exception?$AA@ 004ab894     ExceptionHandler.obj
 0005:000008b0       ??_C@_0BM@NPJE@a?5DLL?5Initialization?5Failed?$AA@ 004ab8b0     ExceptionHandler.obj
 0005:000008cc       ??_C@_0BB@CEPJ@a?5Stack?5Overflow?$AA@ 004ab8cc     ExceptionHandler.obj
 0005:000008e0       ??_C@_0BJ@NBOB@a?5Privileged?5Instruction?$AA@ 004ab8e0     ExceptionHandler.obj
 0005:000008fc       ??_C@_0BE@DPBH@an?5Integer?5Overflow?$AA@ 004ab8fc     ExceptionHandler.obj
 0005:00000910       ??_C@_0BK@GPIF@an?5Integer?5Divide?5by?5Zero?$AA@ 004ab910     ExceptionHandler.obj
 0005:0000092c       ??_C@_0BC@JCNI@a?5Float?5Underflow?$AA@ 004ab92c     ExceptionHandler.obj
 0005:00000940       ??_C@_0BE@HIDF@a?5Float?5Stack?5Check?$AA@ 004ab940     ExceptionHandler.obj
 0005:00000954       ??_C@_0BB@GGAH@a?5Float?5Overflow?$AA@ 004ab954     ExceptionHandler.obj
 0005:00000968       ??_C@_0BK@EDCP@a?5Float?5Invalid?5Operation?$AA@ 004ab968     ExceptionHandler.obj
 0005:00000984       ??_C@_0BH@FFHI@a?5Float?5Inexact?5Result?$AA@ 004ab984     ExceptionHandler.obj
 0005:0000099c       ??_C@_0BH@CGFE@a?5Float?5Divide?5by?5Zero?$AA@ 004ab99c     ExceptionHandler.obj
 0005:000009b4       ??_C@_0BJ@BLME@a?5Float?5Denormal?5Operand?$AA@ 004ab9b4     ExceptionHandler.obj
 0005:000009d0       ??_C@_0BI@FHGG@a?5Array?5Bounds?5Exceeded?$AA@ 004ab9d0     ExceptionHandler.obj
 0005:000009e8       ??_C@_0BH@CKNG@an?5Invalid?5Disposition?$AA@ 004ab9e8     ExceptionHandler.obj
 0005:00000a00       ??_C@_0BL@KFPB@a?5Noncontinuable?5Exception?$AA@ 004aba00     ExceptionHandler.obj
 0005:00000a1c       ??_C@_0BH@PIMM@an?5Illegal?5Instruction?$AA@ 004aba1c     ExceptionHandler.obj
 0005:00000a34       ??_C@_0M@LGLO@a?5No?5Memory?$AA@ 004aba34     ExceptionHandler.obj
 0005:00000a40       ??_C@_0BB@IPNE@an?5In?5Page?5Error?$AA@ 004aba40     ExceptionHandler.obj
 0005:00000a54       ??_C@_0BE@NJAL@an?5Access?5Violation?$AA@ 004aba54     ExceptionHandler.obj
 0005:00000a68       ??_C@_0N@PCGC@a?5Breakpoint?$AA@ 004aba68     ExceptionHandler.obj
 0005:00000a78       ??_C@_0BI@DDGM@a?5Datatype?5Misalignment?$AA@ 004aba78     ExceptionHandler.obj
 0005:00000a90       ??_C@_0BA@MIAL@a?5Control?9Break?$AA@ 004aba90     ExceptionHandler.obj
 0005:00000aa0       ??_C@_0M@LPLD@a?5Control?9C?$AA@ 004abaa0     ExceptionHandler.obj
 0005:00000aac       ??_C@_0CL@OOMH@Exception?5encountered?5during?5sta@ 004abaac     ExceptionHandler.obj
 0005:00000ad8       ??_C@_02JBML@?$CFc?$AA@    004abad8     ExceptionHandler.obj
 0005:00000adc       ??_C@_09EBOI@?5?5?5?5?5?5?5?5?5?$AA@ 004abadc     ExceptionHandler.obj
 0005:00000ae8       ??_C@_05NKJJ@?$CF08x?5?$AA@ 004abae8     ExceptionHandler.obj
 0005:00000af0       ??_C@_08MKIC@0x?$CF08x?3?5?$AA@ 004abaf0     ExceptionHandler.obj
 0005:00000afc       ??_C@_0N@KJOK@?$AN?6?$AN?6Stack?3?$AN?6?$AA@ 004abafc     ExceptionHandler.obj
 0005:00000b0c       ??_C@_0CN@NGEE@EFlags?3?50x?$CF08x?5?5ESP?3?50x?$CF08x?5?5Seg@ 004abb0c     ExceptionHandler.obj
 0005:00000b3c       ??_C@_0CN@NMCA@EIP?3?5?5?5?50x?$CF08x?5?5EBP?3?50x?$CF08x?5?5Seg@ 004abb3c     ExceptionHandler.obj
 0005:00000b6c       ??_C@_0CN@MJPK@EBX?3?5?5?5?50x?$CF08x?5?5ECX?3?50x?$CF08x?5?5EDX@ 004abb6c     ExceptionHandler.obj
 0005:00000b9c       ??_C@_0CN@GENO@EDI?3?5?5?5?50x?$CF08x?5?5ESI?3?50x?$CF08x?5?5EAX@ 004abb9c     ExceptionHandler.obj
 0005:00000bcc       ??_C@_0L@LNLA@Context?3?$AN?6?$AA@ 004abbcc     ExceptionHandler.obj
 0005:00000bd8       ??_C@_0BI@CLFM@?5is?5not?5a?5framed?5source?$AA@ 004abbd8     FramedSource.obj
 0005:00000bf0       ??_C@_0EI@KMHK@?$FN?3?3getNextFrame?$CI?$CJ?3?5attempting?5to@ 004abbf0     FramedSource.obj
 0005:00000c38       ??_C@_0O@FDAM@FramedSource?$FL?$AA@ 004abc38     FramedSource.obj
 0005:00000c48       ??_C@_0L@NODJ@Windows?5CE?$AA@ 004abc48     GetWinVer.obj
 0005:00000c54       ??_C@_0BE@HHLC@Windows?52003?5Server?$AA@ 004abc54     GetWinVer.obj
 0005:00000c68       ??_C@_0L@JDIA@Windows?5XP?$AA@ 004abc68     GetWinVer.obj
 0005:00000c74       ??_C@_0N@CDPP@Windows?52000?$AA@ 004abc74     GetWinVer.obj
 0005:00000c84       ??_C@_0N@HIBB@Windows?5NT?54?$AA@ 004abc84     GetWinVer.obj
 0005:00000c94       ??_C@_0BA@JHEI@Windows?5NT?53?451?$AA@ 004abc94     GetWinVer.obj
 0005:00000ca4       ??_C@_0L@BMJC@Windows?5ME?$AA@ 004abca4     GetWinVer.obj
 0005:00000cb0       ??_C@_0O@BFJP@Windows?598?5SE?$AA@ 004abcb0     GetWinVer.obj
 0005:00000cc0       ??_C@_0P@BHLL@Windows?598?5SP1?$AA@ 004abcc0     GetWinVer.obj
 0005:00000cd0       ??_C@_0L@FJEF@Windows?598?$AA@ 004abcd0     GetWinVer.obj
 0005:00000cdc       ??_C@_0BA@BAEC@Windows?595?5OSR2?$AA@ 004abcdc     GetWinVer.obj
 0005:00000cec       ??_C@_0P@DGCB@Windows?595?5SP1?$AA@ 004abcec     GetWinVer.obj
 0005:00000cfc       ??_C@_0L@NDG@Windows?595?$AA@ 004abcfc     GetWinVer.obj
 0005:00000d08       ??_C@_08MFPO@?$CFu?4?$CFu?4?$CFu?$AA@ 004abd08     GetWinVer.obj
 0005:00000d14       ??_C@_0BI@FLGF@unknown?5Windows?5version?$AA@ 004abd14     GetWinVer.obj
 0005:00000d2c       ??_C@_05NAJL@nokey?$AA@    004abd2c     GroupEId.obj
 0005:00000d34       ??_C@_0BO@HPPM@?3?5failed?5to?5get?5source?5port?3?5?$AA@ 004abd34     Groupsock.obj
 0005:00000d54       ??_C@_0L@EMPH@?3?5created?6?$AA@ 004abd54     Groupsock.obj
 0005:00000d60       ??_C@_0CJ@CJCM@Unable?5to?5determine?5our?5source?5a@ 004abd60     Groupsock.obj
 0005:00000d8c       ??_C@_0BJ@OPHA@?3?5failed?5to?5join?5group?3?5?$AA@ 004abd8c     Groupsock.obj
 0005:00000da8       ??_C@_0CA@EEAO@?5?9?5trying?5regular?5join?5instead?6?$AA@ 004abda8     Groupsock.obj
 0005:00000dc8       ??_C@_0BE@CIBO@?3?5SSM?5join?5failed?3?5?$AA@ 004abdc8     Groupsock.obj
 0005:00000ddc       ??_C@_0M@EIFJ@?3?5deleting?6?$AA@ 004abddc     Groupsock.obj
 0005:00000de8       ??_C@_08FBJL@?5members?$AA@ 004abde8     Groupsock.obj
 0005:00000df4       ??_C@_0O@OEMF@?$DL?5relayed?5to?5?$AA@ 004abdf4     Groupsock.obj
 0005:00000e04       ??_C@_0N@PLDJ@?5bytes?0?5ttl?5?$AA@ 004abe04     Groupsock.obj
 0005:00000e14       ??_C@_08EEJJ@?3?5wrote?5?$AA@ 004abe14     Groupsock.obj
 0005:00000e20       ??_C@_0BJ@GABE@Groupsock?5write?5failed?3?5?$AA@ 004abe20     Groupsock.obj
 0005:00000e3c       ??_C@_0N@EHJB@?5bytes?5from?5?$AA@ 004abe3c     Groupsock.obj
 0005:00000e4c       ??_C@_07EFIE@?3?5read?5?$AA@ 004abe4c     Groupsock.obj
 0005:00000e54       ??_C@_0BI@MGBI@Groupsock?5read?5failed?3?5?$AA@ 004abe54     Groupsock.obj
 0005:00000e6c       ??_C@_01KMMP@?$CJ?$AA@     004abe6c     Groupsock.obj
 0005:00000e70       ??_C@_0N@PMEE@SSM?5source?3?5?$AA@ 004abe70     Groupsock.obj
 0005:00000e80       ??_C@_02GIEM@?0?5?$AA@     004abe80     Groupsock.obj
 0005:00000e84       ??_C@_02HFBK@?3?5?$AA@     004abe84     Groupsock.obj
 0005:00000e88       ??_C@_0M@EJNE@?5Groupsock?$CI?$AA@ 004abe88     Groupsock.obj
 0005:00000e94       ??_C@_0CN@NPGG@Attempting?5to?5replace?5an?5existin@ 004abe94     Groupsock.obj
 0005:00000ec4       ??_C@_0BO@OIIP@trying?5to?5use?5bad?5socket?5?$CI?$CFd?$CJ?$AA@ 004abec4     Groupsock.obj
 0005:00000ee8       ?loopbackWorks@@3IA        004abee8     GroupsockHelper.obj
 0005:00000ef0       ??_C@_0CN@FOLA@error?5setting?5outgoing?5multicast@ 004abef0     GroupsockHelper.obj
 0005:00000f20       ??_C@_0CB@FMDG@bind?$CI?$CJ?5error?5?$CIport?5number?3?5?$CFd?$CJ?3?5@ 004abf20     GroupsockHelper.obj
 0005:00000f44       ??_C@_0CB@CALN@setsockopt?$CISO_REUSEADDR?$CJ?5error?3?5@ 004abf44     GroupsockHelper.obj
 0005:00000f68       ??_C@_0CD@HPD@unable?5to?5create?5datagram?5socket@ 004abf68     GroupsockHelper.obj
 0005:00000f8c       ??_C@_0BO@BHJN@failed?5to?5make?5non?9blocking?3?5?$AA@ 004abf8c     GroupsockHelper.obj
 0005:00000fac       ??_C@_0CB@GOGB@unable?5to?5create?5stream?5socket?3?5@ 004abfac     GroupsockHelper.obj
 0005:00000fd0       ??_C@_0BD@DMPA@recvfrom?$CI?$CJ?5error?3?5?$AA@ 004abfd0     GroupsockHelper.obj
 0005:00000fe4       ??_C@_0BL@GMBA@select?$CI?$CJ?5error?5?9?5?$CBFD_ISSET?$AA@ 004abfe4     GroupsockHelper.obj
 0005:00001000       ??_C@_0BB@HOPC@select?$CI?$CJ?5error?3?5?$AA@ 004ac000     GroupsockHelper.obj
 0005:00001014       ??_C@_0EA@IIMJ@writeSocket?$CI?$CFd?$CJ?0?5sendTo?$CI?$CJ?5error?3@ 004ac014     GroupsockHelper.obj
 0005:00001054       ??_C@_0CF@GIJN@setsockopt?$CIIP_MULTICAST_TTL?$CJ?5err@ 004ac054     GroupsockHelper.obj
 0005:0000107c       ??_C@_0BI@BDJN@getBufferSize?$CI?$CJ?5error?3?5?$AA@ 004ac07c     GroupsockHelper.obj
 0005:00001094       ??_C@_0CG@KIOK@setsockopt?$CIIP_ADD_MEMBERSHIP?$CJ?5er@ 004ac094     GroupsockHelper.obj
 0005:000010bc       ??_C@_0CN@FIFI@setsockopt?$CIIP_ADD_SOURCE_MEMBERS@ 004ac0bc     GroupsockHelper.obj
 0005:000010ec       ??_C@_0BG@IEOG@getsockname?$CI?$CJ?5error?3?5?$AA@ 004ac0ec     GroupsockHelper.obj
 0005:00001104       ??_C@_0CO@MFKF@This?5computer?5has?5an?5invalid?5IP?5@ 004ac104     GroupsockHelper.obj
 0005:00001134       ??_C@_0BP@JBAG@initial?5gethostbyname?$CI?$CJ?5failed?$AA@ 004ac134     GroupsockHelper.obj
 0005:00001154       ??_C@_0BN@BELH@initial?5gethostname?$CI?$CJ?5failed?$AA@ 004ac154     GroupsockHelper.obj
 0005:00001174       ??_C@_0L@DILH@no?5address?$AA@ 004ac174     GroupsockHelper.obj
 0005:00001180       ??_C@_0L@MOPC@hostIdTest?$AA@ 004ac180     GroupsockHelper.obj
 0005:0000118c       ??_C@_0N@PMEJ@228?467?443?491?$AA@ 004ac18c     GroupsockHelper.obj
 0005:0000119c       ??_C@_03PDDH@wb?$CL?$AA@   004ac19c     HikData.obj
 0005:000011a0       ??_C@_04LIE@?4?1?$CFs?$AA@ 004ac1a0     HikData.obj
 0005:000011a8       ??_C@_0BH@IBLC@resetCapturePicState?4?6?$AA@ 004ac1a8     HikData.obj
 0005:000011c0       ??_C@_07KKHP@?$CFlu?4bmp?$AA@ 004ac1c0     HikData.obj
 0005:000011c8       ??_C@_0CL@CGNG@HCInfo?$FL?$CFd?$FN?4m_lStockHandle?$DN?$CFd?0cha@ 004ac1c8     HikData.obj
 0005:000011f4       ??_C@_0BF@GCLM@HikData?4cpp?5?9?5_Entry?$AA@ 004ac1f4     HikData.obj
 0005:0000120c       ??_C@_0BB@HEIF@recvBuffer?5?$DN?5?$CFs?6?$AA@ 004ac20c     mainSdk.obj
 0005:00001220       ??_C@_0BA@GEJK@write?5is?5error?6?$AA@ 004ac220     mainSdk.obj
 0005:00001230       ??_C@_0BC@HPPN@connect?5is?5error?6?$AA@ 004ac230     mainSdk.obj
 0005:00001244       ??_C@_0BB@HGBB@socket?5is?5failed?$AA@ 004ac244     mainSdk.obj
 0005:00001258       ??_C@_0BC@LDGK@Connection?3?$CFs?$AN?6?$AN?6?$AA@ 004ac258     mainSdk.obj
 0005:0000126c       ??_C@_0L@FEBI@Keep?9Alive?$AA@ 004ac26c     mainSdk.obj
 0005:00001278       ??_C@_0M@NBPF@Accept?3?$CFs?$AN?6?$AA@ 004ac278     mainSdk.obj
 0005:00001284       ??_C@_03CEGI@?$CK?1?$CK?$AA@ 004ac284     mainSdk.obj
 0005:00001288       ??_C@_0BA@FIOK@User?9Agent?3?$CFs?$AN?6?$AA@ 004ac288     mainSdk.obj
 0005:00001298       ??_C@_05ECME@wayde?$AA@    004ac298     mainSdk.obj
 0005:000012a0       ??_C@_09LPBM@Host?3?$CFs?$AN?6?$AA@ 004ac2a0     mainSdk.obj
 0005:000012ac       ??_C@_08NOAE@HTTP?11?41?$AA@ 004ac2ac     mainSdk.obj
 0005:000012b8       ??_C@_07HCLP@mac?$DN?$CFs?5?$AA@ 004ac2b8     mainSdk.obj
 0005:000012c0       ??_C@_0BG@GNDL@?1com?1devfy?1devfy?4php?$DP?$AA@ 004ac2c0     mainSdk.obj
 0005:000012d8       ??_C@_07PCOP@http?3?1?1?$AA@ 004ac2d8     mainSdk.obj
 0005:000012e0       ??_C@_03CENI@?$CFs?5?$AA@  004ac2e0     mainSdk.obj
 0005:000012e4       ??_C@_03HLIC@GET?$AA@      004ac2e4     mainSdk.obj
 0005:000012e8       ??_C@_02PJJB@?$CC?6?$AA@   004ac2e8     mainSdk.obj
 0005:000012ec       ??_C@_0CB@LDFM@Play?5this?5stream?5using?5the?5URL?5?$CC@ 004ac2ec     mainSdk.obj
 0005:00001310       ??_C@_04IAHG@Key?3?$AA@    004ac310     mainSdk.obj
 0005:00001318       ??_C@_0BA@KGNC@host_name?5?$DN?5?$CFs?6?$AA@ 004ac318     mainSdk.obj
 0005:00001328       ??_C@_0BG@EFKI@unknown?5address?5type?6?$AA@ 004ac328     mainSdk.obj
 0005:00001340       ??_C@_0CC@OAPK@?5gethostbyname?5error?5for?5host?3?$CFs@ 004ac340     mainSdk.obj
 0005:00001364       ??_C@_0N@NKEH@RTSP?5session?$AA@ 004ac364     mainSdk.obj
 0005:00001374       ??_C@_0BP@LLCI@Failed?5to?5create?5RTSP?5server?3?5?$AA@ 004ac374     mainSdk.obj
 0005:00001394       ??_C@_0BF@EIJN@mainSdk?4cpp?5?9?5_Entry?$AA@ 004ac394     mainSdk.obj
 0005:000013ac       ??_C@_0BC@NPII@subChannel?5?$DN?5?$CFd?4?6?$AA@ 004ac3ac     mainSdk.obj
 0005:000013c0       ??_C@_0CG@FGEK@You?5input?5the?5parameter?5is?5incor@ 004ac3c0     mainSdk.obj
 0005:000013e8       ??_C@_07OFP@Medium?5?$AA@  004ac3e8     Media.obj
 0005:000013f0       ??_C@_0BA@BAKH@?5does?5not?5exist?$AA@ 004ac3f0     Media.obj
 0005:00001400       ??_C@_0M@JGJP@liveMedia?$CFd?$AA@ 004ac400     Media.obj
 0005:0000140c       ?maxSize@OutPacketBuffer@@2IA 004ac40c     MediaSink.obj
 0005:00001410       ??_C@_0BF@MCMJ@?5is?5not?5a?5media?5sink?$AA@ 004ac410     MediaSink.obj
 0005:00001428       ??_C@_0DF@BELK@MediaSink?3?3startPlaying?$CI?$CJ?3?5sourc@ 004ac428     MediaSink.obj
 0005:00001460       ??_C@_0CC@CCFF@This?5sink?5is?5already?5being?5playe@ 004ac460     MediaSink.obj
 0005:00001484       ??_C@_0BJ@PKOK@application?1OCTET?9STREAM?$AA@ 004ac484     MediaSource.obj
 0005:000014a0       ??_C@_0BH@NCLE@?5is?5not?5a?5media?5source?$AA@ 004ac4a0     MediaSource.obj
 0005:000014b8       ??_C@_0M@OKED@ProductName?$AA@ 004ac4b8     MiniVersion.obj
 0005:000014c4       ??_C@_0BA@EJP@FileDescription?$AA@ 004ac4c4     MiniVersion.obj
 0005:000014d4       ??_C@_0M@HFKG@CompanyName?$AA@ 004ac4d4     MiniVersion.obj
 0005:000014e0       ??_C@_01PCFE@?2?$AA@       004ac4e0     MiniVersion.obj
 0005:000014e4       ??_C@_0BM@JLJI@?2StringFileInfo?2?$CF04x?$CF04x?2?$CFs?$AA@ 004ac4e4     MiniVersion.obj
 0005:00001500       ??_C@_0BJ@KCFH@?2VarFileInfo?2Translation?$AA@ 004ac500     MiniVersion.obj
 0005:0000151c       ??_C@_07PCKP@MP4V?9ES?$AA@ 004ac51c     MPEG4ESVideoRTPSink.obj
 0005:00001524       ??_C@_04LDEB@?$CF02X?$AA@  004ac524     MPEG4ESVideoRTPSink.obj
 0005:0000152c       ??_C@_0CG@OLDM@a?$DNfmtp?3?$CFd?5profile?9level?9id?$DN?$CFd?$DLco@ 004ac52c     MPEG4ESVideoRTPSink.obj
 0005:00001558       ??_R0H@8                   004ac558     MPEG4VideoStreamFramer.obj
 0005:00001564       ??_C@_0FK@BBCN@MPEG4VideoStreamParser?3?3parseVis@ 004ac564     MPEG4VideoStreamFramer.obj
 0005:000015c0       ??_C@_0CL@GAEP@Not?5enough?5bits?5in?5VOL?5header?3?5?$CF@ 004ac5c0     MPEG4VideoStreamFramer.obj
 0005:000015ec       ??_C@_0ED@KMHH@MPEG4VideoStreamParser?3?3analyzeV@ 004ac5ec     MPEG4VideoStreamFramer.obj
 0005:00001630       ??_C@_0FE@MDAC@MPEG4VideoStreamParser?3?3analyzeV@ 004ac630     MPEG4VideoStreamFramer.obj
 0005:00001684       ??_C@_0ED@JDOH@MPEG4VideoStreamParser?3?3analyzeV@ 004ac684     MPEG4VideoStreamFramer.obj
 0005:000016c8       ??_C@_0HM@EMEL@MPEG4VideoStreamParser?3?3parseVid@ 004ac6c8     MPEG4VideoStreamFramer.obj
 0005:00001744       ??_C@_0EG@CEFP@MPEG4VideoStreamParser?3?3parseVid@ 004ac744     MPEG4VideoStreamFramer.obj
 0005:0000178c       ??_C@_0GG@KMDA@MPEG4VideoStreamParser?3?3parseVid@ 004ac78c     MPEG4VideoStreamFramer.obj
 0005:000017f4       ??_C@_0EG@LDNK@MPEG4VideoStreamParser?3?3parseVid@ 004ac7f4     MPEG4VideoStreamFramer.obj
 0005:0000183c       ??_C@_03EJCN@?4?$CJ?6?$AA@ 004ac83c     MultiFramedRTPSink.obj
 0005:00001840       ??_C@_0DI@PNHJ@?0?5?$CKbefore?$CK?5creating?5this?5?8RTPSin@ 004ac840     MultiFramedRTPSink.obj
 0005:00001878       ??_C@_0GJ@HGDF@?5bytes?5of?5trailing?5data?5was?5drop@ 004ac878     MultiFramedRTPSink.obj
 0005:000018e4       ??_C@_0GD@FBHL@MultiFramedRTPSink?3?3afterGetting@ 004ac8e4     MultiFramedRTPSink.obj
 0005:00001948       ?DebugLevel@Socket@@2HA    004ac948     NetInterface.obj
 0005:0000194c       ??_C@_08GBJN@?5Socket?$CI?$AA@ 004ac94c     NetInterface.obj
 0005:00001998       ??_C@_01LHO@r?$AA@         004ac998     our_md5hl.obj
 0005:0000199c       ??_C@_0BB@BJDB@Error?5string?5?$CFs?6?$AA@ 004ac99c     rsa_crypto.obj
 0005:000019b0       ??_C@_0EO@HEFK@RTCPInstance?3?3RTCPInstance?5error@ 004ac9b0     RTCP.obj
 0005:00001a00       ??_C@_0BI@FGDC@?5is?5not?5a?5RTCP?5instance?$AA@ 004aca00     RTCP.obj
 0005:00001a18       ??_C@_0M@FD@stop?5here?4?6?$AA@ 004aca18     RTPInterface.obj
 0005:00001a24       ??_C@_0CE@JILF@SocketDescriptor?3?3SocketDescript@ 004aca24     RTPInterface.obj
 0005:00001a48       ??_C@_0CK@MKHO@?9?9?9?9?9?9?9?9?9?9?9?9?9?9?9?9?9?9?9?9?9?9?9?9?9?9?9?9?9?9?9?9@ 004aca48     RTPInterface.obj
 0005:00001a74       ??_C@_0CJ@PGLG@turnOffBackgroundReadHandling?5so@ 004aca74     RTPInterface.obj
 0005:00001aa0       ??_C@_07BEDM@c?5is?5$?6?$AA@ 004acaa0     RTPInterface.obj
 0005:00001aa8       ??_C@_0EB@IIEF@socketDescriptor?9?$DOfServerRequest@ 004acaa8     RTPInterface.obj
 0005:00001aec       ??_C@_0CM@OGFL@?$CL?$CL?$CL?$CL?$CL?$CL?$CL?$CL?$CL?$CL?$CL?$CL?$CL?$CL?$CL?$CL?$CL?$CL?$CL?$CL?$CL?$CL?$CL?$CL?$CL?$CL?$CL?$CL?$CL?$CL?$CL?$CL@ 004acaec     RTPInterface.obj
 0005:00001b18       ??_C@_0BD@FLLK@?5is?5not?5a?5RTP?5sink?$AA@ 004acb18     RTPSink.obj
 0005:00001b2c       ??_C@_03NMFM@?$DP?$DP?$DP?$AA@ 004acb2c     RTPSink.obj
 0005:00001b30       ??_C@_04OMKF@data?$AA@     004acb30     RTPSink.obj
 0005:00001b38       ??_C@_0BG@GFCG@a?$DNrtpmap?3?$CFd?5?$CFs?1?$CFd?$CFs?$AN?6?$AA@ 004acb38     RTPSink.obj
 0005:00001b50       ??_C@_03KICP@?1?$CFd?$AA@  004acb50     RTPSink.obj
 0005:00001b54       ??_C@_0BF@DDLH@?5is?5not?5a?5RTP?5source?$AA@ 004acb54     RTPSource.obj
 0005:00001b6c       ??_C@_09HFHN@Challenge?$AA@ 004acb6c     RTSPCommon.obj
 0005:00001b78       ??_C@_0P@MJAN@Content?9Length?$AA@ 004acb78     RTSPCommon.obj
 0005:00001b88       ??_C@_0P@HNAJ@Content?9length?$AA@ 004acb88     RTSPCommon.obj
 0005:00001b98       ??_C@_0N@HKBC@Content?9Type?$AA@ 004acb98     RTSPCommon.obj
 0005:00001ba8       ??_C@_0N@NAFA@Content?9type?$AA@ 004acba8     RTSPCommon.obj
 0005:00001bb8       ??_C@_08MPDD@RTSP?11?40?$AA@ 004acbb8     RTSPCommon.obj
 0005:00001bc4       ??_C@_0P@NENO@Cache?9Control?3?$AA@ 004acbc4     RTSPCommon.obj
 0005:00001bd4       ??_C@_07JGAC@Pragma?3?$AA@ 004acbd4     RTSPCommon.obj
 0005:00001bdc       ??_C@_0BB@IGJB@x?9sessioncookie?3?$AA@ 004acbdc     RTSPCommon.obj
 0005:00001bf0       ??_C@_0O@CHM@Content?9Type?3?$AA@ 004acbf0     RTSPCommon.obj
 0005:00001c00       ??_C@_04PHMF@POST?$AA@     004acc00     RTSPCommon.obj
 0005:00001c08       ??_C@_07BJLL@Accept?3?$AA@ 004acc08     RTSPCommon.obj
 0005:00001c10       ??_C@_0M@CMJP@npt?5?$DN?5?$CFlf?5?9?$AA@ 004acc10     RTSPCommon.obj
 0005:00001c1c       ??_C@_0BA@HGAA@npt?5?$DN?5?$CFlf?5?9?5?$CFlf?$AA@ 004acc1c     RTSPCommon.obj
 0005:00001c2c       ??_C@_01FKHJ@C?$AA@        004acc2c     RTSPCommon.obj
 0005:00001c30       ??_C@_07DIOP@Range?3?5?$AA@ 004acc30     RTSPCommon.obj
 0005:00001c38       ??_C@_0BC@DJOH@interleaved?$DN?$CFu?9?$CFu?$AA@ 004acc38     RTSPCommon.obj
 0005:00001c4c       ??_C@_0BA@KDJP@client_port?$DN?$CFhu?$AA@ 004acc4c     RTSPCommon.obj
 0005:00001c5c       ??_C@_0BE@LIOH@client_port?$DN?$CFhu?9?$CFhu?$AA@ 004acc5c     RTSPCommon.obj
 0005:00001c70       ??_C@_05GJMJ@ttl?$CFu?$AA@ 004acc70     RTSPCommon.obj
 0005:00001c78       ??_C@_0N@HPFG@destination?$DN?$AA@ 004acc78     RTSPCommon.obj
 0005:00001c88       ??_C@_0P@OAEB@MP2T?1H2221?1UDP?$AA@ 004acc88     RTSPCommon.obj
 0005:00001c98       ??_C@_0M@FLEJ@RAW?1RAW?1UDP?$AA@ 004acc98     RTSPCommon.obj
 0005:00001ca4       ??_C@_0M@CDGB@RTP?1AVP?1TCP?$AA@ 004acca4     RTSPCommon.obj
 0005:00001cb0       ??_C@_05NBEJ@?$CF?$FL?$FO?$DL?$FN?$AA@ 004accb0     RTSPCommon.obj
 0005:00001cb8       ??_C@_0M@JBOE@Transport?3?5?$AA@ 004accb8     RTSPCommon.obj
 0005:00001cc4       ??_C@_0L@OCO@x?9playNow?3?$AA@ 004accc4     RTSPCommon.obj
 0005:00001cd4       ??_C@_01PKAG@?3?$AA@       004accd4     RTSPEncoderSession.obj
 0005:00001cd8       ??_C@_01KPOD@?$DN?$AA@     004accd8     RTSPEncoderSession.obj
 0005:00001cdc       ??_C@_04FGNA@?$AN?6?$AN?6?$AA@ 004accdc     RTSPEncoderSession.obj
 0005:00001ce4       ??_C@_0O@OEGL@SET_PARAMETER?$AA@ 004acce4     RTSPEncoderSession.obj
 0005:00001cf4       ??_C@_0O@LHAC@GET_PARAMETER?$AA@ 004accf4     RTSPEncoderSession.obj
 0005:00001d04       ??_C@_05JKKC@PAUSE?$AA@    004acd04     RTSPEncoderSession.obj
 0005:00001d0c       ??_C@_04BCHB@PLAY?$AA@     004acd0c     RTSPEncoderSession.obj
 0005:00001d14       ??_C@_08OLFP@TEARDOWN?$AA@ 004acd14     RTSPEncoderSession.obj
 0005:00001d20       ??_C@_05GDNH@SETUP?$AA@    004acd20     RTSPEncoderSession.obj
 0005:00001d28       ??_C@_08FBJG@DESCRIBE?$AA@ 004acd28     RTSPEncoderSession.obj
 0005:00001d34       ??_C@_07MKIM@OPTIONS?$AA@  004acd34     RTSPEncoderSession.obj
 0005:00001d3c       ??_C@_0M@JLNC@Bad?5Request?$AA@ 004acd3c     RTSPEncoderSession.obj
 0005:00001d48       ??_C@_03GPIO@400?$AA@      004acd48     RTSPEncoderSession.obj
 0005:00001d4c       ??_C@_0N@CADL@Unauthorized?$AA@ 004acd4c     RTSPEncoderSession.obj
 0005:00001d5c       ??_C@_03MFBJ@401?$AA@      004acd5c     RTSPEncoderSession.obj
 0005:00001d60       ??_C@_09PIMA@See?5Other?$AA@ 004acd60     RTSPEncoderSession.obj
 0005:00001d6c       ??_C@_03COFG@303?$AA@      004acd6c     RTSPEncoderSession.obj
 0005:00001d70       ??_C@_0BD@LCGG@application?1serial?$AA@ 004acd70     RTSPEncoderSession.obj
 0005:00001d84       ??_C@_03IDPJ@200?$AA@      004acd84     RTSPEncoderSession.obj
 0005:00001d88       ??_C@_01FBAH@1?$AA@        004acd88     RTSPEncoderSession.obj
 0005:00001d8c       ??_C@_09KDKF@Location?3?$AA@ 004acd8c     RTSPEncoderSession.obj
 0005:00001d98       ??_C@_0EE@EFCA@RTSP?11?40?5404?5File?5Not?5Found?0?5Or?5@ 004acd98     RTSPEncoderSession.obj
 0005:00001ddc       ??_C@_0GI@JODP@RTSP?11?40?5200?5OK?$AN?6CSeq?3?5?$CFs?$AN?6?$CFsCon@ 004acddc     RTSPEncoderSession.obj
 0005:00001e44       ??_C@_0GL@BHLP@RTSP?11?40?5200?5OK?$AN?6CSeq?3?5?$CFs?$AN?6?$CFsCon@ 004ace44     RTSPEncoderSession.obj
 0005:00001eb0       ??_C@_0II@HHAL@RTSP?11?40?5200?5OK?$AN?6CSeq?3?5?$CFs?$AN?6?$CFsTra@ 004aceb0     RTSPEncoderSession.obj
 0005:00001f38       ??_C@_0HK@CODH@RTSP?11?40?5200?5OK?$AN?6CSeq?3?5?$CFs?$AN?6?$CFsTra@ 004acf38     RTSPEncoderSession.obj
 0005:00001fb4       ??_C@_0HN@HGBB@RTSP?11?40?5200?5OK?$AN?6CSeq?3?5?$CFs?$AN?6?$CFsTra@ 004acfb4     RTSPEncoderSession.obj
 0005:00002034       ??_C@_0HI@HFAO@RTSP?11?40?5200?5OK?$AN?6CSeq?3?5?$CFs?$AN?6?$CFsTra@ 004ad034     RTSPEncoderSession.obj
 0005:000020ac       ??_C@_0HA@DJNO@RTSP?11?40?5200?5OK?$AN?6CSeq?3?5?$CFs?$AN?6?$CFsTra@ 004ad0ac     RTSPEncoderSession.obj
 0005:0000211c       ??_C@_0CA@HBNE@RTSP?11?40?5200?5OK?$AN?6CSeq?3?5?$CFs?$AN?6?$CFs?$AN?6?$AA@ 004ad11c     RTSPEncoderSession.obj
 0005:0000213c       ??_C@_0DF@CEEJ@RTSP?11?40?5200?5OK?$AN?6CSeq?3?5?$CFs?$AN?6?$CFs?$CFs?$CF@ 004ad13c     RTSPEncoderSession.obj
 0005:00002174       ??_C@_01KMAE@?0?$AA@       004ad174     RTSPEncoderSession.obj
 0005:00002178       ??_C@_0L@DGDE@RTP?9Info?3?5?$AA@ 004ad178     RTSPEncoderSession.obj
 0005:00002184       ??_C@_0CA@KHCH@?$CFs?$CFsurl?$DN?$CFs?1?$CFs?$DLseq?$DN?$CFd?$DLrtptime?$DN?$CFu?$AA@ 004ad184     RTSPEncoderSession.obj
 0005:000021a4       ??_C@_0BH@MDCK@Range?3?5npt?$DN?$CF?43f?9?$CF?43f?$AN?6?$AA@ 004ad1a4     RTSPEncoderSession.obj
 0005:000021bc       ??_C@_0BD@HCAP@Range?3?5npt?$DN?$CF?43f?9?$AN?6?$AA@ 004ad1bc     RTSPEncoderSession.obj
 0005:000021d0       ??_C@_0M@JMJO@Scale?3?5?$CFf?$AN?6?$AA@ 004ad1d0     RTSPEncoderSession.obj
 0005:000021dc       ??_C@_06KPLO@clock?$DN?$AA@ 004ad1dc     RTSPEncoderSession.obj
 0005:000021e4       ??_C@_06KAFM@magic?3?$AA@  004ad1e4     RTSPEncoderSession.obj
 0005:000021ec       ??_C@_0BA@JFNO@handleCmd_PLAY?6?$AA@ 004ad1ec     RTSPEncoderSession.obj
 0005:000021fc       ??_C@_0CP@JIKK@RTSP?11?40?5200?5OK?$AN?6CSeq?3?5?$CFs?$AN?6?$CFsSes@ 004ad1fc     RTSPEncoderSession.obj
 0005:0000222c       ??_C@_0BB@BJMM@handleCmd_PAUSE?6?$AA@ 004ad22c     RTSPEncoderSession.obj
 0005:00002240       ??_C@_0IN@PCNH@RTSP?11?40?5200?5OK?$AN?6CSeq?3?5?$CFs?$AN?6Conte@ 004ad240     RTSPEncoderSession.obj
 0005:000022d0       ??_C@_06JBPC@index?$DN?$AA@ 004ad2d0     RTSPEncoderSession.obj
 0005:000022d8       ??_C@_09EIJE@pagesize?$DN?$AA@ 004ad2d8     RTSPEncoderSession.obj
 0005:000022e4       ??_C@_0M@BEEO@List?9Param?3?$AA@ 004ad2e4     RTSPEncoderSession.obj
 0005:000022f0       ??_C@_08DKPP@Session?3?$AA@ 004ad2f0     RTSPEncoderSession.obj
 0005:000022fc       ??_C@_0M@MBEF@User?9Agent?3?$AA@ 004ad2fc     RTSPEncoderSession.obj
 0005:00002308       ??_C@_0IO@GDPN@RTSP?11?40?5200?5OK?$AN?6CSeq?3?5?$CFs?$AN?6Conte@ 004ad308     RTSPEncoderSession.obj
 0005:00002398       ??_C@_0BF@EBIC@application?1listfile?$AA@ 004ad398     RTSPEncoderSession.obj
 0005:000023b0       ??_C@_0BE@MPJA@application?1listdir?$AA@ 004ad3b0     RTSPEncoderSession.obj
 0005:000023c4       ??_C@_04JPPJ@stop?$AA@     004ad3c4     RTSPEncoderSession.obj
 0005:000023cc       ??_C@_04JOEF@auto?$AA@     004ad3cc     RTSPEncoderSession.obj
 0005:000023d4       ??_C@_04KKMF@down?$AA@     004ad3d4     RTSPEncoderSession.obj
 0005:000023dc       ??_C@_02HAO@up?$AA@        004ad3dc     RTSPEncoderSession.obj
 0005:000023e0       ??_C@_05PJFF@right?$AA@    004ad3e0     RTSPEncoderSession.obj
 0005:000023e8       ??_C@_04GACI@left?$AA@     004ad3e8     RTSPEncoderSession.obj
 0005:000023f0       ??_C@_08KNLL@lightoff?$AA@ 004ad3f0     RTSPEncoderSession.obj
 0005:000023fc       ??_C@_07LNIL@lighton?$AA@  004ad3fc     RTSPEncoderSession.obj
 0005:00002404       ??_C@_08PKEB@wiperoff?$AA@ 004ad404     RTSPEncoderSession.obj
 0005:00002410       ??_C@_07EHJA@wiperon?$AA@  004ad410     RTSPEncoderSession.obj
 0005:00002418       ??_C@_0P@FIDI@irisclose?5stop?$AA@ 004ad418     RTSPEncoderSession.obj
 0005:00002428       ??_C@_0O@DIKD@irisopen?5stop?$AA@ 004ad428     RTSPEncoderSession.obj
 0005:00002438       ??_C@_0O@OLOI@zoomwide?5stop?$AA@ 004ad438     RTSPEncoderSession.obj
 0005:00002448       ??_C@_0O@LIFD@zoomtele?5stop?$AA@ 004ad448     RTSPEncoderSession.obj
 0005:00002458       ??_C@_0P@NGEB@focusnear?5stop?$AA@ 004ad458     RTSPEncoderSession.obj
 0005:00002468       ??_C@_0O@NJKF@focusfar?5stop?$AA@ 004ad468     RTSPEncoderSession.obj
 0005:00002478       ??_C@_08GPEE@autostop?$AA@ 004ad478     RTSPEncoderSession.obj
 0005:00002484       ??_C@_09KFBF@down?5stop?$AA@ 004ad484     RTSPEncoderSession.obj
 0005:00002490       ??_C@_07BHBJ@up?5stop?$AA@ 004ad490     RTSPEncoderSession.obj
 0005:00002498       ??_C@_0L@FOGP@right?5stop?$AA@ 004ad498     RTSPEncoderSession.obj
 0005:000024a4       ??_C@_09HNPB@left?5stop?$AA@ 004ad4a4     RTSPEncoderSession.obj
 0005:000024b0       ??_C@_06MPPF@Speed?3?$AA@  004ad4b0     RTSPEncoderSession.obj
 0005:000024b8       ??_C@_07OLGO@action?3?$AA@ 004ad4b8     RTSPEncoderSession.obj
 0005:000024c0       ??_C@_03ODB@arm?$AA@       004ad4c0     RTSPEncoderSession.obj
 0005:000024c4       ??_C@_0L@IDIJ@stop?9alarm?$AA@ 004ad4c4     RTSPEncoderSession.obj
 0005:000024d0       ??_C@_0N@EAMH@active?9alarm?$AA@ 004ad4d0     RTSPEncoderSession.obj
 0005:000024e0       ??_C@_08IIFF@zone?9arm?$AA@ 004ad4e0     RTSPEncoderSession.obj
 0005:000024ec       ??_C@_06OMFN@disarm?$AA@   004ad4ec     RTSPEncoderSession.obj
 0005:000024f4       ??_C@_06OJOP@scene?3?$AA@  004ad4f4     RTSPEncoderSession.obj
 0005:000024fc       ??_C@_0EM@FKIH@RTSP?11?40?5200?5OK?$AN?6CSeq?3?5?$CFs?$AN?6Conte@ 004ad4fc     RTSPEncoderSession.obj
 0005:00002548       ??_C@_0BL@PLAA@application?1upgrade?9status?$AA@ 004ad548     RTSPEncoderSession.obj
 0005:00002564       ??_C@_0N@BAHJ@stop_recode?3?$AA@ 004ad564     RTSPEncoderSession.obj
 0005:00002574       ??_C@_0O@FBNC@start_recode?3?$AA@ 004ad574     RTSPEncoderSession.obj
 0005:00002584       ??_C@_0BA@MPAF@application?1ptz?$AA@ 004ad584     RTSPEncoderSession.obj
 0005:00002594       ??_C@_07POBF@camera?3?$AA@ 004ad594     RTSPEncoderSession.obj
 0005:0000259c       ??_C@_0P@JAED@text?1parameter?$AA@ 004ad59c     RTSPEncoderSession.obj
 0005:000025ac       ??_C@_05NGOJ@reset?$AA@    004ad5ac     RTSPEncoderSession.obj
 0005:000025b4       ??_C@_0BE@LLEN@application?1command?$AA@ 004ad5b4     RTSPEncoderSession.obj
 0005:000025c8       ??_C@_0BJ@PPDC@Challenge?9Response?3?5?$CFs?$AN?6?$AA@ 004ad5c8     RTSPEncoderSession.obj
 0005:000025e4       ??_C@_0BF@BJIB@Content?9length?3?5?$CFd?$AN?6?$AA@ 004ad5e4     RTSPEncoderSession.obj
 0005:000025fc       ??_C@_0CA@MFAI@Content?9type?3?5application?1sdp?$AN?6?$AA@ 004ad5fc     RTSPEncoderSession.obj
 0005:0000261c       ??_C@_0BB@BFLE@User?9Agent?3?5?$CFs?$AN?6?$AA@ 004ad61c     RTSPEncoderSession.obj
 0005:00002630       ??_C@_0L@EHCH@CSeq?3?5?$CFd?$AN?6?$AA@ 004ad630     RTSPEncoderSession.obj
 0005:0000263c       ??_C@_0BH@GJB@ANNOUNCE?5?$CFs?5RTSP?11?40?$AN?6?$AA@ 004ad63c     RTSPEncoderSession.obj
 0005:00002654       ??_C@_0BJ@KDCA@rtsp?3?1?1?$CFs?3?$CFd?1?$CFs?1?$CFd?1?$CFs?1?$CFs?$AA@ 004ad654     RTSPEncoderSession.obj
 0005:00002670       ??_C@_0BA@DPOA@Session?3?5?$CFd?$AN?6?$AN?6?$AA@ 004ad670     RTSPEncoderSession.obj
 0005:00002680       ??_C@_0BF@KENA@Content?9Length?3?5?$CFd?$AN?6?$AA@ 004ad680     RTSPEncoderSession.obj
 0005:00002698       ??_C@_0BD@NPMJ@Content?9Type?3?5?$CFs?$AN?6?$AA@ 004ad698     RTSPEncoderSession.obj
 0005:000026ac       ??_C@_0BC@CCDE@application?1alarm?$AA@ 004ad6ac     RTSPEncoderSession.obj
 0005:000026c0       ??_C@_0L@LKOG@vcover?$CFd?$AN?6?$AA@ 004ad6c0     RTSPEncoderSession.obj
 0005:000026cc       ??_C@_09GNII@vloss?$CFd?$AN?6?$AA@ 004ad6cc     RTSPEncoderSession.obj
 0005:000026d8       ??_C@_0L@PJKN@motion?$CFd?$AN?6?$AA@ 004ad6d8     RTSPEncoderSession.obj
 0005:000026e4       ??_C@_07IIJC@din?$CFd?$AN?6?$AA@ 004ad6e4     RTSPEncoderSession.obj
 0005:000026ec       ??_C@_0DB@JNMF@rtsp?3?1?1?$CFs?3?$CFd?1?$CFs?1?$CFd?1MAC?$DN?$CFs?1?$CFs?1ver@ 004ad6ec     RTSPEncoderSession.obj
 0005:00002720       ??_C@_03HHFH@1?41?$AA@     004ad720     RTSPEncoderSession.obj
 0005:00002724       ??_C@_08DJHO@?$CFd?9?$CFd?9?$CFd?$AA@ 004ad724     RTSPEncoderSession.obj
 0005:00002730       ??_C@_0DP@BPNM@abcdefghijklmnopqrstuvwxyzABCDEF@ 004ad730     RTSPEncoderSession.obj
 0005:00002774       ??_C@_08HDL@GET?0?5PUT?$AA@ 004ad774     RTSPOverHTTPServer.obj
 0005:00002780       ??_C@_0BC@EJDM@listen?$CI?$CJ?5failed?3?5?$AA@ 004ad780     RTSPOverHTTPServer.obj
 0005:00002794       ??_C@_0BP@ELGB@accept?$CI?$CJed?5connection?5from?5?$CFs?6?$AA@ 004ad794     RTSPOverHTTPServer.obj
 0005:000027b4       ??_C@_0BC@GGGL@accept?$CI?$CJ?5failed?3?5?$AA@ 004ad7b4     RTSPOverHTTPServer.obj
 0005:000027c8       ??_C@_0GE@IIOH@HTTPClientConnection?$FL?$CFp?$FN?3?3incomi@ 004ad7c8     RTSPOverHTTPServer.obj
 0005:0000282c       ??_C@_0BF@GNCI@sending?5response?3?5?$CFs?$AA@ 004ad82c     RTSPOverHTTPServer.obj
 0005:00002844       ??_C@_0GN@OFGD@parseHTTPRTSPRequestString?$CI?$CJ?5ret@ 004ad844     RTSPOverHTTPServer.obj
 0005:000028b4       ??_C@_0CG@KCDN@parseHTTPRTSPRequestString?$CI?$CJ?5fai@ 004ad8b4     RTSPOverHTTPServer.obj
 0005:000028dc       ??_C@_0EG@OFMB@HTTPClientConnection?$FL?$CFp?$FN?3?3incomi@ 004ad8dc     RTSPOverHTTPServer.obj
 0005:00002924       ??_C@_0CI@OBDJ@HTTP?11?41?5400?5Bad?5Request?$AN?6Allow?3@ 004ad924     RTSPOverHTTPServer.obj
 0005:0000294c       ?temp_key@@3PADA           004ad94c     RTSPSdk.obj
 0005:00002a50       ??_C@_0O@LHDM@219?4235?4235?43?$AA@ 004ada50     RTSPSdk.obj
 0005:00002a60       ??_C@_0P@JAGO@YingHe?9SDK?51?40?$AA@ 004ada60     RTSPSdk.obj
 0005:00002a70       ??_C@_0L@MGB@path?5?$DN?5?$CFs?6?$AA@ 004ada70     RTSPSdk.obj
 0005:00002a7c       ??_C@_0BL@CNOF@challenge?1?1challenge?$CFd?4ini?$AA@ 004ada7c     RTSPSdk.obj
 0005:00002a98       ??_C@_0BN@MPBL@?$AA?$AA?$AB?$LA?$AB?$AA?$AA?$AB?$LF?7?$AA?$AA?$AB?$AB?$AA?$AA?$AB?5?$AA?$IE?$EA?z?$CI?$LE?$CC?$EA?$KD?$BP?$AA@ 004ada98     RTSPSdk.obj
 0005:00002ab8       ??_C@_0BN@IOAF@?$AA?$AA?$AB?$LA?$AI?$AA?$AA?$AB?$LF?7?$AA?$AA?$AB?$AA?$AA?$AA?$AB?5?$AA?$IE?$EA?$AGh?0?5?$JA?$KD?$BP?$AA@ 004adab8     RTSPSdk.obj
 0005:00002ad8       ??_C@_0BN@DOCH@?$AA?$AA?$AB?$LA?$AI?$AA?$AA?$AB?$LF?7?$AA?$AA?$AB?$AA?$AA?$AA?$AB?5?$AA?$IE?$EA?z?$CIX?$CB?5?$KD?$BP?$AA@ 004adad8     RTSPSdk.obj
 0005:00002af8       ??_C@_06GKFE@?$CFs?$CFs?$AN?6?$AA@ 004adaf8     RTSPSdk.obj
 0005:00002b00       ??_C@_0M@LDGO@LanWebURL?3?5?$AA@ 004adb00     RTSPSdk.obj
 0005:00002b0c       ??_C@_0BJ@EKDI@http?3?1?1192?4168?410?4103?380?$AA@ 004adb0c     RTSPSdk.obj
 0005:00002b28       ??_C@_0M@HAHM@WanWebURL?3?5?$AA@ 004adb28     RTSPSdk.obj
 0005:00002b34       ??_C@_0BC@GADB@http?3?1?1?$FLWANIP?$FN?380?$AA@ 004adb34     RTSPSdk.obj
 0005:00002b48       ??_C@_0M@NBGM@P2PLanURL?3?5?$AA@ 004adb48     RTSPSdk.obj
 0005:00002b54       ??_C@_0CA@CIGJ@rtsp?3?1?1192?4168?410?4103?38554?1live?$AA@ 004adb54     RTSPSdk.obj
 0005:00002b74       ??_C@_0M@MKIC@P2PWanURL?3?5?$AA@ 004adb74     RTSPSdk.obj
 0005:00002b80       ??_C@_0CD@CJAM@rtsp?3?1?1?$FLWANIP?$FN?38150?1live_video?4s@ 004adb80     RTSPSdk.obj
 0005:00002ba4       ??_C@_0M@MPCE@LanFtpURL?3?5?$AA@ 004adba4     RTSPSdk.obj
 0005:00002bb0       ??_C@_0BI@PBCB@ftp?3?1?1192?4168?410?4103?321?$AA@ 004adbb0     RTSPSdk.obj
 0005:00002bc8       ??_C@_0M@MDG@WanFtpURL?3?5?$AA@ 004adbc8     RTSPSdk.obj
 0005:00002bd4       ??_C@_0BK@FAKA@ftp?3?1?1192?4168?410?4102?33011?$AA@ 004adbd4     RTSPSdk.obj
 0005:00002bf0       ??_C@_0P@MLDP@LanVoiceAddr?3?5?$AA@ 004adbf0     RTSPSdk.obj
 0005:00002c00       ??_C@_0BE@PGHM@192?4168?410?4103?38000?$AA@ 004adc00     RTSPSdk.obj
 0005:00002c14       ??_C@_0P@CMFB@WanVoiceAddr?3?5?$AA@ 004adc14     RTSPSdk.obj
 0005:00002c24       ??_C@_0BF@LALM@192?4168?410?4102?315400?$AA@ 004adc24     RTSPSdk.obj
 0005:00002c3c       ??_C@_0O@OJDD@LanDataAddr?3?5?$AA@ 004adc3c     RTSPSdk.obj
 0005:00002c4c       ??_C@_0O@IHDE@WanDataAddr?3?5?$AA@ 004adc4c     RTSPSdk.obj
 0005:00002c5c       ??_C@_0BF@BKCL@192?4168?410?4102?315401?$AA@ 004adc5c     RTSPSdk.obj
 0005:00002c74       ??_C@_05LELA@?$CFs?1?$CFs?$AA@ 004adc74     RTSPSdk.obj
 0005:00002c7c       ??_C@_0P@HKJO@?4?4?1?4?4?1IPCamera?$AA@ 004adc7c     RTSPSdk.obj
 0005:00002c8c       ??_C@_03EKEN@?4d1?$AA@     004adc8c     RTSPSdk.obj
 0005:00002c90       ??_C@_04LKCB@?4cif?$AA@    004adc90     RTSPSdk.obj
 0005:00002c98       ??_C@_04KHGH@?4qcf?$AA@    004adc98     RTSPSdk.obj
 0005:00002ca4       ??_C@_0EO@JALN@OPTIONS?0?5DESCRIBE?0?5SETUP?0?5TEARDO@ 004adca4     RTSPServer.obj
 0005:00002cf4       ??_C@_0BG@LEHH@?5is?5not?5a?5RTSP?5server?$AA@ 004adcf4     RTSPServer.obj
 0005:00002d0c       ??_C@_0P@DIKD@rtsp?3?1?1?$CFs?3?$CFhu?1?$AA@ 004add0c     RTSPServer.obj
 0005:00002d1c       ??_C@_0L@IFGI@rtsp?3?1?1?$CFs?1?$AA@ 004add1c     RTSPServer.obj
 0005:00002d28       ??_C@_04DCMN@?$CFs?$CFs?$AA@ 004add28     RTSPServer.obj
 0005:00002d30       ??_C@_0CM@FACF@RTSPClientSession?3?3incomingReque@ 004add30     RTSPServer.obj
 0005:00002d5c       ??_C@_0GM@ICJA@parseRTSPRequestString?$CI?$CJ?5returne@ 004add5c     RTSPServer.obj
 0005:00002dc8       ??_C@_0GF@EFPD@HTTP?11?40?5200?5OK?$AN?6Server?3?5?$CFs?$AN?6Con@ 004addc8     RTSPServer.obj
 0005:00002e30       ??_C@_0BN@KOIE@application?1x?9rtsp?9tunnelled?$AA@ 004ade30     RTSPServer.obj
 0005:00002e50       ??_C@_0CC@LLHD@Date?3?5?$CFa?0?5?$CFb?5?$CFd?5?$CFY?5?$CFH?3?$CFM?3?$CFS?5GMT?$AN@ 004ade50     RTSPServer.obj
 0005:00002e74       ??_C@_0CK@EDG@RTSP?11?40?5400?5Bad?5Request?$AN?6?$CFsAllo@ 004ade74     RTSPServer.obj
 0005:00002ea0       ??_C@_0DL@MEON@RTSP?11?40?5405?5Method?5Not?5Allowed?$AN@ 004adea0     RTSPServer.obj
 0005:00002edc       ??_C@_0CO@HNEK@RTSP?11?40?5404?5Stream?5Not?5Found?$AN?6C@ 004adedc     RTSPServer.obj
 0005:00002f0c       ??_C@_0DD@LGFN@RTSP?11?40?5461?5Unsupported?5Transpo@ 004adf0c     RTSPServer.obj
 0005:00002f40       ??_C@_0CM@NFPF@RTSP?11?40?5200?5OK?$AN?6CSeq?3?5?$CFs?$AN?6?$CFsPub@ 004adf40     RTSPServer.obj
 0005:00002f6c       ??_C@_0BF@KOLI@server?5media?5session?$AA@ 004adf6c     RTSPServer.obj
 0005:00002f84       ??_C@_07BJIM@Scale?3?5?$AA@ 004adf84     RTSPServer.obj
 0005:00002f8c       ??_C@_0FL@DABF@RTSP?11?40?5401?5Unauthorized?$AN?6CSeq?3@ 004adf8c     RTSPServer.obj
 0005:00002fe8       ??_C@_0CK@GLML@RTSP?11?40?5401?5Unauthorized?$AN?6CSeq?3@ 004adfe8     RTSPServer.obj
 0005:00003014       ??_C@_08IEIG@response?$AA@ 004ae014     RTSPServer.obj
 0005:00003020       ??_C@_03MNFN@uri?$AA@      004ae020     RTSPServer.obj
 0005:00003024       ??_C@_05OKLM@nonce?$AA@    004ae024     RTSPServer.obj
 0005:0000302c       ??_C@_05KHAP@realm?$AA@    004ae02c     RTSPServer.obj
 0005:00003034       ??_C@_08LGGE@username?$AA@ 004ae034     RTSPServer.obj
 0005:00003040       ??_C@_08GOGJ@?$CF?$FL?$FO?$DN?$FN?$DN?$CC?$CC?$AA@ 004ae040     RTSPServer.obj
 0005:0000304c       ??_C@_0O@FBND@?$CF?$FL?$FO?$DN?$FN?$DN?$CC?$CF?$FL?$FO?$CC?$FN?$CC?$AA@ 004ae04c     RTSPServer.obj
 0005:0000305c       ??_C@_0BH@KGGI@Authorization?3?5Digest?5?$AA@ 004ae05c     RTSPServer.obj
 0005:00003074       ??_C@_0BI@JPDO@LIVE555?5Streaming?5Media?$AA@ 004ae074     RTSPServer.obj
 0005:0000308c       ??_C@_0L@GNA@2010?405?429?$AA@ 004ae08c     ServerMediaSession.obj
 0005:00003098       ??_C@_0BK@LKBA@LIVE555?5Streaming?5Media?5v?$AA@ 004ae098     ServerMediaSession.obj
 0005:000030b4       ??_C@_0CG@LFLO@?5is?5not?5a?5?8ServerMediaSession?8?5o@ 004ae0b4     ServerMediaSession.obj
 0005:000030dc       ??_C@_0EM@EBKK@v?$DN0?$AN?6o?$DN?9?5?$CFld?$CF06ld?5?$CFd?5IN?5IP4?5?$CFs?$AN?6@ 004ae0dc     ServerMediaSession.obj
 0005:00003128       ??_C@_0BF@GCOG@a?$DNrange?3npt?$DN0?9?$CF?43f?$AN?6?$AA@ 004ae128     ServerMediaSession.obj
 0005:00003140       ??_C@_0BD@BLCK@a?$DNrange?3npt?$DNnow?9?$AN?6?$AA@ 004ae140     ServerMediaSession.obj
 0005:00003154       ??_C@_0EA@OKOH@a?$DNsource?9filter?3?5incl?5IN?5IP4?5?$CK?5?$CF@ 004ae154     ServerMediaSession.obj
 0005:00003194       ??_C@_0L@HJMD@trackID?$DN?$CFd?$AA@ 004ae194     ServerMediaSession.obj
 0005:000031a0       ??_C@_0BB@PEH@a?$DNrange?3npt?$DN0?9?$AN?6?$AA@ 004ae1a0     ServerMediaSession.obj
 0005:000031b4       ??_C@_02HHDK@?$CJ?6?$AA@   004ae1b4     StreamParser.obj
 0005:000031b8       ??_C@_03GNGF@?5?$DO?5?$AA@ 004ae1b8     StreamParser.obj
 0005:000031bc       ??_C@_02JBJ@?$CL?5?$AA@    004ae1bc     StreamParser.obj
 0005:000031c0       ??_C@_0BO@KGFC@StreamParser?5internal?5error?5?$CI?$AA@ 004ae1c0     StreamParser.obj
 0005:000031e0       ??_C@_0BP@BNK@?5bytes?$DL?5expected?5no?5more?5than?5?$AA@ 004ae1e0     StreamParser.obj
 0005:00003200       ??_C@_0DB@OHDH@StreamParser?3?3afterGettingBytes?$CI@ 004ae200     StreamParser.obj
 0005:00003234       ??_C@_05HENO@video?$AA@    004ae234     VideoRTPSink.obj
 0005:00003250       ??_C@_0L@GPGC@xvid?91?42?42?$AA@ 004ae250     libxvidcore:xvid.obj
 0005:0000325c       ??_C@_0CD@BEKF@?$CD?5Please?5do?5not?5modify?5this?5file@ 004ae25c     libxvidcore:plugin_2pass1.obj
 0005:00003280       ??_C@_0DA@ECPA@?$CD?5XviD?52pass?5stat?5file?5?$CIcore?5ver@ 004ae280     libxvidcore:plugin_2pass1.obj
 0005:000032b0       ??_C@_03KBID@w?$CLb?$AA@   004ae2b0     libxvidcore:plugin_2pass1.obj
 0005:000032b4       ??_C@_0BG@HMHC@?$CFc?5?$CFd?5?$CFd?5?$CFd?5?$CFd?5?$CFd?5?$CFd?6?$AA@ 004ae2b4     libxvidcore:plugin_2pass1.obj
 0005:000032cc       ??_C@_0DD@HHNE@?$FLxvid?5rc?$FN?5VBV?5compliant?5curve?5sc@ 004ae2cc     libxvidcore:plugin_2pass2.obj
 0005:00003300       ??_C@_0CN@MMN@?$FLxvid?5rc?$FN?5VBV?5compliant?5curve?5sc@ 004ae300     libxvidcore:plugin_2pass2.obj
 0005:00003330       ??_C@_0DO@KIOP@?$FLxvid?5rc?$FN?5Underflow?5detected?5?9?5S@ 004ae330     libxvidcore:plugin_2pass2.obj
 0005:00003370       ??_C@_0EF@MEAD@?$FLxvid?5rc?$FN?5?9?9?5New?5target?5filesize@ 004ae370     libxvidcore:plugin_2pass2.obj
 0005:000033b8       ??_C@_0CL@BPIN@?$FLxvid?5rc?$FN?5?9?9?5Container?5Frame?5ove@ 004ae3b8     libxvidcore:plugin_2pass2.obj
 0005:000033e4       ??_C@_0CE@DME@?$FLxvid?5rc?$FN?5?9?9?5Target?5filesize?3?5?$CFl@ 004ae3e4     libxvidcore:plugin_2pass2.obj
 0005:00003408       ??_C@_0CC@MIPP@?$FLxvid?5rc?$FN?5?9?9?5Target?5bitrate?3?5?$CFld@ 004ae408     libxvidcore:plugin_2pass2.obj
 0005:0000342c       ??_C@_0CD@EBBJ@?$FLxvid?5rc?$FN?5?9?9?5Number?5of?5frames?3?5?$CF@ 004ae42c     libxvidcore:plugin_2pass2.obj
 0005:00003450       ??_C@_0CI@HEPI@?$FLxvid?5rc?$FN?5?9?9?5Frame?5rate?3?5?$CFd?1?$CFd?5?$CI@ 004ae450     libxvidcore:plugin_2pass2.obj
 0005:00003478       ??_C@_0CF@CBNF@?$FLxvid?5rc?$FN?5?9?9?5ERROR?3?5fopen?5?$CFs?5fai@ 004ae478     libxvidcore:plugin_2pass2.obj
 0005:000034a0       ??_C@_0EO@GJNK@?$FLxvid?5rc?$FN?5?9?9?5frame?3?$CFd?5p?1b?9frame?5@ 004ae4a0     libxvidcore:plugin_2pass2.obj
 0005:000034f0       ??_C@_0EN@GOJB@?$FLxvid?5rc?$FN?5?9?9?5frame?5?$CFd?5p?1b?9frame?5@ 004ae4f0     libxvidcore:plugin_2pass2.obj
 0005:00003540       ??_C@_0DM@FONB@?$FLxvid?5rc?$FN?5?9?9?5stats?5file?5too?5shor@ 004ae540     libxvidcore:plugin_2pass2.obj
 0005:0000357c       ??_C@_0GH@JIDO@?$FLxvid?5rc?$FN?5?9?9?5frame?3?$CFd?5type?3?$CFc?5qu@ 004ae57c     libxvidcore:plugin_2pass2.obj
 0005:000035e4       ??_C@_0DJ@MDKA@?$FLxvid?5rc?$FN?5?9?9?5WARNING?3?5L?$CFd?5misses@ 004ae5e4     libxvidcore:plugin_2pass2.obj
 0005:00003620       ??_C@_0DJ@GIFB@?$FLxvid?5rc?$FN?5?9?9?5WARNING?3?5L?$CFd?5unknow@ 004ae620     libxvidcore:plugin_2pass2.obj
 0005:0000365c       ??_C@_0BJ@MJAO@?$CFc?5?$CFd?5?$CFd?5?$CFd?5?$CFd?5?$CFd?5?$CFd?5?$CFd?6?$AA@ 004ae65c     libxvidcore:plugin_2pass2.obj
 0005:00003678       ??_C@_0CN@GLMN@?$FLxvid?5rc?$FN?5?9?9?5Min?51st?5pass?5BFrame@ 004ae678     libxvidcore:plugin_2pass2.obj
 0005:000036a8       ??_C@_0CN@BPGH@?$FLxvid?5rc?$FN?5?9?9?5Min?51st?5pass?5PFrame@ 004ae6a8     libxvidcore:plugin_2pass2.obj
 0005:000036d8       ??_C@_0CN@PKHA@?$FLxvid?5rc?$FN?5?9?9?5Min?51st?5pass?5IFrame@ 004ae6d8     libxvidcore:plugin_2pass2.obj
 0005:00003708       ??_C@_0CI@IMLL@?$FLxvid?5rc?$FN?5?9?9?5Assymetric?5tax?5rati@ 004ae708     libxvidcore:plugin_2pass2.obj
 0005:00003730       ??_C@_0CK@PJJI@?$FLxvid?5rc?$FN?5?9?9?5IFrame?5boost?5tax?5ra@ 004ae730     libxvidcore:plugin_2pass2.obj
 0005:0000375c       ??_C@_0CJ@FDNP@?$FLxvid?5rc?$FN?5Minimum?5buffer?5fill?3?5?$CF@ 004ae75c     libxvidcore:plugin_2pass2.obj
 0005:00003788       ??_C@_0CE@ELMK@?$FLxvid?5rc?$FN?5Everything?5underflowin@ 004ae788     libxvidcore:plugin_2pass2.obj
 0005:000037ac       ??_C@_0EN@IFPI@?$FLxvid?5rc?$FN?5Moving?5?$CF?40f?5kB?5to?5avoi@ 004ae7ac     libxvidcore:plugin_2pass2.obj
 0005:000037fc       ??_C@_0DB@KDMC@?$FLxvid?5rc?$FN?5Scene?5?$CFd?5?$CIFrames?5?$CFd?9?$CFd@ 004ae7fc     libxvidcore:plugin_2pass2.obj
 0005:00003830       ??_C@_0BG@IMKN@target_framesize?3?5?$CFf?6?$AA@ 004ae830     libxvidcore:plugin_single.obj
 0005:00003848       ??_C@_0BD@BNFP@frame?5rate?5?5?5?3?5?$CFf?6?$AA@ 004ae848     libxvidcore:plugin_single.obj
 0005:0000385c       ??_C@_0BD@JMI@bytes_per_sec?3?5?$CFi?6?$AA@ 004ae85c     libxvidcore:plugin_single.obj
 0005:00003870       _xvid_QP_Funcs_C_ref       004ae870     libxvidcore:qpel.obj
 0005:000038a0       _xvid_QP_Add_Funcs_C_ref   004ae8a0     libxvidcore:qpel.obj
 0005:000038d0       _xvid_QP_Funcs_C           004ae8d0     libxvidcore:qpel.obj
 0005:00003900       _xvid_QP_Add_Funcs_C       004ae900     libxvidcore:qpel.obj
 0005:00003930       _xvid_QP_Funcs_mmx         004ae930     libxvidcore:qpel.obj
 0005:00003960       _xvid_QP_Add_Funcs_mmx     004ae960     libxvidcore:qpel.obj
 0005:00003990       _sprite_trajectory_len     004ae990     libxvidcore:mbcoding.obj
 0005:00003a08       _mcbpc_intra_tab           004aea08     libxvidcore:mbcoding.obj
 0005:00003a80       _mcbpc_inter_tab           004aea80     libxvidcore:mbcoding.obj
 0005:00003b68       ??_C@_0BH@MCIJ@codep?3?5field_pred?3?5?$CFi?6?$AA@ 004aeb68     libxvidcore:mbcoding.obj
 0005:00003b80       ??_C@_0BG@BNDD@codep?3?5field_dct?3?5?$CFi?6?$AA@ 004aeb80     libxvidcore:mbcoding.obj
 0005:00003b98       ??_C@_0BM@BCKD@fatal?3?5invalid?5run?5or?5index?$AA@ 004aeb98     libxvidcore:mbcoding.obj
 0005:00003bb4       ??_C@_0BM@GNMK@warning?3?5intra_overflow?5?$CFi?6?$AA@ 004aebb4     libxvidcore:mbcoding.obj
 0005:00003bd0       ??_C@_0O@FIIM@block?$FL?$CFi?$FN?5?$CFi?6?$AA@ 004aebd0     libxvidcore:mbcoding.obj
 0005:00003be0       ??_C@_0CB@BPLL@chroma_optimized_pixels?5?$DN?5?$CFi?1?$CFi?6@ 004aebe0     libxvidcore:image.obj
 0005:00003c04       ??_C@_0BE@LEJ@P5?6?$CDxvid?6?$CFi?5?$CFi?6255?6?$AA@ 004aec04     libxvidcore:image.obj
 0005:00003c18       ??_C@_02NGAF@wb?$AA@       004aec18     libxvidcore:image.obj
 0005:00003c1c       ??_C@_0BO@EPCB@broken?5b?9frame?0?5tpp?$DN?$CFi?5tbp?$DN?$CFi?$AA@ 004aec1c     libxvidcore:decoder.obj
 0005:00003c3c       ??_C@_0CC@MDGN@broken?5b?9frame?0?5mising?5ref?5frame@ 004aec3c     libxvidcore:decoder.obj
 0005:00003c60       ??_C@_0CM@PBKK@warning?3?5bvop?5found?5in?5low_delay@ 004aec60     libxvidcore:decoder.obj
 0005:00003c8c       ??_C@_0ED@LHNL@coding_type?$DN?$CFi?0?5?5packed?$DN?$CFi?0?5?5tim@ 004aec8c     libxvidcore:decoder.obj
 0005:00003cd0       ??_C@_0BF@PLJL@deci?3?5field_dct?3?5?$CFi?6?$AA@ 004aecd0     libxvidcore:decoder.obj
 0005:00003ce8       ??_C@_0BJ@NOJN@macroblock?5?$CI?$CFi?0?$CFi?$CJ?5?$CF08x?6?$AA@ 004aece8     libxvidcore:decoder.obj
 0005:00003d04       ??_C@_0N@GDLG@block?$FL0?$FN?5?$CFi?6?$AA@ 004aed04     libxvidcore:decoder.obj
 0005:00003d14       ??_C@_0BJ@CBLJ@decp?3?5field_for_bot?3?5?$CFi?6?$AA@ 004aed14     libxvidcore:decoder.obj
 0005:00003d30       ??_C@_0BJ@EFDH@decp?3?5field_for_top?3?5?$CFi?6?$AA@ 004aed30     libxvidcore:decoder.obj
 0005:00003d4c       ??_C@_0BG@COHI@decp?3?5field_pred?3?5?$CFi?6?$AA@ 004aed4c     libxvidcore:decoder.obj
 0005:00003d64       ??_C@_0BF@OMKI@decp?3?5field_dct?3?5?$CFi?6?$AA@ 004aed64     libxvidcore:decoder.obj
 0005:00003d7c       ??_C@_09CMDB@quant?5?$CFi?6?$AA@ 004aed7c     libxvidcore:decoder.obj
 0005:00003d88       ??_C@_0L@BLOD@dquant?5?$CFi?6?$AA@ 004aed88     libxvidcore:decoder.obj
 0005:00003d94       ??_C@_0BD@GPEK@cbpy?5?$CFi?5mcsel?5?$CFi?5?6?$AA@ 004aed94     libxvidcore:decoder.obj
 0005:00003da8       ??_C@_08LICJ@cbpc?5?$CFi?6?$AA@ 004aeda8     libxvidcore:decoder.obj
 0005:00003db4       ??_C@_08GFIJ@mode?5?$CFi?6?$AA@ 004aedb4     libxvidcore:decoder.obj
 0005:00003dc0       ??_C@_0CB@JOLF@mv?4y?5?$DM?5min?5?9?9?5?$CFd?5?$DM?5?$CFd?0?5MB?5?$CFd?0?5?$CFd@ 004aedc0     libxvidcore:decoder.obj
 0005:00003de4       ??_C@_0CB@PMOH@mv?4y?5?$DO?5max?5?9?9?5?$CFd?5?$DO?5?$CFd?0?5MB?5?$CFd?0?5?$CFd@ 004aede4     libxvidcore:decoder.obj
 0005:00003e08       ??_C@_0CB@GJEB@mv?4x?5?$DM?5min?5?9?9?5?$CFd?5?$DM?5?$CFd?0?5MB?5?$CFd?0?5?$CFd@ 004aee08     libxvidcore:decoder.obj
 0005:00003e2c       ??_C@_0CB@LBD@mv?4x?5?$DO?5max?5?9?9?5?$CFd?5?$DO?5?$CFd?0?5MB?5?$CFd?0?5?$CFd@ 004aee2c     libxvidcore:decoder.obj
 0005:00003e50       ??_C@_0CN@CLBJ@mv_diff?5?$CI?$CFi?0?$CFi?$CJ?5pred?5?$CI?$CFi?0?$CFi?$CJ?5res@ 004aee50     libxvidcore:decoder.obj
 0005:00003e80       ??_C@_0CE@BDLD@Not?5supported?5B?9frame?5mb_type?5?$DN?5@ 004aee80     libxvidcore:decoder.obj
 0005:00003ea4       ??_C@_08PFEI@?$CK?$CK?$CK?5END?6?$AA@ 004aeea4     libxvidcore:encoder.obj
 0005:00003eb0       ??_C@_0EB@FNCC@?$CK?$CK?$CK?5FINISH?5bf?3?5head?$DN?$CFi?5tail?$DN?$CFi?5?5@ 004aeeb0     libxvidcore:encoder.obj
 0005:00003ef4       ??_C@_0EA@IIJD@?$CK?$CK?$CK?5EMPTY?5bf?3?5head?$DN?$CFi?5tail?$DN?$CFi?5?5?5@ 004aeef4     libxvidcore:encoder.obj
 0005:00003f34       ??_C@_0EJ@IKPF@?$CK?$CK?$CK?5BFRAME?5?$CIflush?$CJ?5bf?3?5head?$DN?$CFi?5t@ 004aef34     libxvidcore:encoder.obj
 0005:00003f80       ??_C@_04GBOE@IVOP?$AA@     004aef80     libxvidcore:encoder.obj
 0005:00003f88       ??_C@_0EB@JALC@?$CK?$CK?$CK?5IFRAME?5bf?3?5head?$DN?$CFi?5tail?$DN?$CFi?5?5@ 004aef88     libxvidcore:encoder.obj
 0005:00003fcc       ??_C@_04DLAH@PVOP?$AA@     004aefcc     libxvidcore:encoder.obj
 0005:00003fd4       ??_C@_0EB@PEMP@?$CK?$CK?$CK?5PFRAME?5bf?3?5head?$DN?$CFi?5tail?$DN?$CFi?5?5@ 004aefd4     libxvidcore:encoder.obj
 0005:00004018       ??_C@_0BG@LJAC@CLOSED?5GOP?5BVOP?9?$DOPVOP?$AA@ 004af018     libxvidcore:encoder.obj
 0005:00004030       ??_C@_0EB@NIGE@?$CK?$CK?$CK?5XXXXXX?5bf?3?5head?$DN?$CFi?5tail?$DN?$CFi?5?5@ 004af030     libxvidcore:encoder.obj
 0005:00004074       ??_C@_0FD@OFBH@?$CK?$CK?$CK?5BFRAME?5?$CIstore?$CJ?5bf?3?5head?$DN?$CFi?5t@ 004af074     libxvidcore:encoder.obj
 0005:000040c8       ??_C@_04CEIC@BVOP?$AA@     004af0c8     libxvidcore:encoder.obj
 0005:000040d0       ??_C@_0BD@LDN@?$CFd?5?5st?3?$CFlld?5?5if?3?$CFd?$AA@ 004af0d0     libxvidcore:encoder.obj
 0005:000040f0       _xvid_Expand_mmx           004af0f0     libxvidcore:qpel_mmx.obj
 0005:000048f0       _xvid_FIR_1_0_0_0          004af8f0     libxvidcore:qpel_mmx.obj
 0005:000050f0       _xvid_FIR_3_1_0_0          004b00f0     libxvidcore:qpel_mmx.obj
 0005:000058f0       _xvid_FIR_6_3_1_0          004b08f0     libxvidcore:qpel_mmx.obj
 0005:000060f0       _xvid_FIR_14_3_2_1         004b10f0     libxvidcore:qpel_mmx.obj
 0005:000068f0       _xvid_FIR_20_6_3_1         004b18f0     libxvidcore:qpel_mmx.obj
 0005:000070f0       _xvid_FIR_20_20_6_3        004b20f0     libxvidcore:qpel_mmx.obj
 0005:000078f0       _xvid_FIR_23_19_6_3        004b28f0     libxvidcore:qpel_mmx.obj
 0005:000080f0       _xvid_FIR_7_20_20_6        004b30f0     libxvidcore:qpel_mmx.obj
 0005:000088f0       _xvid_FIR_6_20_20_6        004b38f0     libxvidcore:qpel_mmx.obj
 0005:000090f0       _xvid_FIR_6_20_20_7        004b40f0     libxvidcore:qpel_mmx.obj
 0005:000098f0       _xvid_FIR_3_6_20_20        004b48f0     libxvidcore:qpel_mmx.obj
 0005:0000a0f0       _xvid_FIR_3_6_19_23        004b50f0     libxvidcore:qpel_mmx.obj
 0005:0000a8f0       _xvid_FIR_1_3_6_20         004b58f0     libxvidcore:qpel_mmx.obj
 0005:0000b0f0       _xvid_FIR_1_2_3_14         004b60f0     libxvidcore:qpel_mmx.obj
 0005:0000b8f0       _xvid_FIR_0_1_3_6          004b68f0     libxvidcore:qpel_mmx.obj
 0005:0000c0f0       _xvid_FIR_0_0_1_3          004b70f0     libxvidcore:qpel_mmx.obj
 0005:0000c8f0       _xvid_FIR_0_0_0_1          004b78f0     libxvidcore:qpel_mmx.obj
 0005:0000d0f0       ??_C@_0BK@MAAM@vop_id_for_prediction?5?$CFi?6?$AA@ 004b80f0     libxvidcore:bitstream.obj
 0005:0000d10c       ??_C@_0L@GJKP@vop_id?5?$CFi?6?$AA@ 004b810c     libxvidcore:bitstream.obj
 0005:0000d118       ??_C@_0BD@ENJ@fcode_backward?5?$CFi?6?$AA@ 004b8118     libxvidcore:bitstream.obj
 0005:0000d12c       ??_C@_0BC@GC@fcode_forward?5?$CFi?6?$AA@ 004b812c     libxvidcore:bitstream.obj
 0005:0000d140       ??_C@_0BA@EJOE@coding_type?5?$CFi?6?$AA@ 004b8140     libxvidcore:bitstream.obj
 0005:0000d150       ??_C@_0M@HODE@time?5?$CFi?3?$CFi?6?$AA@ 004b8150     libxvidcore:bitstream.obj
 0005:0000d15c       ??_C@_0BK@EKMK@header_extension_code?5?$CFi?6?$AA@ 004b815c     libxvidcore:bitstream.obj
 0005:0000d178       ??_C@_09DOAO@mbnum?5?$CFi?6?$AA@ 004b8178     libxvidcore:bitstream.obj
 0005:0000d184       ??_C@_0BH@MFKH@?$DMvideo_packet_header?$DO?6?$AA@ 004b8184     libxvidcore:bitstream.obj
 0005:0000d19c       ??_C@_0CF@EMIJ@sprite_warping_point?$FL?$CFi?$FN?5xy?$DN?$CI?$CFi?0@ 004b819c     libxvidcore:bitstream.obj
 0005:0000d1c4       ??_C@_0CG@CNAA@interlace?5alternate_vertical_sca@ 004b81c4     libxvidcore:bitstream.obj
 0005:0000d1ec       ??_C@_0BO@EKHA@interlace?5top_field_first?5?$CFi?6?$AA@ 004b81ec     libxvidcore:bitstream.obj
 0005:0000d20c       ??_C@_0BA@JFJH@vert_mc_ref?5?$CFi?6?$AA@ 004b820c     libxvidcore:bitstream.obj
 0005:0000d21c       ??_C@_0BB@CHFF@horiz_mc_ref?5?$CFi?6?$AA@ 004b821c     libxvidcore:bitstream.obj
 0005:0000d230       ??_C@_0BN@HPPI@RRV?5not?5supported?5?$CIanymore?$CJ?6?$AA@ 004b8230     libxvidcore:bitstream.obj
 0005:0000d250       ??_C@_0N@LMDI@rounding?5?$CFi?6?$AA@ 004b8250     libxvidcore:bitstream.obj
 0005:0000d260       ??_C@_0BC@PFAJ@vop_coded?$DN?$DNfalse?6?$AA@ 004b8260     libxvidcore:bitstream.obj
 0005:0000d274       ??_C@_0M@IEHK@time_bp?$DN?$CFi?6?$AA@ 004b8274     libxvidcore:bitstream.obj
 0005:0000d280       ??_C@_0M@PFDI@time_pp?$DN?$CFi?6?$AA@ 004b8280     libxvidcore:bitstream.obj
 0005:0000d28c       ??_C@_09EHFJ@?$CFc?5?$CFi?3?$CFi?6?$AA@ 004b828c     libxvidcore:bitstream.obj
 0005:0000d298       ??_C@_0BD@ICLA@time_increment?5?$CFi?6?$AA@ 004b8298     libxvidcore:bitstream.obj
 0005:0000d2ac       ??_C@_0O@KIIC@time_base?5?$CFi?6?$AA@ 004b82ac     libxvidcore:bitstream.obj
 0005:0000d2bc       ??_C@_06GOMJ@?$DMvop?$DO?6?$AA@ 004b82bc     libxvidcore:bitstream.obj
 0005:0000d2c4       ??_C@_0BL@OENA@scalability?5not?5supported?6?$AA@ 004b82c4     libxvidcore:bitstream.obj
 0005:0000d2e0       ??_C@_0BO@BMJK@reduced_resolution_enable?5?$CFi?6?$AA@ 004b82e0     libxvidcore:bitstream.obj
 0005:0000d300       ??_C@_0BC@JJED@?$CL?5newpred_enable?6?$AA@ 004b8300     libxvidcore:bitstream.obj
 0005:0000d314       ??_C@_0CA@DD@data_partitioned?5not?5supported?6?$AA@ 004b8314     libxvidcore:bitstream.obj
 0005:0000d334       ??_C@_0P@PPM@quarterpel?5?$CFi?6?$AA@ 004b8334     libxvidcore:bitstream.obj
 0005:0000d344       ??_C@_0CA@PEKH@greyscale?5matrix?5not?5supported?6?$AA@ 004b8344     libxvidcore:bitstream.obj
 0005:0000d364       ??_C@_0BG@JMNI@load_inter_quant_mat?6?$AA@ 004b8364     libxvidcore:bitstream.obj
 0005:0000d37c       ??_C@_0BG@FEJA@load_intra_quant_mat?6?$AA@ 004b837c     libxvidcore:bitstream.obj
 0005:0000d394       ??_C@_0P@HAOF@quant_type?5?$CFi?6?$AA@ 004b8394     libxvidcore:bitstream.obj
 0005:0000d3a4       ??_C@_0BL@DPDA@not_8_bit?$DN?$DNtrue?5?$CIignored?$CJ?6?$AA@ 004b83a4     libxvidcore:bitstream.obj
 0005:0000d3c0       ??_C@_0CE@ENIP@obmc_disabled?$DN?$DNfalse?5not?5support@ 004b83c0     libxvidcore:bitstream.obj
 0005:0000d3e4       ??_C@_0BA@KELL@interlacing?5?$CFi?6?$AA@ 004b83e4     libxvidcore:bitstream.obj
 0005:0000d3f4       ??_C@_0CP@LMLD@decoder?5width?1height?5does?5not?5ma@ 004b83f4     libxvidcore:bitstream.obj
 0005:0000d424       ??_C@_0L@OMA@height?5?$CFi?6?$AA@ 004b8424     libxvidcore:bitstream.obj
 0005:0000d430       ??_C@_09IJMM@width?5?$CFi?6?$AA@ 004b8430     libxvidcore:bitstream.obj
 0005:0000d43c       ??_C@_0BC@JJCL@?$CL?5fixed_vop_rate?6?$AA@ 004b843c     libxvidcore:bitstream.obj
 0005:0000d450       ??_C@_0CC@INCN@vop_time_increment_resolution?5?$CFi@ 004b8450     libxvidcore:bitstream.obj
 0005:0000d474       ??_C@_0CK@FEJJ@non?9rectangular?5shapes?5are?5not?5s@ 004b8474     libxvidcore:bitstream.obj
 0005:0000d4a0       ??_C@_09CLBL@shape?5?$CFi?6?$AA@ 004b84a0     libxvidcore:bitstream.obj
 0005:0000d4ac       ??_C@_0BN@NCNM@occupancy?5?$CFd?5?$CIunit?$DN64?5bits?$CJ?6?$AA@ 004b84ac     libxvidcore:bitstream.obj
 0005:0000d4cc       ??_C@_0CC@HEMP@buffer_size?5?$CFd?5?$CIunit?$DN16384?5bits?$CJ@ 004b84cc     libxvidcore:bitstream.obj
 0005:0000d4f0       ??_C@_0BL@DILI@bitrate?5?$CFd?5?$CIunit?$DN400?5bps?$CJ?6?$AA@ 004b84f0     libxvidcore:bitstream.obj
 0005:0000d50c       ??_C@_0BC@IPGK@?$CL?5vbv_parameters?6?$AA@ 004b850c     libxvidcore:bitstream.obj
 0005:0000d520       ??_C@_0O@MGDL@low_delay?5?$CFi?6?$AA@ 004b8520     libxvidcore:bitstream.obj
 0005:0000d530       ??_C@_0BK@JHEO@?$CL?5vol_control_parameters?6?$AA@ 004b8530     libxvidcore:bitstream.obj
 0005:0000d54c       ??_C@_0BF@HBGK@?$CL?5aspect_ratio_info?6?$AA@ 004b854c     libxvidcore:bitstream.obj
 0005:0000d564       ??_C@_0L@GPCD@ver_id?5?$CFi?6?$AA@ 004b8564     libxvidcore:bitstream.obj
 0005:0000d570       ??_C@_0BO@LDJG@?$CL?5is_object_layer_identifier?6?$AA@ 004b8570     libxvidcore:bitstream.obj
 0005:0000d590       ??_C@_0L@KJEL@vol?5id?5?$CFi?6?$AA@ 004b8590     libxvidcore:bitstream.obj
 0005:0000d59c       ??_C@_0BG@OMLO@?$DMvideo_object_layer?$DO?6?$AA@ 004b859c     libxvidcore:bitstream.obj
 0005:0000d5b4       ??_C@_0BN@EII@visual_object_type?5?$CB?$DN?5video?6?$AA@ 004b85b4     libxvidcore:bitstream.obj
 0005:0000d5d4       ??_C@_0P@JJHC@?$DMunknown?3?5?$CFx?$DO?6?$AA@ 004b85d4     libxvidcore:bitstream.obj
 0005:0000d5e4       ??_C@_0CF@MKFP@divx?5version?$DN?$CFi?0?5build?$DN?$CFi?5packed@ 004b85e4     libxvidcore:bitstream.obj
 0005:0000d60c       ??_C@_0M@MPDI@DivX?$CFdb?$CFd?$CFc?$AA@ 004b860c     libxvidcore:bitstream.obj
 0005:0000d618       ??_C@_0BA@FKN@DivX?$CFdBuild?$CFd?$CFc?$AA@ 004b8618     libxvidcore:bitstream.obj
 0005:0000d628       ??_C@_0BL@MPJO@xvid?5bitstream?5version?$DN?$CFi?6?$AA@ 004b8628     libxvidcore:bitstream.obj
 0005:0000d644       ??_C@_06KIKF@XviD?$CFd?$AA@ 004b8644     libxvidcore:bitstream.obj
 0005:0000d64c       ??_C@_07IJNB@XviD?$CFdC?$AA@ 004b864c     libxvidcore:bitstream.obj
 0005:0000d654       ??_C@_04PCMD@XviD?$AA@     004b8654     libxvidcore:bitstream.obj
 0005:0000d65c       ??_C@_0BB@FNMK@?$DMuser_data?$DO?3?5?$CFs?6?$AA@ 004b865c     libxvidcore:bitstream.obj
 0005:0000d670       ??_C@_0BA@HHIE@time?5?$CFih?$CFim?$CFis?6?$AA@ 004b8670     libxvidcore:bitstream.obj
 0005:0000d680       ??_C@_0BA@FLHJ@?$DMgroup_of_vop?$DO?6?$AA@ 004b8680     libxvidcore:bitstream.obj
 0005:0000d690       ??_C@_09FBMB@vo?5id?5?$CFi?6?$AA@ 004b8690     libxvidcore:bitstream.obj
 0005:0000d69c       ??_C@_0BA@EOBP@?$DMvideo_object?$DO?6?$AA@ 004b869c     libxvidcore:bitstream.obj
 0005:0000d6ac       ??_C@_0BE@EAEI@?$CL?5color_description?$AA@ 004b86ac     libxvidcore:bitstream.obj
 0005:0000d6c0       ??_C@_0BF@NONK@?$CL?5video_signal_type?6?$AA@ 004b86c0     libxvidcore:bitstream.obj
 0005:0000d6d8       ??_C@_0BC@HPJK@visobj_ver_id?5?$CFi?6?$AA@ 004b86d8     libxvidcore:bitstream.obj
 0005:0000d6ec       ??_C@_0BB@LFC@?$DMvisual_object?$DO?6?$AA@ 004b86ec     libxvidcore:bitstream.obj
 0005:0000d700       ??_C@_0BL@JOAI@?$DM?1visual_object_sequence?$DO?6?$AA@ 004b8700     libxvidcore:bitstream.obj
 0005:0000d71c       ??_C@_0CB@LCIP@profile_and_level_indication?5?$CFi?6@ 004b871c     libxvidcore:bitstream.obj
 0005:0000d740       ??_C@_0BK@PFCE@?$DMvisual_object_sequence?$DO?6?$AA@ 004b8740     libxvidcore:bitstream.obj
 0005:0000d75c       ??_C@_0CL@HMPO@?$CL?5complexity_estimation_header?$DL?5@ 004b875c     libxvidcore:bitstream.obj
 0005:0000d788       ??_C@_0CM@IPMM@sprite_warping_point?$FL?$CFi?$FN?5xy?$DN?$CI?$CFi?0@ 004b8788     libxvidcore:bitstream.obj
 0005:0000d7b4       ??_C@_0BC@EKBN@predictor?$FL?$CFi?$FN?5?$CFi?6?$AA@ 004b87b4     libxvidcore:mbprediction.obj
 0005:0000d7c8       ??_C@_0BB@PCDB@predictor?$FL0?$FN?5?$CFi?6?$AA@ 004b87c8     libxvidcore:mbprediction.obj
 0005:0000d7dc       __NLG_Destination          004b87dc     LIBC:exsup.obj
 0005:0000d7f0       __iob                      004b87f0     LIBC:_file.obj
 0005:0000da70       __fltused                  004b8a70     LIBC:fpinit.obj
 0005:0000da74       __ldused                   004b8a74     LIBC:fpinit.obj
 0005:0000da78       __FPinit                   004b8a78     LIBC:fpinit.obj
 0005:0000da7c       __FPmtinit                 004b8a7c     LIBC:fpinit.obj
 0005:0000da80       __FPmtterm                 004b8a80     LIBC:fpinit.obj
 0005:0000dba0       ___lc_category             004b8ba0     LIBC:setlocal.obj
 0005:0000dbf0       ??_R0?AVtype_info@@@8      004b8bf0     LIBC:typinfo.obj
 0005:0000dc10       ___lc_time_curr            004b8c10     LIBC:strftime.obj
 0005:0000dc18       ___lc_time_c               004b8c18     LIBC:strftime.obj
 0005:0000dcc4       ?__pMyUnhandledExceptionFilter@@3PAXA 004b8cc4     LIBC:throw.obj
 0005:0000dcc8       __aexit_rtn                004b8cc8     LIBC:crt0.obj
 0005:0000dccc       ___app_type                004b8ccc     LIBC:crt0.obj
 0005:0000dce0       ?__pUnexpected@@3P6AXXZA   004b8ce0     LIBC:hooks.obj
 0005:0000dce4       ?__pInconsistency@@3P6AXXZA 004b8ce4     LIBC:hooks.obj
 0005:0000dce8       ___nullstring              004b8ce8     LIBC:output.obj
 0005:0000dcec       ___wnullstring             004b8cec     LIBC:output.obj
 0005:0000dcf0       ___badioinfo               004b8cf0     LIBC:ioinit.obj
 0005:0000dd88       __sys_errlist              004b8d88     LIBC:syserr.obj
 0005:0000de38       __sys_nerr                 004b8e38     LIBC:syserr.obj
 0005:0000de40       __cfltcvt_tab              004b8e40     LIBC:cmiscdat.obj
 0005:0000de60       __amblksiz                 004b8e60     LIBC:heapinit.obj
 0005:0000de68       ___old_small_block_heap    004b8e68     LIBC:sbheap.obj
 0005:0000fe8c       ___old_sbh_threshold       004bae8c     LIBC:sbheap.obj
 0005:0000fe90       ___rgLocInfo               004bae90     LIBC:getqloc.obj
 0005:00010334       ___rglangidNotDefault      004bb334     LIBC:getqloc.obj
 0005:00010348       ___rg_country              004bb348     LIBC:getqloc.obj
 0005:00010400       ___rg_language             004bb400     LIBC:getqloc.obj
 0005:00010610       __pctype                   004bb610     LIBC:ctype.obj
 0005:00010614       __pwctype                  004bb614     LIBC:ctype.obj
 0005:00010618       __ctype                    004bb618     LIBC:ctype.obj
 0005:0001081c       ___mb_cur_max              004bb81c     LIBC:nlsdata1.obj
 0005:00010820       ___decimal_point           004bb820     LIBC:nlsdata1.obj
 0005:00010824       ___decimal_point_length    004bb824     LIBC:nlsdata1.obj
 0005:00010834       __timezone                 004bb834     LIBC:timeset.obj
 0005:00010838       __daylight                 004bb838     LIBC:timeset.obj
 0005:0001083c       __dstbias                  004bb83c     LIBC:timeset.obj
 0005:000108c0       __tzname                   004bb8c0     LIBC:timeset.obj
 0005:000108f0       __lpdays                   004bb8f0     LIBC:days.obj
 0005:00010924       __days                     004bb924     LIBC:days.obj
 0005:00010958       __XcptActTab               004bb958     LIBC:winxfltr.obj
 0005:000109d0       __First_FPE_Indx           004bb9d0     LIBC:winxfltr.obj
 0005:000109d4       __Num_FPE                  004bb9d4     LIBC:winxfltr.obj
 0005:000109d8       __XcptActTabCount          004bb9d8     LIBC:winxfltr.obj
 0005:000109dc       __fpecode                  004bb9dc     LIBC:winxfltr.obj
 0005:00010b78       ___lconv_static_decimal    004bbb78     LIBC:lconv.obj
 0005:00010b80       ___lconv_c                 004bbb80     LIBC:lconv.obj
 0005:00010bb0       ___lconv                   004bbbb0     LIBC:lconv.obj
 0005:00010cb8       __pow10pos                 004bbcb8     LIBC:constpow.obj
 0005:00010e18       __pow10neg                 004bbe18     LIBC:constpow.obj
 0005:00010fe8       ?THE_END_OF_TIME@@3VEventTime@@B 004bbfe8     DelayQueue.obj
 0005:00010ff8       ?DELAY_ZERO@@3VDelayInterval@@B 004bbff8     DelayQueue.obj
 0005:00011008       ?DELAY_SECOND@@3VDelayInterval@@B 004bc008     DelayQueue.obj
 0005:00011010       ?tokenCounter@DelayQueueEntry@@0JA 004bc010     DelayQueue.obj
 0005:00011018       ?hookInst@@3PAUHINSTANCE__@@A 004bc018     DvrWnd.obj
 0005:00011020       ??_C@_00A@?$AA@            004bc020     DvrWnd.obj
 0005:00013038       ?statsRelayedOutgoing@Groupsock@@2VNetInterfaceTrafficStats@@A 004be038     Groupsock.obj
 0005:00013040       ?statsRelayedIncoming@Groupsock@@2VNetInterfaceTrafficStats@@A 004be040     Groupsock.obj
 0005:00013048       ?statsIncoming@Groupsock@@2VNetInterfaceTrafficStats@@A 004be048     Groupsock.obj
 0005:00013050       ?statsOutgoing@Groupsock@@2VNetInterfaceTrafficStats@@A 004be050     Groupsock.obj
 0005:00013074       ?SendingInterfaceAddr@@3IA 004be074     GroupsockHelper.obj
 0005:00013078       ?ReceivingInterfaceAddr@@3IA 004be078     GroupsockHelper.obj
 0005:0003caac       ?startCapturePic@@3RCJC    004e7aac     HikData.obj
 0005:0003cf24       ?env@@3PAVUsageEnvironment@@A 004e7f24     mainSdk.obj
 0005:0003cf30       ?videoSink@@3PAVMPEG4ESVideoRTPSink@@A 004e7f30     mainSdk.obj
 0005:0003d038       ?DefaultUsageEnvironment@NetInterface@@2PAVUsageEnvironment@@A 004e8038     NetInterface.obj
 0005:0003d058       ?http@@3V?$vector@PAVRTSPClientSession@RTSPServer@@V?$allocator@PAVRTSPClientSession@RTSPServer@@@std@@@std@@A 004e8058     RTSPServer.obj
 0005:0003d070       ?iter@@3PAPAVRTSPClientSession@RTSPServer@@A 004e8070     RTSPServer.obj
 0005:0003d148       ?rc2pass2@@3Uxvid_plugin_2pass2_t@@A 004e8148     xvid_interface.obj
 0005:0003d188       ?rc2pass1@@3Uxvid_plugin_2pass1_t@@A 004e8188     xvid_interface.obj
 0005:0003d190       ?single@@3Uxvid_plugin_single_t@@A 004e8190     xvid_interface.obj
 0005:0003d614       _xvid_QP_Funcs             004e8614     libxvidcore:qpel.obj
 0005:0003d618       _xvid_QP_Add_Funcs         004e8618     libxvidcore:qpel.obj
 0005:00067234       __cflush                   00512234     LIBC:_file.obj
 0005:00067238       ___fastflag                00512238     LIBC:fpinit.obj
 0005:0006723c       __adjust_fdiv              0051223c     LIBC:fpinit.obj
 0005:00067274       _errno                     00512274     LIBC:crt0dat.obj
 0005:00067278       __doserrno                 00512278     LIBC:crt0dat.obj
 0005:0006727c       __umaskval                 0051227c     LIBC:crt0dat.obj
 0005:00067280       __osver                    00512280     LIBC:crt0dat.obj
 0005:00067284       __winver                   00512284     LIBC:crt0dat.obj
 0005:00067288       __winmajor                 00512288     LIBC:crt0dat.obj
 0005:0006728c       __winminor                 0051228c     LIBC:crt0dat.obj
 0005:00067290       ___argc                    00512290     LIBC:crt0dat.obj
 0005:00067294       ___argv                    00512294     LIBC:crt0dat.obj
 0005:00067298       ___wargv                   00512298     LIBC:crt0dat.obj
 0005:0006729c       __environ                  0051229c     LIBC:crt0dat.obj
 0005:000672a0       ___initenv                 005122a0     LIBC:crt0dat.obj
 0005:000672a4       __wenviron                 005122a4     LIBC:crt0dat.obj
 0005:000672a8       ___winitenv                005122a8     LIBC:crt0dat.obj
 0005:000672ac       __pgmptr                   005122ac     LIBC:crt0dat.obj
 0005:000672b0       __wpgmptr                  005122b0     LIBC:crt0dat.obj
 0005:000672b4       __exitflag                 005122b4     LIBC:crt0dat.obj
 0005:000672b8       __C_Termination_Done       005122b8     LIBC:crt0dat.obj
 0005:000672bc       __C_Exit_Done              005122bc     LIBC:crt0dat.obj
 0005:000672fc       __aenvptr                  005122fc     LIBC:crt0.obj
 0005:00067300       __wenvptr                  00512300     LIBC:crt0.obj
 0005:00067304       ___error_mode              00512304     LIBC:crt0.obj
 0005:00067308       ?_pCurrentException@@3PAUEHExceptionRecord@@A 00512308     LIBC:frame.obj
 0005:0006730c       ?_pCurrentExContext@@3PAU_CONTEXT@@A 0051230c     LIBC:frame.obj
 0005:00067310       ?__pSETranslator@@3P6AXIPAU_EXCEPTION_POINTERS@@@ZA 00512310     LIBC:hooks.obj
 0005:00067314       ?__pTerminate@@3P6AXXZA    00512314     LIBC:hooks.obj
 0005:00067318       __stdbuf                   00512318     LIBC:_sftbuf.obj
 0005:00067334       __adbgmsg                  00512334     LIBC:crt0msg.obj
 0005:00067368       ?_pnhHeap@@3P6AHI@ZA       00512368     LIBC:handler.obj
 0005:0006736c       __newmode                  0051236c     LIBC:_newmode.obj
 0005:00067370       ___lc_time_intl            00512370     LIBC:inittime.obj
 0005:0006738c       ___lc_handle               0051238c     LIBC:nlsdata2.obj
 0005:000673a4       ___lc_codepage             005123a4     LIBC:nlsdata2.obj
 0005:000673a8       ___lc_collate_cp           005123a8     LIBC:nlsdata2.obj
 0005:000673ac       ___lc_id                   005123ac     LIBC:nlsdata3.obj
 0005:000674b8       __pxcptinfoptrs            005124b8     LIBC:winxfltr.obj
 0005:00067600       __commode                  00512600     LIBC:ncommode.obj
 0005:0006760c       ___lconv_static_null       0051260c     LIBC:lconv.obj
 0005:00067620       __fmode                    00512620     LIBC:txtmode.obj
 0005:00067630       __afxForceEXCLUDE          00512630     nafxcw:nolib.obj
 0005:00067638       ??_B?1???id@?$ctype@G@std@@$D@@9@51 00512638     <common>
 0005:00067640       _sprite_trajectory_code    00512640     <common>
 0005:000a7640       _fdct                      00552640     <common>
 0005:000a7644       _idct                      00552644     <common>
 0005:000a7648       _emms                      00552648     <common>
 0005:000a764c       _dequant_h263_intra        0055264c     <common>
 0005:000a7650       _quant_h263_inter          00552650     <common>
 0005:000a7654       _quant_h263_intra          00552654     <common>
 0005:000a7658       _dequant_h263_inter        00552658     <common>
 0005:000a765c       _dequant_mpeg_inter        0055265c     <common>
 0005:000a7660       _dequant_mpeg_intra        00552660     <common>
 0005:000a7664       _quant_mpeg_inter          00552664     <common>
 0005:000a7668       _quant_mpeg_intra          00552668     <common>
 0005:000a766c       _transfer_8to16sub         0055266c     <common>
 0005:000a7670       _transfer8x8_copy          00552670     <common>
 0005:000a7674       _transfer_8to16sub2ro      00552674     <common>
 0005:000a7678       _transfer_8to16subro       00552678     <common>
 0005:000a767c       _transfer_8to16sub2        0055267c     <common>
 0005:000a7680       _transfer_8to16copy        00552680     <common>
 0005:000a7684       _transfer_16to8add         00552684     <common>
 0005:000a7688       _transfer_16to8copy        00552688     <common>
 0005:000a768c       _transfer8x4_copy          0055268c     <common>
 0005:000a7690       _MBFieldTest               00552690     <common>
 0005:000a7694       _interpolate8x8_avg4       00552694     <common>
 0005:000a7698       _interpolate8x4_halfpel_v  00552698     <common>
 0005:000a769c       _interpolate8x8_avg2       0055269c     <common>
 0005:000a76a0       _interpolate8x8_halfpel_v_add 005526a0     <common>
 0005:000a76a4       _interpolate8x4_halfpel_h  005526a4     <common>
 0005:000a76a8       _interpolate16x16_lowpass_h 005526a8     <common>
 0005:000a76ac       _interpolate8x8_halfpel_hv_add 005526ac     <common>
 0005:000a76b0       _interpolate16x16_lowpass_v 005526b0     <common>
 0005:000a76b4       _interpolate8x8_halfpel_h  005526b4     <common>
 0005:000a76b8       _interpolate8x8_halfpel_v  005526b8     <common>
 0005:000a76bc       _interpolate8x8_halfpel_h_add 005526bc     <common>
 0005:000a76c0       _interpolate8x8_halfpel_hv 005526c0     <common>
 0005:000a76c4       _interpolate16x16_lowpass_hv 005526c4     <common>
 0005:000a76c8       _interpolate8x4_halfpel_hv 005526c8     <common>
 0005:000a76cc       _interpolate8x8_lowpass_v  005526cc     <common>
 0005:000a76d0       _interpolate8x8_lowpass_h  005526d0     <common>
 0005:000a76d4       _interpolate8x8_lowpass_hv 005526d4     <common>
 0005:000a76d8       _interpolate8x8_6tap_lowpass_v 005526d8     <common>
 0005:000a76dc       _interpolate8x8_6tap_lowpass_h 005526dc     <common>
 0005:000a76e0       _interpolate8x8_halfpel_add 005526e0     <common>
 0005:000a76e4       _image_brightness          005526e4     <common>
 0005:000a76e8       _rgb565i_to_yv12           005526e8     <common>
 0005:000a76ec       _yv12_to_rgb565            005526ec     <common>
 0005:000a76f0       _yv12_to_rgb555i           005526f0     <common>
 0005:000a76f4       _yv12_to_rgb555            005526f4     <common>
 0005:000a76f8       _rgb555_to_yv12            005526f8     <common>
 0005:000a76fc       _yv12_to_uyvy              005526fc     <common>
 0005:000a7700       _yv12_to_rgb               00552700     <common>
 0005:000a7704       _yv12_to_rgb565i           00552704     <common>
 0005:000a7708       _yv12_to_bgr               00552708     <common>
 0005:000a770c       _yv12_to_yv12              0055270c     <common>
 0005:000a7710       _rgb565_to_yv12            00552710     <common>
 0005:000a7714       _rgbai_to_yv12             00552714     <common>
 0005:000a7718       _yv12_to_uyvyi             00552718     <common>
 0005:000a771c       _yv12_to_yuyvi             0055271c     <common>
 0005:000a7720       _rgbi_to_yv12              00552720     <common>
 0005:000a7724       _argb_to_yv12              00552724     <common>
 0005:000a7728       _rgb_to_yv12               00552728     <common>
 0005:000a772c       _yv12_to_argbi             0055272c     <common>
 0005:000a7730       _rgba_to_yv12              00552730     <common>
 0005:000a7734       _bgrai_to_yv12             00552734     <common>
 0005:000a7738       _yv12_to_abgri             00552738     <common>
 0005:000a773c       _yv12_to_rgba              0055273c     <common>
 0005:000a7740       _yv12_to_bgra              00552740     <common>
 0005:000a7744       _yuyv_to_yv12              00552744     <common>
 0005:000a7748       _yv12_to_rgbi              00552748     <common>
 0005:000a774c       _bgra_to_yv12              0055274c     <common>
 0005:000a7750       _abgri_to_yv12             00552750     <common>
 0005:000a7754       _bgr_to_yv12               00552754     <common>
 0005:000a7758       _rgb555i_to_yv12           00552758     <common>
 0005:000a775c       _yv12_to_argb              0055275c     <common>
 0005:000a7760       _uyvy_to_yv12              00552760     <common>
 0005:000a7764       _yv12_to_bgri              00552764     <common>
 0005:000a7768       _yuyvi_to_yv12             00552768     <common>
 0005:000a776c       _uyvyi_to_yv12             0055276c     <common>
 0005:000a7770       _yv12_to_rgbai             00552770     <common>
 0005:000a7774       _yv12_to_abgr              00552774     <common>
 0005:000a7778       _abgr_to_yv12              00552778     <common>
 0005:000a777c       _yv12_to_bgrai             0055277c     <common>
 0005:000a7780       _bgri_to_yv12              00552780     <common>
 0005:000a7784       _argbi_to_yv12             00552784     <common>
 0005:000a7788       _yv12_to_yuyv              00552788     <common>
 0005:000a778c       _calc_cbp                  0055278c     <common>
 0005:000a7790       _sadInit                   00552790     <common>
 0005:000a7794       _sse8_16bit                00552794     <common>
 0005:000a7798       _dev16                     00552798     <common>
 0005:000a779c       _sad16bi                   0055279c     <common>
 0005:000a77a0       _sad8                      005527a0     <common>
 0005:000a77a4       _sad16v                    005527a4     <common>
 0005:000a77a8       _sse8_8bit                 005527a8     <common>
 0005:000a77ac       _sad16                     005527ac     <common>
 0005:000a77b0       _sad8bi                    005527b0     <common>
 0005:000a77b4       ___mbcodepage              005527b4     <common>
 0005:000a77c0       ___mbulinfo                005527c0     <common>
 0005:000a77cc       ___ismbcodepage            005527cc     <common>
 0005:000a77e0       __mbcasemap                005527e0     <common>
 0005:000a78e0       __mbctype                  005528e0     <common>
 0005:000a79e4       ___mblcid                  005529e4     <common>
 0005:000a79e8       ___sbh_sizeHeaderList      005529e8     <common>
 0005:000a79ec       ___sbh_indGroupDefer       005529ec     <common>
 0005:000a79f0       ___sbh_pHeaderScan         005529f0     <common>
 0005:000a79f4       ___sbh_initialized         005529f4     <common>
 0005:000a79f8       ___sbh_pHeaderDefer        005529f8     <common>
 0005:000a79fc       ___sbh_cntHeaderList       005529fc     <common>
 0005:000a7a00       ___sbh_pHeaderList         00552a00     <common>
 0005:000a7a04       ___sbh_threshold           00552a04     <common>
 0005:000a7a08       __crtheap                  00552a08     <common>
 0005:000a7a0c       ___active_heap             00552a0c     <common>
 0005:000a7a20       ___pioinfo                 00552a20     <common>
 0005:000a7b20       __nhandle                  00552b20     <common>
 0005:000a7b24       __acmdln                   00552b24     <common>
 0005:000a7b28       ___alternate_form          00552b28     <common>
 0005:000a7b2c       ___no_lead_zeros           00552b2c     <common>
 0005:000a7b30       ___env_initialized         00552b30     <common>
 0005:000a7b34       ___mbctype_initialized     00552b34     <common>
 0005:000a7b38       ___onexitend               00552b38     <common>
 0005:000a7b3c       ___onexitbegin             00552b3c     <common>
 0005:000a7b40       ___piob                    00552b40     <common>
 0005:000a7b60       __bufin                    00552b60     <common>
 0005:000a8b60       __nstream                  00553b60     <common>
 0006:00000000       __IMPORT_DESCRIPTOR_KERNEL32 00554000     kernel32:KERNEL32.dll
 0006:00000014       __IMPORT_DESCRIPTOR_USER32 00554014     user32:USER32.dll
 0006:00000028       __IMPORT_DESCRIPTOR_ADVAPI32 00554028     advapi32:ADVAPI32.dll
 0006:0000003c       __IMPORT_DESCRIPTOR_WSOCK32 0055403c     wsock32:WSOCK32.dll
 0006:00000050       __IMPORT_DESCRIPTOR_LIBEAY32 00554050     libeay32:LIBEAY32.dll
 0006:00000064       __IMPORT_DESCRIPTOR_XClientDLL 00554064     XClientDLL:XClientDLL.dll
 0006:00000078       __IMPORT_DESCRIPTOR_dbghelp 00554078     dbghelp:dbghelp.dll
 0006:0000008c       __IMPORT_DESCRIPTOR_VERSION 0055408c     version:VERSION.dll
 0006:000000a0       __NULL_IMPORT_DESCRIPTOR   005540a0     kernel32:KERNEL32.dll
 0006:0000031c       __imp__GetUserNameA@8      0055431c     advapi32:ADVAPI32.dll
 0006:00000320       \177ADVAPI32_NULL_THUNK_DATA 00554320     advapi32:ADVAPI32.dll
 0006:00000324       __imp__CreateProcessA@40   00554324     kernel32:KERNEL32.dll
 0006:00000328       __imp__lstrcatA@8          00554328     kernel32:KERNEL32.dll
 0006:0000032c       __imp__IsDebuggerPresent@0 0055432c     kernel32:KERNEL32.dll
 0006:00000330       __imp__CloseHandle@4       00554330     kernel32:KERNEL32.dll
 0006:00000334       __imp__VirtualQuery@12     00554334     kernel32:KERNEL32.dll
 0006:00000338       __imp__SetFilePointer@16   00554338     kernel32:KERNEL32.dll
 0006:0000033c       __imp__CreateFileA@28      0055433c     kernel32:KERNEL32.dll
 0006:00000340       __imp__lstrcpyA@8          00554340     kernel32:KERNEL32.dll
 0006:00000344       __imp__GetModuleFileNameA@12 00554344     kernel32:KERNEL32.dll
 0006:00000348       __imp__WriteFile@20        00554348     kernel32:KERNEL32.dll
 0006:0000034c       __imp__lstrlenA@4          0055434c     kernel32:KERNEL32.dll
 0006:00000350       __imp__GetCurrentProcess@0 00554350     kernel32:KERNEL32.dll
 0006:00000354       __imp__GetCurrentProcessId@0 00554354     kernel32:KERNEL32.dll
 0006:00000358       __imp__GetCurrentThreadId@0 00554358     kernel32:KERNEL32.dll
 0006:0000035c       __imp__RaiseException@16   0055435c     kernel32:KERNEL32.dll
 0006:00000360       __imp__GetSystemInfo@4     00554360     kernel32:KERNEL32.dll
 0006:00000364       __imp__GetFileTime@16      00554364     kernel32:KERNEL32.dll
 0006:00000368       __imp__GetFileSize@8       00554368     kernel32:KERNEL32.dll
 0006:0000036c       __imp__FileTimeToDosDateTime@12 0055436c     kernel32:KERNEL32.dll
 0006:00000370       __imp__FileTimeToLocalFileTime@8 00554370     kernel32:KERNEL32.dll
 0006:00000374       __imp__GlobalMemoryStatus@4 00554374     kernel32:KERNEL32.dll
 0006:00000378       __imp__GetSystemTimeAsFileTime@4 00554378     kernel32:KERNEL32.dll
 0006:0000037c       __imp__OutputDebugStringA@4 0055437c     kernel32:KERNEL32.dll
 0006:00000380       __imp__QueryPerformanceFrequency@4 00554380     kernel32:KERNEL32.dll
 0006:00000384       __imp__QueryPerformanceCounter@4 00554384     kernel32:KERNEL32.dll
 0006:00000388       __imp__InitializeCriticalSection@4 00554388     kernel32:KERNEL32.dll
 0006:0000038c       __imp__LeaveCriticalSection@4 0055438c     kernel32:KERNEL32.dll
 0006:00000390       __imp__EnterCriticalSection@4 00554390     kernel32:KERNEL32.dll
 0006:00000394       __imp__Sleep@4             00554394     kernel32:KERNEL32.dll
 0006:00000398       __imp__GetTickCount@0      00554398     kernel32:KERNEL32.dll
 0006:0000039c       __imp__CreateThread@24     0055439c     kernel32:KERNEL32.dll
 0006:000003a0       __imp__lstrcpynA@12        005543a0     kernel32:KERNEL32.dll
 0006:000003a4       __imp__CompareStringW@24   005543a4     kernel32:KERNEL32.dll
 0006:000003a8       __imp__CompareStringA@24   005543a8     kernel32:KERNEL32.dll
 0006:000003ac       __imp__GetLocaleInfoW@16   005543ac     kernel32:KERNEL32.dll
 0006:000003b0       __imp__SetEndOfFile@4      005543b0     kernel32:KERNEL32.dll
 0006:000003b4       __imp__GetOEMCP@0          005543b4     kernel32:KERNEL32.dll
 0006:000003b8       __imp__GetACP@0            005543b8     kernel32:KERNEL32.dll
 0006:000003bc       __imp__LCMapStringW@24     005543bc     kernel32:KERNEL32.dll
 0006:000003c0       __imp__LCMapStringA@24     005543c0     kernel32:KERNEL32.dll
 0006:000003c4       __imp__MultiByteToWideChar@24 005543c4     kernel32:KERNEL32.dll
 0006:000003c8       __imp__GetStringTypeW@16   005543c8     kernel32:KERNEL32.dll
 0006:000003cc       __imp__GetStringTypeA@20   005543cc     kernel32:KERNEL32.dll
 0006:000003d0       __imp__SetStdHandle@8      005543d0     kernel32:KERNEL32.dll
 0006:000003d4       __imp__GetVersionExA@4     005543d4     kernel32:KERNEL32.dll
 0006:000003d8       __imp__GetLastError@0      005543d8     kernel32:KERNEL32.dll
 0006:000003dc       __imp__LoadLibraryA@4      005543dc     kernel32:KERNEL32.dll
 0006:000003e0       __imp__IsBadCodePtr@4      005543e0     kernel32:KERNEL32.dll
 0006:000003e4       __imp__IsBadReadPtr@8      005543e4     kernel32:KERNEL32.dll
 0006:000003e8       __imp__GetEnvironmentStringsW@0 005543e8     kernel32:KERNEL32.dll
 0006:000003ec       __imp__GetEnvironmentStrings@0 005543ec     kernel32:KERNEL32.dll
 0006:000003f0       __imp__FreeEnvironmentStringsW@4 005543f0     kernel32:KERNEL32.dll
 0006:000003f4       __imp__FreeEnvironmentStringsA@4 005543f4     kernel32:KERNEL32.dll
 0006:000003f8       __imp__UnhandledExceptionFilter@4 005543f8     kernel32:KERNEL32.dll
 0006:000003fc       __imp__SetUnhandledExceptionFilter@4 005543fc     kernel32:KERNEL32.dll
 0006:00000400       __imp__WideCharToMultiByte@32 00554400     kernel32:KERNEL32.dll
 0006:00000404       __imp__FlushFileBuffers@4  00554404     kernel32:KERNEL32.dll
 0006:00000408       __imp__ReadFile@20         00554408     kernel32:KERNEL32.dll
 0006:0000040c       __imp__GetUserDefaultLCID@0 0055440c     kernel32:KERNEL32.dll
 0006:00000410       __imp__EnumSystemLocalesA@8 00554410     kernel32:KERNEL32.dll
 0006:00000414       __imp__GetLocaleInfoA@16   00554414     kernel32:KERNEL32.dll
 0006:00000418       __imp__IsValidCodePage@4   00554418     kernel32:KERNEL32.dll
 0006:0000041c       __imp__IsValidLocale@8     0055441c     kernel32:KERNEL32.dll
 0006:00000420       __imp__GetCPInfo@8         00554420     kernel32:KERNEL32.dll
 0006:00000424       __imp__HeapSize@12         00554424     kernel32:KERNEL32.dll
 0006:00000428       __imp__IsBadWritePtr@8     00554428     kernel32:KERNEL32.dll
 0006:0000042c       __imp__VirtualAlloc@16     0055442c     kernel32:KERNEL32.dll
 0006:00000430       __imp__VirtualFree@12      00554430     kernel32:KERNEL32.dll
 0006:00000434       __imp__HeapCreate@12       00554434     kernel32:KERNEL32.dll
 0006:00000438       __imp__HeapDestroy@4       00554438     kernel32:KERNEL32.dll
 0006:0000043c       __imp__GetEnvironmentVariableA@12 0055443c     kernel32:KERNEL32.dll
 0006:00000440       __imp__GetModuleHandleA@4  00554440     kernel32:KERNEL32.dll
 0006:00000444       __imp__GetProcAddress@8    00554444     kernel32:KERNEL32.dll
 0006:00000448       __imp__SetConsoleCtrlHandler@8 00554448     kernel32:KERNEL32.dll
 0006:0000044c       __imp__SetEnvironmentVariableA@8 0055444c     kernel32:KERNEL32.dll
 0006:00000450       __imp__GetStartupInfoA@4   00554450     kernel32:KERNEL32.dll
 0006:00000454       __imp__GetFileType@4       00554454     kernel32:KERNEL32.dll
 0006:00000458       __imp__GetStdHandle@4      00554458     kernel32:KERNEL32.dll
 0006:0000045c       __imp__SetHandleCount@4    0055445c     kernel32:KERNEL32.dll
 0006:00000460       __imp__HeapReAlloc@16      00554460     kernel32:KERNEL32.dll
 0006:00000464       __imp__GetVersion@0        00554464     kernel32:KERNEL32.dll
 0006:00000468       __imp__GetCommandLineA@0   00554468     kernel32:KERNEL32.dll
 0006:0000046c       __imp__GetLocalTime@4      0055446c     kernel32:KERNEL32.dll
 0006:00000470       __imp__GetSystemTime@4     00554470     kernel32:KERNEL32.dll
 0006:00000474       __imp__GetTimeZoneInformation@4 00554474     kernel32:KERNEL32.dll
 0006:00000478       __imp__TerminateProcess@8  00554478     kernel32:KERNEL32.dll
 0006:0000047c       __imp__ExitProcess@4       0055447c     kernel32:KERNEL32.dll
 0006:00000480       __imp__HeapAlloc@12        00554480     kernel32:KERNEL32.dll
 0006:00000484       __imp__HeapFree@12         00554484     kernel32:KERNEL32.dll
 0006:00000488       __imp__RtlUnwind@16        00554488     kernel32:KERNEL32.dll
 0006:0000048c       __imp__WaitForSingleObject@8 0055448c     kernel32:KERNEL32.dll
 0006:00000490       \177KERNEL32_NULL_THUNK_DATA 00554490     kernel32:KERNEL32.dll
 0006:00000494       __imp__ERR_reason_error_string 00554494     libeay32:LIBEAY32.dll
 0006:00000498       __imp__BN_bin2bn           00554498     libeay32:LIBEAY32.dll
 0006:0000049c       __imp__RSA_new             0055449c     libeay32:LIBEAY32.dll
 0006:000004a0       __imp__ERR_error_string    005544a0     libeay32:LIBEAY32.dll
 0006:000004a4       __imp__ERR_get_error       005544a4     libeay32:LIBEAY32.dll
 0006:000004a8       __imp__RSA_public_encrypt  005544a8     libeay32:LIBEAY32.dll
 0006:000004ac       __imp__RSA_private_decrypt 005544ac     libeay32:LIBEAY32.dll
 0006:000004b0       __imp__RSA_free            005544b0     libeay32:LIBEAY32.dll
 0006:000004b4       \177LIBEAY32_NULL_THUNK_DATA 005544b4     libeay32:LIBEAY32.dll
 0006:000004b8       __imp__DispatchMessageA@4  005544b8     user32:USER32.dll
 0006:000004bc       __imp__TranslateMessage@4  005544bc     user32:USER32.dll
 0006:000004c0       __imp__LoadCursorA@8       005544c0     user32:USER32.dll
 0006:000004c4       __imp__LoadIconA@8         005544c4     user32:USER32.dll
 0006:000004c8       __imp__RegisterClassExA@4  005544c8     user32:USER32.dll
 0006:000004cc       __imp__CreateWindowExA@48  005544cc     user32:USER32.dll
 0006:000004d0       __imp__DestroyWindow@4     005544d0     user32:USER32.dll
 0006:000004d4       __imp__wvsprintfA@12       005544d4     user32:USER32.dll
 0006:000004d8       __imp__wsprintfA           005544d8     user32:USER32.dll
 0006:000004dc       __imp__GetMessageA@16      005544dc     user32:USER32.dll
 0006:000004e0       __imp__PostMessageA@16     005544e0     user32:USER32.dll
 0006:000004e4       \177USER32_NULL_THUNK_DATA 005544e4     user32:USER32.dll
 0006:000004e8       __imp__GetFileVersionInfoA@16 005544e8     version:VERSION.dll
 0006:000004ec       __imp__VerQueryValueA@16   005544ec     version:VERSION.dll
 0006:000004f0       __imp__GetFileVersionInfoSizeA@8 005544f0     version:VERSION.dll
 0006:000004f4       \177VERSION_NULL_THUNK_DATA 005544f4     version:VERSION.dll
 0006:000004f8       __imp__recv@16             005544f8     wsock32:WSOCK32.dll
 0006:000004fc       __imp__WSAStartup@8        005544fc     wsock32:WSOCK32.dll
 0006:00000500       __imp__WSACleanup@0        00554500     wsock32:WSOCK32.dll
 0006:00000504       __imp__inet_ntoa@4         00554504     wsock32:WSOCK32.dll
 0006:00000508       __imp__inet_addr@4         00554508     wsock32:WSOCK32.dll
 0006:0000050c       __imp__send@16             0055450c     wsock32:WSOCK32.dll
 0006:00000510       __imp__gethostbyname@4     00554510     wsock32:WSOCK32.dll
 0006:00000514       __imp__ntohl@4             00554514     wsock32:WSOCK32.dll
 0006:00000518       __imp__getsockname@12      00554518     wsock32:WSOCK32.dll
 0006:0000051c       __imp__getsockopt@20       0055451c     wsock32:WSOCK32.dll
 0006:00000520       __imp__sendto@24           00554520     wsock32:WSOCK32.dll
 0006:00000524       __imp__recvfrom@24         00554524     wsock32:WSOCK32.dll
 0006:00000528       __imp__ioctlsocket@12      00554528     wsock32:WSOCK32.dll
 0006:0000052c       __imp__setsockopt@20       0055452c     wsock32:WSOCK32.dll
 0006:00000530       __imp__bind@12             00554530     wsock32:WSOCK32.dll
 0006:00000534       __imp__ntohs@4             00554534     wsock32:WSOCK32.dll
 0006:00000538       __imp__closesocket@4       00554538     wsock32:WSOCK32.dll
 0006:0000053c       __imp__gethostname@8       0055453c     wsock32:WSOCK32.dll
 0006:00000540       __imp__select@20           00554540     wsock32:WSOCK32.dll
 0006:00000544       __imp__WSAGetLastError@0   00554544     wsock32:WSOCK32.dll
 0006:00000548       __imp__socket@12           00554548     wsock32:WSOCK32.dll
 0006:0000054c       __imp____WSAFDIsSet@8      0055454c     wsock32:WSOCK32.dll
 0006:00000550       __imp__connect@12          00554550     wsock32:WSOCK32.dll
 0006:00000554       __imp__htons@4             00554554     wsock32:WSOCK32.dll
 0006:00000558       __imp__listen@8            00554558     wsock32:WSOCK32.dll
 0006:0000055c       __imp__accept@12           0055455c     wsock32:WSOCK32.dll
 0006:00000560       __imp__htonl@4             00554560     wsock32:WSOCK32.dll
 0006:00000564       \177WSOCK32_NULL_THUNK_DATA 00554564     wsock32:WSOCK32.dll
 0006:00000568       __imp__X_ClientStart@12    00554568     XClientDLL:XClientDLL.dll
 0006:0000056c       __imp__X_ClientInit@8      0055456c     XClientDLL:XClientDLL.dll
 0006:00000570       __imp__X_ClientSetCapPicCallBack@4 00554570     XClientDLL:XClientDLL.dll
 0006:00000574       __imp__X_ClientStop@8      00554574     XClientDLL:XClientDLL.dll
 0006:00000578       \177XClientDLL_NULL_THUNK_DATA 00554578     XClientDLL:XClientDLL.dll
 0006:0000057c       __imp__MiniDumpWriteDump@28 0055457c     dbghelp:dbghelp.dll
 0006:00000580       \177dbghelp_NULL_THUNK_DATA 00554580     dbghelp:dbghelp.dll

 entry point at        0001:0007497f

 Static symbols

 0001:000185d0       _$E22                      004195d0 f   RTSPServer.obj
 0001:000185e0       _$E19                      004195e0 f   RTSPServer.obj
 0001:00018600       _$E21                      00419600 f   RTSPServer.obj
 0001:00018610       _$E20                      00419610 f   RTSPServer.obj
 0001:00019100       _$E8                       0041a100 f   RTSPServer.obj
 0001:00019110       _$E7                       0041a110 f   RTSPServer.obj
 0001:00019f00       _$E11                      0041af00 f   RTSPServer.obj
 0001:00019f10       _$E10                      0041af10 f   RTSPServer.obj
 0001:00019f40       _$E14                      0041af40 f   RTSPServer.obj
 0001:00019f50       _$E13                      0041af50 f   RTSPServer.obj
 0001:0001b890       ?parseAuthorizationHeader@@YAIPBDAAPBD1111@Z 0041c890 f   RTSPServer.obj
 0001:00010ea0       ?deregisterSocket@@YAXAAVUsageEnvironment@@HE@Z 00411ea0 f   RTPInterface.obj
 0001:00010ed0       ?lookupSocketDescriptor@@YAPAVSocketDescriptor@@AAVUsageEnvironment@@HI@Z 00411ed0 f   RTPInterface.obj
 0001:00010f60       ?socketHashTable@@YAPAVHashTable@@AAVUsageEnvironment@@@Z 00411f60 f   RTPInterface.obj
 0001:00011200       ?sendRTPOverTCP@@YAHPAEIHE@Z 00412200 f   RTPInterface.obj
 0001:00011420       ?removeSocketDescription@@YAXAAVUsageEnvironment@@H@Z 00412420 f   RTPInterface.obj
 0001:0000f7b0       ?dTimeNow@@YANXZ           004107b0 f   RTCP.obj
 0001:0000e680       _MD5Transform              0040f680 f   our_md5.obj
 0001:0000efc0       _Decode                    0040ffc0 f   our_md5.obj
 0001:0000f080       _Encode                    00410080 f   our_md5.obj
 0001:0000e560       _$E21                      0040f560 f   NetInterface.obj
 0001:0000e580       _$E20                      0040f580 f   NetInterface.obj
 0001:00009f40       _$E28                      0040af40 f   mainSdk.obj
 0001:00009f50       _$E27                      0040af50 f   mainSdk.obj
 0001:00009ff0       _$E2                       0040aff0 f   mainSdk.obj
 0001:0000a000       _$E1                       0040b000 f   mainSdk.obj
 0001:0000a030       _$E5                       0040b030 f   mainSdk.obj
 0001:0000a040       _$E4                       0040b040 f   mainSdk.obj
 0001:0000a0c0       _$E8                       0040b0c0 f   mainSdk.obj
 0001:0000a0d0       _$E7                       0040b0d0 f   mainSdk.obj
 0001:00007ce0       ?socketErr@@YAXAAVUsageEnvironment@@PBD@Z 00408ce0 f   GroupsockHelper.obj
 0001:00007f30       ?blockUntilReadable@@YAHAAVUsageEnvironment@@HPAUtimeval@@@Z 00408f30 f   GroupsockHelper.obj
 0001:00008160       ?getBufferSize@@YAIAAVUsageEnvironment@@HH@Z 00409160 f   GroupsockHelper.obj
 0001:000081f0       ?setBufferTo@@YAIAAVUsageEnvironment@@HHI@Z 004091f0 f   GroupsockHelper.obj
 0001:00008260       ?increaseBufferTo@@YAIAAVUsageEnvironment@@HHI@Z 00409260 f   GroupsockHelper.obj
 0001:00008520       ?getSourcePort0@@YAIHAAG@Z 00409520 f   GroupsockHelper.obj
 0001:000087b0       ?badAddress@@YAII@Z        004097b0 f   GroupsockHelper.obj
 0001:00006a30       _$E21                      00407a30 f   Groupsock.obj
 0001:00006a40       _$E20                      00407a40 f   Groupsock.obj
 0001:00006a50       _$E24                      00407a50 f   Groupsock.obj
 0001:00006a60       _$E23                      00407a60 f   Groupsock.obj
 0001:00006a70       _$E27                      00407a70 f   Groupsock.obj
 0001:00006a80       _$E26                      00407a80 f   Groupsock.obj
 0001:00006a90       _$E30                      00407a90 f   Groupsock.obj
 0001:00006aa0       _$E29                      00407aa0 f   Groupsock.obj
 0001:00007880       ?getGroupsockBySocket@@YAPAVGroupsock@@AAVUsageEnvironment@@H@Z 00408880 f   Groupsock.obj
 0001:000078b0       ?getSocketTable@@YAPAVHashTable@@AAVUsageEnvironment@@@Z 004088b0 f   Groupsock.obj
 0001:00007910       ?unsetGroupsockBySocket@@YAIPBVGroupsock@@@Z 00408910 f   Groupsock.obj
 0001:00007a70       ?setGroupsockBySocket@@YAIAAVUsageEnvironment@@HPAVGroupsock@@@Z 00408a70 f   Groupsock.obj
 0001:00007b40       _$E37                      00408b40 f   Groupsock.obj
 0001:00007b60       _$E36                      00408b60 f   Groupsock.obj
 0001:00005250       ?lstrrchr@@YAPADPBDH@Z     00406250 f   ExceptionHandler.obj
 0001:00005290       ?hflush@@YAXPAX@Z          00406290 f   ExceptionHandler.obj
 0001:000052d0       ?hprintf@@YAXPAXPBDZZ      004062d0 f   ExceptionHandler.obj
 0001:00005330       ?DumpMiniDump@@YAXPAXPAU_EXCEPTION_POINTERS@@@Z 00406330 f   ExceptionHandler.obj
 0001:00005410       ?DumpModuleList@@YAXPAX@Z  00406410 f   ExceptionHandler.obj
 0001:000054c0       ?DumpModuleInfo@@YA_NPAXPAUHINSTANCE__@@H@Z 004064c0 f   ExceptionHandler.obj
 0001:000057f0       ?FormatTime@@YAXPADU_FILETIME@@@Z 004067f0 f   ExceptionHandler.obj
 0001:00005880       ?DumpSystemInformation@@YAXPAX@Z 00406880 f   ExceptionHandler.obj
 0001:00005a80       ?GetExceptionDescription@@YAPBDK@Z 00406a80 f   ExceptionHandler.obj
 0001:00005c70       ?GetFilePart@@YAPADPBD@Z   00406c70 f   ExceptionHandler.obj
 0001:00005c90       ?DumpStack@@YAXPAXPAK@Z    00406c90 f   ExceptionHandler.obj
 0001:00005e40       ?DumpRegisters@@YAXPAXPAU_CONTEXT@@@Z 00406e40 f   ExceptionHandler.obj
 0001:00003d90       ?afterPlayingStreamState@@YAXPAX@Z 00404d90 f   EncoderMediaSubsession.obj
 0001:00002dd0       ?WndProc@@YGJPAUHWND__@@IIJ@Z 00403dd0 f   DvrWnd.obj
 0001:000022e0       _$E12                      004032e0 f   DelayQueue.obj
 0001:000022f0       _$E11                      004032f0 f   DelayQueue.obj
 0001:00002300       _$E15                      00403300 f   DelayQueue.obj
 0001:00002310       _$E14                      00403310 f   DelayQueue.obj
 0001:00002330       _$E18                      00403330 f   DelayQueue.obj
 0001:00002340       _$E17                      00403340 f   DelayQueue.obj
 0001:000026c0       _$E2                       004036c0 f   DelayQueue.obj
 0001:000026d0       _$E1                       004036d0 f   DelayQueue.obj
 0001:000027d0       _$E5                       004037d0 f   DelayQueue.obj
 0001:000027e0       _$E4                       004037e0 f   DelayQueue.obj
 0001:00002810       _$E8                       00403810 f   DelayQueue.obj
 0001:00002820       _$E7                       00403820 f   DelayQueue.obj
 0001:00002880       _$E21                      00403880 f   DelayQueue.obj
 0001:00002890       _$E20                      00403890 f   DelayQueue.obj
 0001:000020c0       _$E2                       004030c0 f   BasicUsageEnvironment0.obj
 0001:000020d0       _$E1                       004030d0 f   BasicUsageEnvironment0.obj
 0001:00002100       _$E5                       00403100 f   BasicUsageEnvironment0.obj
 0001:00002110       _$E4                       00403110 f   BasicUsageEnvironment0.obj
 0001:00002140       _$E8                       00403140 f   BasicUsageEnvironment0.obj
 0001:00002150       _$E7                       00403150 f   BasicUsageEnvironment0.obj
 0001:00001e20       _$E2                       00402e20 f   BasicUsageEnvironment.obj
 0001:00001e30       _$E1                       00402e30 f   BasicUsageEnvironment.obj
 0001:00001e60       _$E5                       00402e60 f   BasicUsageEnvironment.obj
 0001:00001e70       _$E4                       00402e70 f   BasicUsageEnvironment.obj
 0001:00001ea0       _$E8                       00402ea0 f   BasicUsageEnvironment.obj
 0001:00001eb0       _$E7                       00402eb0 f   BasicUsageEnvironment.obj
 0001:000018c0       _$E2                       004028c0 f   BasicTaskScheduler0.obj
 0001:000018d0       _$E1                       004028d0 f   BasicTaskScheduler0.obj
 0001:00001900       _$E5                       00402900 f   BasicTaskScheduler0.obj
 0001:00001910       _$E4                       00402910 f   BasicTaskScheduler0.obj
 0001:00001940       _$E8                       00402940 f   BasicTaskScheduler0.obj
 0001:00001950       _$E7                       00402950 f   BasicTaskScheduler0.obj
 0001:00001140       _$E2                       00402140 f   BasicTaskScheduler.obj
 0001:00001150       _$E1                       00402150 f   BasicTaskScheduler.obj
 0001:00001180       _$E5                       00402180 f   BasicTaskScheduler.obj
 0001:00001190       _$E4                       00402190 f   BasicTaskScheduler.obj
 0001:000011c0       _$E8                       004021c0 f   BasicTaskScheduler.obj
 0001:000011d0       _$E7                       004021d0 f   BasicTaskScheduler.obj
 0001:0006fd20       _SearchInterpolate_RD      00470d20 f   libxvidcore:estimation_rd_based_bvop.obj
 0001:0006fdf0       _CheckCandidateRDInt       00470df0 f   libxvidcore:estimation_rd_based_bvop.obj
 0001:000707b0       _SearchDirect_RD           004717b0 f   libxvidcore:estimation_rd_based_bvop.obj
 0001:000707f0       _CheckCandidateRDDirect    004717f0 f   libxvidcore:estimation_rd_based_bvop.obj
 0001:00071190       _SearchBF_RD               00472190 f   libxvidcore:estimation_rd_based_bvop.obj
 0001:00071260       _CheckCandidateRDBF        00472260 f   libxvidcore:estimation_rd_based_bvop.obj
 0001:00071960       _get_sad_for_mode          00472960 f   libxvidcore:estimation_rd_based_bvop.obj
 0001:0006c360       _findRD_inter              0046d360 f   libxvidcore:estimation_rd_based.obj
 0001:0006c620       _CheckCandidateRD16        0046d620 f   libxvidcore:estimation_rd_based.obj
 0001:0006cdf0       _findRD_inter4v            0046ddf0 f   libxvidcore:estimation_rd_based.obj
 0001:0006da80       _CheckCandidateRD8         0046ea80 f   libxvidcore:estimation_rd_based.obj
 0001:0006dd10       _findRD_intra              0046ed10 f   libxvidcore:estimation_rd_based.obj
 0001:0006e2d0       _Block_CalcBitsIntra       0046f2d0 f   libxvidcore:estimation_rd_based.obj
 0001:0006e530       _findRD_gmc                0046f530 f   libxvidcore:estimation_rd_based.obj
 0001:00069440       _initialize_searchData     0046a440 f   libxvidcore:estimation_bvop.obj
 0001:000696a0       _SearchBF_initial          0046a6a0 f   libxvidcore:estimation_bvop.obj
 0001:000699f0       _SearchBF_final            0046a9f0 f   libxvidcore:estimation_bvop.obj
 0001:00069bb0       _SkipDecisionB             0046abb0 f   libxvidcore:estimation_bvop.obj
 0001:00069e20       _SearchDirect_initial      0046ae20 f   libxvidcore:estimation_bvop.obj
 0001:0006a120       _CheckCandidateDirect      0046b120 f   libxvidcore:estimation_bvop.obj
 0001:0006a4d0       _ChromaSAD2                0046b4d0 f   libxvidcore:estimation_bvop.obj
 0001:0006a6f0       _SearchDirect_final        0046b6f0 f   libxvidcore:estimation_bvop.obj
 0001:0006a7a0       _CheckCandidateDirectno4v  0046b7a0 f   libxvidcore:estimation_bvop.obj
 0001:0006aa60       _SearchInterpolate_initial 0046ba60 f   libxvidcore:estimation_bvop.obj
 0001:0006ac40       _CheckCandidateInt         0046bc40 f   libxvidcore:estimation_bvop.obj
 0001:0006af60       _SearchInterpolate_final   0046bf60 f   libxvidcore:estimation_bvop.obj
 0001:0006b260       _ModeDecision_BVOP_SAD     0046c260 f   libxvidcore:estimation_bvop.obj
 0001:00067ab0       _CheckCandidate16I         00468ab0 f   libxvidcore:estimation_gmc.obj
 0001:00064e10       _ModeDecision_SAD          00465e10 f   libxvidcore:estimation_pvop.obj
 0001:00065340       _SearchP                   00466340 f   libxvidcore:estimation_pvop.obj
 0001:000660f0       _CheckCandidate16          004670f0 f   libxvidcore:estimation_pvop.obj
 0001:00066320       _Search8                   00467320 f   libxvidcore:estimation_pvop.obj
 0001:00066800       _CheckCandidate8           00467800 f   libxvidcore:estimation_pvop.obj
 0001:00066950       _InitialSkipDecisionP      00467950 f   libxvidcore:estimation_pvop.obj
 0001:00062a20       _get_ref                   00463a20 f   libxvidcore:motion_comp.obj
 0001:00062b10       _CompensateChroma          00463b10 f   libxvidcore:motion_comp.obj
 0001:00064160       _interpolate8x8_switch2    00465160 f   libxvidcore:motion_comp.obj
 0001:00064200       _interpolate16x16_quarterpel 00465200 f   libxvidcore:motion_comp.obj
 0001:000644c0       _interpolate8x8_quarterpel 004654c0 f   libxvidcore:motion_comp.obj
 0001:00061fe0       _CheckCandidate32I         00462fe0 f   libxvidcore:vop_type_decision.obj
 0001:0005f660       _DPRINTF                   00460660 f   libxvidcore:mbprediction.obj
 0001:0005f820       _calc_acdc_coeff           00460820 f   libxvidcore:mbprediction.obj
 0001:0005f950       _calc_acdc_bits            00460950 f   libxvidcore:mbprediction.obj
 0001:0005fac0       _apply_acdc                00460ac0 f   libxvidcore:mbprediction.obj
 0001:000599a0       _DPRINTF                   0045a9a0 f   libxvidcore:bitstream.obj
 0001:000599b0       _BitstreamShowBits         0045a9b0 f   libxvidcore:bitstream.obj
 0001:00059a10       _BitstreamSkip             0045aa10 f   libxvidcore:bitstream.obj
 0001:0005c360       _bs_get_matrix             0045d360 f   libxvidcore:bitstream.obj
 0001:0005c450       _read_vol_complexity_estimation_header 0045d450 f   libxvidcore:bitstream.obj
 0001:0005c9b0       _read_vop_complexity_estimation_header 0045d9b0 f   libxvidcore:bitstream.obj
 0001:0005dd10       _BitstreamForward          0045ed10 f   libxvidcore:bitstream.obj
 0001:0005dd60       _BitstreamPutBits          0045ed60 f   libxvidcore:bitstream.obj
 0001:0005de80       _bs_put_matrix             0045ee80 f   libxvidcore:bitstream.obj
 0001:000591e0       _draw_num                  0045a1e0 f   libxvidcore:font.obj
 0001:00056be0       _DPRINTF                   00457be0 f   libxvidcore:encoder.obj
 0001:00056bf0       _call_plugins              00457bf0 f   libxvidcore:encoder.obj
 0001:000572c0       _simplify_par              004582c0 f   libxvidcore:encoder.obj
 0001:00057370       _gcd                       00458370 f   libxvidcore:encoder.obj
 0001:000573a0       _FrameCodeI                004583a0 f   libxvidcore:encoder.obj
 0001:000577b0       _BitstreamPutBits          004587b0 f   libxvidcore:encoder.obj
 0001:000578d0       _SetMacroblockQuants       004588d0 f   libxvidcore:encoder.obj
 0001:00057950       _FrameCodeP                00458950 f   libxvidcore:encoder.obj
 0001:000586a0       _FrameCodeB                004596a0 f   libxvidcore:encoder.obj
 0001:0004e3a0       _decoder_resize            0044f3a0 f   libxvidcore:decoder.obj
 0001:0004f030       _DPRINTF                   00450030 f   libxvidcore:decoder.obj
 0001:0004f040       _decoder_iframe            00450040 f   libxvidcore:decoder.obj
 0001:0004f480       _decoder_mbintra           00450480 f   libxvidcore:decoder.obj
 0001:0004f7e0       _decoder_pframe            004507e0 f   libxvidcore:decoder.obj
 0001:00050320       _decoder_mbinter           00451320 f   libxvidcore:decoder.obj
 0001:00051070       _decoder_mb_decode         00452070 f   libxvidcore:decoder.obj
 0001:00051200       _interpolate8x8_switch     00452200 f   libxvidcore:decoder.obj
 0001:000512a0       _decoder_mbinter_field     004522a0 f   libxvidcore:decoder.obj
 0001:00051ac0       _interpolate8x4_switch     00452ac0 f   libxvidcore:decoder.obj
 0001:00051b60       _decoder_mbgmc             00452b60 f   libxvidcore:decoder.obj
 0001:00051d30       _get_motion_vector         00452d30 f   libxvidcore:decoder.obj
 0001:00051e20       _get_motion_vector_interlaced 00452e20 f   libxvidcore:decoder.obj
 0001:00052020       _interpolate8x8_quarterpel 00453020 f   libxvidcore:decoder.obj
 0001:000522b0       _decoder_bframe            004532b0 f   libxvidcore:decoder.obj
 0001:00052ee0       _get_b_motion_vector       00453ee0 f   libxvidcore:decoder.obj
 0001:00052f70       _decoder_bf_interpolate_mbinter 00453f70 f   libxvidcore:decoder.obj
 0001:00054830       _interpolate8x8_add_switch 00455830 f   libxvidcore:decoder.obj
 0001:000548d0       _interpolate16x16_add_quarterpel 004558d0 f   libxvidcore:decoder.obj
 0001:00054b70       _interpolate8x8_add_quarterpel 00455b70 f   libxvidcore:decoder.obj
 0001:00054de0       _decoder_output            00455de0 f   libxvidcore:decoder.obj
 0001:0004c9e0       _DPRINTF                   0044d9e0 f   libxvidcore:image.obj
 0001:0004d150       _safe_packed_conv          0044e150 f   libxvidcore:image.obj
 0001:0004e110       _deinterlace_c             0044f110 f   libxvidcore:image.obj
 0001:00049800       _BitstreamPos              0044a800 f   libxvidcore:mbcoding.obj
 0001:00049830       _BitstreamForward          0044a830 f   libxvidcore:mbcoding.obj
 0001:00049880       _CodeCoeffIntra            0044a880 f   libxvidcore:mbcoding.obj
 0001:00049b90       _BitstreamPutBits          0044ab90 f   libxvidcore:mbcoding.obj
 0001:00049cb0       _CodeBlockInter            0044acb0 f   libxvidcore:mbcoding.obj
 0001:0004a1b0       _DPRINTF                   0044b1b0 f   libxvidcore:mbcoding.obj
 0001:0004a1c0       _CodeVector                0044b1c0 f   libxvidcore:mbcoding.obj
 0001:0004a540       _CodeCoeffInter            0044b540 f   libxvidcore:mbcoding.obj
 0001:0004b2e0       _BitstreamShowBits         0044c2e0 f   libxvidcore:mbcoding.obj
 0001:00046420       _MBiDCT                    00447420 f   libxvidcore:mbtransquant.obj
 0001:000464b0       _get_dc_scaler             004474b0 f   libxvidcore:mbtransquant.obj
 0001:000464f0       _MBTrans16to8              004474f0 f   libxvidcore:mbtransquant.obj
 0001:00047370       _dct_quantize_trellis_c    00448370 f   libxvidcore:mbtransquant.obj
 0001:0002ac30       _Predict_16x16_C           0042bc30 f   libxvidcore:gmc.obj
 0001:0002ae20       _Predict_8x8_C             0042be20 f   libxvidcore:gmc.obj
 0001:0002b0a0       _Predict_16x16_mmx         0042c0a0 f   libxvidcore:gmc.obj
 0001:0002b440       _GMC_Core_Non_Lin_8        0042c440 f   libxvidcore:gmc.obj
 0001:0002b4f0       _Predict_8x8_mmx           0042c4f0 f   libxvidcore:gmc.obj
 0001:0002bac0       _get_average_mv_C          0042cac0 f   libxvidcore:gmc.obj
 0001:0002bc20       _Predict_1pt_16x16_C       0042cc20 f   libxvidcore:gmc.obj
 0001:0002bd90       _Predict_1pt_8x8_C         0042cd90 f   libxvidcore:gmc.obj
 0001:0002bfb0       _get_average_mv_1pt_C      0042cfb0 f   libxvidcore:gmc.obj
 0001:000205f0       _H_Pass_16_C_ref           004215f0 f   libxvidcore:qpel.obj
 0001:000206b0       _V_Pass_16_C_ref           004216b0 f   libxvidcore:qpel.obj
 0001:00020780       _H_Pass_Avrg_16_C_ref      00421780 f   libxvidcore:qpel.obj
 0001:00020860       _H_Pass_Avrg_Up_16_C_ref   00421860 f   libxvidcore:qpel.obj
 0001:00020930       _V_Pass_Avrg_16_C_ref      00421930 f   libxvidcore:qpel.obj
 0001:00020a10       _V_Pass_Avrg_Up_16_C_ref   00421a10 f   libxvidcore:qpel.obj
 0001:00020b00       _H_Pass_16_Add_C_ref       00421b00 f   libxvidcore:qpel.obj
 0001:00020bd0       _V_Pass_16_Add_C_ref       00421bd0 f   libxvidcore:qpel.obj
 0001:00020ca0       _H_Pass_Avrg_16_Add_C_ref  00421ca0 f   libxvidcore:qpel.obj
 0001:00020d80       _H_Pass_Avrg_Up_16_Add_C_ref 00421d80 f   libxvidcore:qpel.obj
 0001:00020e60       _V_Pass_Avrg_16_Add_C_ref  00421e60 f   libxvidcore:qpel.obj
 0001:00020f50       _V_Pass_Avrg_Up_16_Add_C_ref 00421f50 f   libxvidcore:qpel.obj
 0001:00021050       _H_Pass_8_C_ref            00422050 f   libxvidcore:qpel.obj
 0001:00021110       _V_Pass_8_C_ref            00422110 f   libxvidcore:qpel.obj
 0001:000211e0       _H_Pass_Avrg_8_C_ref       004221e0 f   libxvidcore:qpel.obj
 0001:000212c0       _H_Pass_Avrg_Up_8_C_ref    004222c0 f   libxvidcore:qpel.obj
 0001:00021390       _V_Pass_Avrg_8_C_ref       00422390 f   libxvidcore:qpel.obj
 0001:00021470       _V_Pass_Avrg_Up_8_C_ref    00422470 f   libxvidcore:qpel.obj
 0001:00021560       _H_Pass_8_Add_C_ref        00422560 f   libxvidcore:qpel.obj
 0001:00021630       _V_Pass_8_Add_C_ref        00422630 f   libxvidcore:qpel.obj
 0001:00021700       _H_Pass_Avrg_8_Add_C_ref   00422700 f   libxvidcore:qpel.obj
 0001:000217e0       _H_Pass_Avrg_Up_8_Add_C_ref 004227e0 f   libxvidcore:qpel.obj
 0001:000218c0       _V_Pass_Avrg_8_Add_C_ref   004228c0 f   libxvidcore:qpel.obj
 0001:000219b0       _V_Pass_Avrg_Up_8_Add_C_ref 004229b0 f   libxvidcore:qpel.obj
 0001:00021ab0       _H_Pass_16_C               00422ab0 f   libxvidcore:qpel.obj
 0001:000220d0       _H_Pass_Avrg_16_C          004230d0 f   libxvidcore:qpel.obj
 0001:00022790       _H_Pass_Avrg_Up_16_C       00423790 f   libxvidcore:qpel.obj
 0001:00022e50       _V_Pass_16_C               00423e50 f   libxvidcore:qpel.obj
 0001:00023690       _V_Pass_Avrg_16_C          00424690 f   libxvidcore:qpel.obj
 0001:00023fb0       _V_Pass_Avrg_Up_16_C       00424fb0 f   libxvidcore:qpel.obj
 0001:000248d0       _H_Pass_16_Add_C           004258d0 f   libxvidcore:qpel.obj
 0001:00024ff0       _H_Pass_Avrg_16_Add_C      00425ff0 f   libxvidcore:qpel.obj
 0001:00025760       _H_Pass_Avrg_Up_16_Add_C   00426760 f   libxvidcore:qpel.obj
 0001:00025ed0       _V_Pass_16_Add_C           00426ed0 f   libxvidcore:qpel.obj
 0001:000267d0       _V_Pass_Avrg_16_Add_C      004277d0 f   libxvidcore:qpel.obj
 0001:000271a0       _V_Pass_Avrg_Up_16_Add_C   004281a0 f   libxvidcore:qpel.obj
 0001:00027b70       _H_Pass_8_C                00428b70 f   libxvidcore:qpel.obj
 0001:00027e90       _H_Pass_Avrg_8_C           00428e90 f   libxvidcore:qpel.obj
 0001:00028200       _H_Pass_Avrg_Up_8_C        00429200 f   libxvidcore:qpel.obj
 0001:00028560       _V_Pass_8_C                00429560 f   libxvidcore:qpel.obj
 0001:00028910       _V_Pass_Avrg_8_C           00429910 f   libxvidcore:qpel.obj
 0001:00028d60       _V_Pass_Avrg_Up_8_C        00429d60 f   libxvidcore:qpel.obj
 0001:000291a0       _H_Pass_8_Add_C            0042a1a0 f   libxvidcore:qpel.obj
 0001:00029520       _H_Pass_Avrg_8_Add_C       0042a520 f   libxvidcore:qpel.obj
 0001:000298e0       _H_Pass_Avrg_Up_8_Add_C    0042a8e0 f   libxvidcore:qpel.obj
 0001:00029ca0       _V_Pass_8_Add_C            0042aca0 f   libxvidcore:qpel.obj
 0001:0002a0b0       _V_Pass_Avrg_8_Add_C       0042b0b0 f   libxvidcore:qpel.obj
 0001:0002a560       _V_Pass_Avrg_Up_8_Add_C    0042b560 f   libxvidcore:qpel.obj
 0001:0002ab70       _Init_FIR_Table            0042bb70 f   libxvidcore:qpel.obj
 0001:000201a0       _rc_single_create          004211a0 f   libxvidcore:plugin_single.obj
 0001:000202f0       _get_initial_quant         004212f0 f   libxvidcore:plugin_single.obj
 0001:00020300       _rc_single_destroy         00421300 f   libxvidcore:plugin_single.obj
 0001:00020310       _rc_single_before          00421310 f   libxvidcore:plugin_single.obj
 0001:00020390       _rc_single_after           00421390 f   libxvidcore:plugin_single.obj
 0001:000205e0       _DPRINTF                   004215e0 f   libxvidcore:plugin_single.obj
 0001:0001e2c0       _rc_2pass2_create          0041f2c0 f   libxvidcore:plugin_2pass2.obj
 0001:0001e760       _DPRINTF                   0041f760 f   libxvidcore:plugin_2pass2.obj
 0001:0001e770       _rc_2pass2_destroy         0041f770 f   libxvidcore:plugin_2pass2.obj
 0001:0001e7a0       _rc_2pass2_before          0041f7a0 f   libxvidcore:plugin_2pass2.obj
 0001:0001ebc0       _rc_2pass2_after           0041fbc0 f   libxvidcore:plugin_2pass2.obj
 0001:0001ed80       _statsfile_count_frames    0041fd80 f   libxvidcore:plugin_2pass2.obj
 0001:0001eec0       _statsfile_load            0041fec0 f   libxvidcore:plugin_2pass2.obj
 0001:0001f060       _first_pass_stats_prepare_data 00420060 f   libxvidcore:plugin_2pass2.obj
 0001:0001f1f0       _zone_process              004201f0 f   libxvidcore:plugin_2pass2.obj
 0001:0001f440       _first_pass_scale_curve_internal 00420440 f   libxvidcore:plugin_2pass2.obj
 0001:0001f5d0       _scaled_curve_apply_advanced_parameters 004205d0 f   libxvidcore:plugin_2pass2.obj
 0001:0001f8b0       _check_curve_for_vbv_compliancy 004208b0 f   libxvidcore:plugin_2pass2.obj
 0001:0001fa30       _scale_curve_for_vbv_compliancy 00420a30 f   libxvidcore:plugin_2pass2.obj
 0001:0001ffb0       _readline                  00420fb0 f   libxvidcore:plugin_2pass2.obj
 0001:00020040       _skipspaces                00421040 f   libxvidcore:plugin_2pass2.obj
 0001:00020090       _iscomment                 00421090 f   libxvidcore:plugin_2pass2.obj
 0001:0001e030       _rc_2pass1_create          0041f030 f   libxvidcore:plugin_2pass1.obj
 0001:0001e0d0       _rc_2pass1_destroy         0041f0d0 f   libxvidcore:plugin_2pass1.obj
 0001:0001e100       _rc_2pass1_before          0041f100 f   libxvidcore:plugin_2pass1.obj
 0001:0001e190       _rc_2pass1_after           0041f190 f   libxvidcore:plugin_2pass1.obj
 0001:0001d380       _xvid_gbl_init             0041e380 f   libxvidcore:xvid.obj
 0001:0001dcf0       _detect_cpu_flags          0041ecf0 f   libxvidcore:xvid.obj
 0001:0001dd40       _sigill_check              0041ed40 f   libxvidcore:xvid.obj
 0001:0001ddd0       _xvid_gbl_info             0041edd0 f   libxvidcore:xvid.obj
 0001:0001de30       _xvid_gbl_convert          0041ee30 f   libxvidcore:xvid.obj
 0001:0007ffe3       _findenv                   00480fe3 f   LIBC:setenv.obj
 0001:0008003b       _copy_environ              0048103b f   LIBC:setenv.obj
 0001:0007fe31       _strncnt                   00480e31 f   LIBC:a_cmp.obj
 0001:0007e812       _getSystemCP               0047f812 f   LIBC:mbctype.obj
 0001:0007e85c       _CPtoLCID                  0047f85c f   LIBC:mbctype.obj
 0001:0007e88f       _setSBCS                   0047f88f f   LIBC:mbctype.obj
 0001:0007e8b8       _setSBUpLow                0047f8b8 f   LIBC:mbctype.obj
 0001:0007e5d1       _strncnt                   0047f5d1 f   LIBC:a_map.obj
 0001:0007de7e       _xtoa                      0047ee7e f   LIBC:xtoa.obj
 0001:0007df50       _x64toa@20                 0047ef50 f   LIBC:xtoa.obj
 0001:0007d2b6       _strtoxl                   0047e2b6 f   LIBC:strtol.obj
 0001:0007cb21       __abstract_cw              0047db21 f   LIBC:ieee87.obj
 0001:0007cbb3       __hw_cw                    0047dbb3 f   LIBC:ieee87.obj
 0001:0007cc3c       __abstract_sw              0047dc3c f   LIBC:ieee87.obj
 0001:0007c476       _parse_cmdline             0047d476 f   LIBC:stdargv.obj
 0001:0007c2e1       _xcptlookup                0047d2e1 f   LIBC:winxfltr.obj
 0001:0007bcba       _cvtdate                   0047ccba f   LIBC:tzset.obj
 0001:0007b73c       __hextodec                 0047c73c f   LIBC:input.obj
 0001:0007b773       __inc                      0047c773 f   LIBC:input.obj
 0001:0007b78d       __un_inc                   0047c78d f   LIBC:input.obj
 0001:0007b7a4       __whiteout                 0047c7a4 f   LIBC:input.obj
 0001:0007a177       _TranslateName             0047b177 f   LIBC:getqloc.obj
 0001:0007a1cf       _GetLcidFromLangCountry    0047b1cf f   LIBC:getqloc.obj
 0001:0007a256       _LangCountryEnumProc@4     0047b256 f   LIBC:getqloc.obj
 0001:0007a45a       _GetLcidFromLanguage       0047b45a f   LIBC:getqloc.obj
 0001:0007a4b0       _LanguageEnumProc@4        0047b4b0 f   LIBC:getqloc.obj
 0001:0007a56d       _GetLcidFromCountry        0047b56d f   LIBC:getqloc.obj
 0001:0007a5a4       _CountryEnumProc@4         0047b5a4 f   LIBC:getqloc.obj
 0001:0007a62a       _GetLcidFromDefault        0047b62a f   LIBC:getqloc.obj
 0001:0007a644       _ProcessCodePage           0047b644 f   LIBC:getqloc.obj
 0001:0007a6aa       _TestDefaultCountry        0047b6aa f   LIBC:getqloc.obj
 0001:0007a6c9       _TestDefaultLanguage       0047b6c9 f   LIBC:getqloc.obj
 0001:0007a72b       _IsThisWindowsNT           0047b72b f   LIBC:getqloc.obj
 0001:0007a761       _crtGetLocaleInfoA@16      0047b761 f   LIBC:getqloc.obj
 0001:0007a847       _LcidFromHexString         0047b847 f   LIBC:getqloc.obj
 0001:0007a880       _GetPrimaryLen             0047b880 f   LIBC:getqloc.obj
 0001:00079aff       __get_lc_lconv             0047aaff f   LIBC:initmon.obj
 0001:00079c21       _fix_grouping              0047ac21 f   LIBC:initmon.obj
 0001:00079c58       __free_lc_lconv            0047ac58 f   LIBC:initmon.obj
 0001:000799fd       _fix_grouping              0047a9fd f   LIBC:initnum.obj
 0001:0007934a       __get_lc_time              0047a34a f   LIBC:inittime.obj
 0001:00079698       __free_lc_time             0047a698 f   LIBC:inittime.obj
 0001:00078f60       LeadUp1                    00479f60 f   LIBC:memcpy.obj
 0001:00078f8c       LeadUp2                    00479f8c f   LIBC:memcpy.obj
 0001:00078fb0       LeadUp3                    00479fb0 f   LIBC:memcpy.obj
 0001:0007902f       UnwindUp0                  0047a02f f   LIBC:memcpy.obj
 0001:0007901c       UnwindUp1                  0047a01c f   LIBC:memcpy.obj
 0001:00079014       UnwindUp2                  0047a014 f   LIBC:memcpy.obj
 0001:0007900c       UnwindUp3                  0047a00c f   LIBC:memcpy.obj
 0001:00079004       UnwindUp4                  0047a004 f   LIBC:memcpy.obj
 0001:00078ffc       UnwindUp5                  00479ffc f   LIBC:memcpy.obj
 0001:00078ff4       UnwindUp6                  00479ff4 f   LIBC:memcpy.obj
 0001:00078fec       UnwindUp7                  00479fec f   LIBC:memcpy.obj
 0001:00079048       TrailUp0                   0047a048 f   LIBC:memcpy.obj
 0001:00079050       TrailUp1                   0047a050 f   LIBC:memcpy.obj
 0001:0007905c       TrailUp2                   0047a05c f   LIBC:memcpy.obj
 0001:00079070       TrailUp3                   0047a070 f   LIBC:memcpy.obj
 0001:000790e8       LeadDown1                  0047a0e8 f   LIBC:memcpy.obj
 0001:00079108       LeadDown2                  0047a108 f   LIBC:memcpy.obj
 0001:00079130       LeadDown3                  0047a130 f   LIBC:memcpy.obj
 0001:00079184       UnwindDown7                0047a184 f   LIBC:memcpy.obj
 0001:0007918c       UnwindDown6                0047a18c f   LIBC:memcpy.obj
 0001:00079194       UnwindDown5                0047a194 f   LIBC:memcpy.obj
 0001:0007919c       UnwindDown4                0047a19c f   LIBC:memcpy.obj
 0001:000791a4       UnwindDown3                0047a1a4 f   LIBC:memcpy.obj
 0001:000791ac       UnwindDown2                0047a1ac f   LIBC:memcpy.obj
 0001:000791b4       UnwindDown1                0047a1b4 f   LIBC:memcpy.obj
 0001:000791c7       UnwindDown0                0047a1c7 f   LIBC:memcpy.obj
 0001:000791e0       TrailDown0                 0047a1e0 f   LIBC:memcpy.obj
 0001:000791e8       TrailDown1                 0047a1e8 f   LIBC:memcpy.obj
 0001:000791f8       TrailDown2                 0047a1f8 f   LIBC:memcpy.obj
 0001:0007920c       TrailDown3                 0047a20c f   LIBC:memcpy.obj
 0001:00078ec5       _store_dt                  00479ec5 f   LIBC:asctime.obj
 0001:00076e5f       __cftoe_g                  00477e5f f   LIBC:cvt.obj
 0001:00076e86       __cftof_g                  00477e86 f   LIBC:cvt.obj
 0001:00076efa       __shift                    00477efa f   LIBC:cvt.obj
 0001:000764d0       _ctrlevent_capture@4       004774d0 f   LIBC:winsig.obj
 0001:00076635       _siglookup                 00477635 f   LIBC:winsig.obj
 0001:0007600b       _write_char                0047700b f   LIBC:output.obj
 0001:00076040       _write_multi_char          00477040 f   LIBC:output.obj
 0001:00076071       _write_string              00477071 f   LIBC:output.obj
 0001:000760a9       _get_int_arg               004770a9 f   LIBC:output.obj
 0001:000760b6       _get_int64_arg             004770b6 f   LIBC:output.obj
 0001:000760c6       _get_short_arg             004770c6 f   LIBC:output.obj
 0001:00074ee9       ?FindHandler@@YAXPAUEHExceptionRecord@@PAUEHRegistrationNode@@PAU_CONTEXT@@PAXPBU_s_FuncInfo@@EH1@Z 00475ee9 f   LIBC:frame.obj
 0001:00075090       ?FindHandlerForForeignException@@YAXPAUEHExceptionRecord@@PAUEHRegistrationNode@@PAU_CONTEXT@@PAXPBU_s_FuncInfo@@HH1@Z 00476090 f   LIBC:frame.obj
 0001:00075138       ?TypeMatch@@YAHPBU_s_HandlerType@@PBU_s_CatchableType@@PBU_s_ThrowInfo@@@Z 00476138 f   LIBC:frame.obj
 0001:00075233       ?FrameUnwindFilter@@YAHPAU_EXCEPTION_POINTERS@@@Z 00476233 f   LIBC:frame.obj
 0001:00075249       ?CatchIt@@YAXPAUEHExceptionRecord@@PAUEHRegistrationNode@@PAU_CONTEXT@@PAXPBU_s_FuncInfo@@PBU_s_HandlerType@@PBU_s_CatchableType@@PBU_s_TryBlockMapEntry@@H1E@Z 00476249 f   LIBC:frame.obj
 0001:000752c4       ?CallCatchBlock@@YAPAXPAUEHExceptionRecord@@PAUEHRegistrationNode@@PAU_CONTEXT@@PBU_s_FuncInfo@@PAXHK@Z 004762c4 f   LIBC:frame.obj
 0001:000753d0       ?ExFilterRethrow@@YAHPAU_EXCEPTION_POINTERS@@@Z 004763d0 f   LIBC:frame.obj
 0001:000753fa       ?BuildCatchObject@@YAXPAUEHExceptionRecord@@PAUEHRegistrationNode@@PBU_s_HandlerType@@PBU_s_CatchableType@@@Z 004763fa f   LIBC:frame.obj
 0001:00075625       ?AdjustPointer@@YAPAXPAXABUPMD@@@Z 00476625 f   LIBC:frame.obj
 0001:00074a83       _fast_error_exit           00475a83 f   LIBC:crt0.obj
 0001:00074070       __expandtime               00475070 f   LIBC:strftime.obj
 0001:0007445f       __store_str                0047545f f   LIBC:strftime.obj
 0001:00074486       __store_num                00475486 f   LIBC:strftime.obj
 0001:000744f5       __store_number             004754f5 f   LIBC:strftime.obj
 0001:0007453e       __store_winword            0047553e f   LIBC:strftime.obj
 0001:000737fd       _flsall                    004747fd f   LIBC:fflush.obj
 0001:000731ed       _doexit                    004741ed f   LIBC:crt0dat.obj
 0001:00073286       __initterm                 00474286 f   LIBC:crt0dat.obj
 0001:00072d4d       __setlocale_set_cat        00473d4d f   LIBC:setlocal.obj
 0001:00072e68       __setlocale_get_all        00473e68 f   LIBC:setlocal.obj
 0001:00072240       LeadUp1                    00473240 f   LIBC:memmove.obj
 0001:0007226c       LeadUp2                    0047326c f   LIBC:memmove.obj
 0001:00072290       LeadUp3                    00473290 f   LIBC:memmove.obj
 0001:0007230f       UnwindUp0                  0047330f f   LIBC:memmove.obj
 0001:000722fc       UnwindUp1                  004732fc f   LIBC:memmove.obj
 0001:000722f4       UnwindUp2                  004732f4 f   LIBC:memmove.obj
 0001:000722ec       UnwindUp3                  004732ec f   LIBC:memmove.obj
 0001:000722e4       UnwindUp4                  004732e4 f   LIBC:memmove.obj
 0001:000722dc       UnwindUp5                  004732dc f   LIBC:memmove.obj
 0001:000722d4       UnwindUp6                  004732d4 f   LIBC:memmove.obj
 0001:000722cc       UnwindUp7                  004732cc f   LIBC:memmove.obj
 0001:00072328       TrailUp0                   00473328 f   LIBC:memmove.obj
 0001:00072330       TrailUp1                   00473330 f   LIBC:memmove.obj
 0001:0007233c       TrailUp2                   0047333c f   LIBC:memmove.obj
 0001:00072350       TrailUp3                   00473350 f   LIBC:memmove.obj
 0001:000723c8       LeadDown1                  004733c8 f   LIBC:memmove.obj
 0001:000723e8       LeadDown2                  004733e8 f   LIBC:memmove.obj
 0001:00072410       LeadDown3                  00473410 f   LIBC:memmove.obj
 0001:00072464       UnwindDown7                00473464 f   LIBC:memmove.obj
 0001:0007246c       UnwindDown6                0047346c f   LIBC:memmove.obj
 0001:00072474       UnwindDown5                00473474 f   LIBC:memmove.obj
 0001:0007247c       UnwindDown4                0047347c f   LIBC:memmove.obj
 0001:00072484       UnwindDown3                00473484 f   LIBC:memmove.obj
 0001:0007248c       UnwindDown2                0047348c f   LIBC:memmove.obj
 0001:00072494       UnwindDown1                00473494 f   LIBC:memmove.obj
 0001:000724a7       UnwindDown0                004734a7 f   LIBC:memmove.obj
 0001:000724c0       TrailDown0                 004734c0 f   LIBC:memmove.obj
 0001:000724c8       TrailDown1                 004734c8 f   LIBC:memmove.obj
 0001:000724d8       TrailDown2                 004734d8 f   LIBC:memmove.obj
 0001:000724ec       TrailDown3                 004734ec f   LIBC:memmove.obj
 0001:00071d24       _gu_return                 00472d24 f   LIBC:exsup.obj
 0001:00071d2c       __unwind_handler           00472d2c f   LIBC:exsup.obj
 0001:00071b43       ?CatchGuardHandler@@YA?AW4_EXCEPTION_DISPOSITION@@PAUEHExceptionRecord@@PAUCatchGuardRN@@PAX2@Z 00472b43 f   LIBC:trnsctrl.obj
 0001:00071c1c       ?TranslatorGuardHandler@@YA?AW4_EXCEPTION_DISPOSITION@@PAUEHExceptionRecord@@PAUTranslatorGuardRN@@PAX2@Z 00472c1c f   LIBC:trnsctrl.obj

FIXUPS: 72a74 4d 24 4b 2f 103 17 3c 48 fffffd03 fffffff3 c7f 17 13 fffffe73
FIXUPS: 73519 10 b fffffc88 ffffff7f 5 a fffffe1d 9 e 25 9 e ffffff89 7
FIXUPS: 72f53 ffffff57 19 12 58 e ffffff23 11 b ffffffd5 ffffffd5 1d fffffedf
FIXUPS: 74138 1c 24 fffff935 21 2b 12 fffffeb8 1e 26 23 fffffee3 b ffffff10
FIXUPS: 73847 f 3c 13 11 fffffeed d 11 2f 25 fffffef0 8 8 19 ffffff8a 17
FIXUPS: 736e2 ffffff84 691 26 d 16 30 17 7 41 17 1a 35 23 26 28 1a d 1e
FIXUPS: 73f0f 6a 12 13 1e 24 11 17 18 c 29 1e 26 18 5c 44d 1c fffffe53
FIXUPS: 7440a 37 1f 45 2a fffffebb 11 9 ffffffcb ffffff5a 1d fffffeb0 f
FIXUPS: 741b6 11 f f 73 11 fffff90e 53 3c e 20 21 17 22 34 22 edd 30 ffffff86
FIXUPS: 74961 22 16 1a 15 8 ffffff4e a ffffff5a 13 fffffed3 9 18 3c 32
FIXUPS: 7482b 1b fffffe8e 32 19 fffffeaf 13 14 25 32 fffffec4 a d 18 8e6
FIXUPS: 74e34 f 24 2a 6 15 6 3a 6 15 6 26 6 16 6 16 6 16 6 2b 90 165 14c
FIXUPS: 7538f 68 5c 4f 1a8 16 1e0 fffff374 e55 5 5 1c c 11 e e 9 1c 9 fffff1d7
FIXUPS: 74c76 17 1c 6 f 6 3a 9 1b 1d 6 e 6 3c c 2c c 1f d 11 17a4 43 24
FIXUPS: 75e26 1d ffffffa9 b fffffd52 15 27 1e d 1c 6 b 3e 9 3b 4d 27 12
FIXUPS: 75d02 c 36 c 34 44 fffffcfc ffffff15 c a 10 7d8 1b e 45 1f 17 11
FIXUPS: 762ad e 7d 2c 14 4a 7 93 12 1c 1e 12 16 30 12 15 9 a e e 18 c e
FIXUPS: 76594 7 a1d 11 60 32 37 fffff728 b 29 38 1b fffffead 10 56 ffffff1b
FIXUPS: 76691 fffff7cf 23 58 2f 4b b 1e 32 49 42 1f 28 a 2a 1e 51 3a 105a
FIXUPS: 7723b 11c fffffd86 48 50 22 fffff7cc 40 9d 19 68 8a d 2e 25 74
FIXUPS: 76c9f be 3b 18 c 15 8 8f 12 98 16 1c 27 17 1e e5c 45 12 24 23 2e
FIXUPS: 77ede 13 19 b fffffbcb ffffff96 fffffe1b 107 fffffcff 16 8a 15
FIXUPS: 7775f 1a 14 d 11 12 16 19 fffffc1e 158 2b fffffe02 19 fffffe03
FIXUPS: 78f5f 44f 157 b2 51 4f b6 80 ffffe8b9 8b 56 e 24 1b 32 14 d fffff927
FIXUPS: 77b09 ae 1b 3d 13 26 41 a4 1d 20 16 2d 9 1f 29f2 b b b b b b b
FIXUPS: 7a81f fffff641 d d c 19 11 ffffff1b 25 ffffffaf ffffff6c 17 9 c
FIXUPS: 79d55 12 ffffff38 ffffff91 ffffe6cb 15 2a 385 106 f 1ee5 8 8 8
FIXUPS: 7a6d8 8 8 8 8 8 8 8 8 8 b 8 8 8 8 8 8 8 8 8 8 8 8 8 8 8 e b fffffca8
FIXUPS: 7a475 11 14 11 11 11 14 11 11 11 14 11 11 11 14 11 11 11 17 14
FIXUPS: 7a5e1 14 17 14 14 14 17 14 17 1f 8 1f3 31 d d 50 b b 19 25 7 25
FIXUPS: 7a2cb 13 b 6 15 b 1f b 48 11 11 11 14 11 e 11 14 11 11 11 14 653
FIXUPS: 7aae3 b 35 10 10 10 13 a e 10 10 13 10 10 10 13 10 10 59 8 8 8
FIXUPS: 7ac8d 8 8 fffffbb1 10 10 d 13 b ca5 36 3b 41 c 61 11 34 50 18 d
FIXUPS: 7b833 fffff4ac 16 b d 9 a8 31 70 18 11 8 10 8 21 b fffffb6f 13
FIXUPS: 7aa61 6 34 11d2 fffffdb7 16 ffffffa1 fffff62d 41 24 29 7 f 7 18
FIXUPS: 7b165 41 30 18 36 3f 3a 46 3f 1f 1a 64 2a 30 e 3a 27 33 41 34 d60
FIXUPS: 7c336 1f 4f 17 2b 6f 33 27 c 19 2b 11 29 17 49 3d 1e 23 17 60 2a
FIXUPS: 7c6fe e a 38 39 16 14 8 fffff52d fffffea2 ecb 2e 2b 42 ba 4f 2f
FIXUPS: 7cc3b fffffbdc 5d fffff4e2 25 8 b 12 53 f8 e a8 32 2c 23 1f 2c
FIXUPS: 7c0a4 2d 17 2f f0 1a 30 15 11ce 10 17 fffffed7 19 14 14 12 f e
FIXUPS: 7d3ab 17 fffffde6 ffffffb3 f ffffffb3 a fffffe50 c2 32 fffffe7f
FIXUPS: 7cf28 ffffff12 66 fffffa05 2f 11a 15 6 7 17 e 14ed a c e 17 10
FIXUPS: 7df91 54 16 47 53 c 22 c 21 c fffff995 14 14 17 20 11 fffffd58
FIXUPS: 7d795 6 2b ffffff01 23 44 13 fffffcaf 35 157a 1d 25 fffffb03 181
FIXUPS: 7e6be 23 3e 29 16 11 e fffffb31 30 bd 2b 1c eb fffffdcc fffffef4
FIXUPS: 7e1a9 ffffffbe 9 fffffb76 17 5c f 151 12 16 c 1d 1292 28 2b 2e
FIXUPS: 7f24b 2b 40 3d fffffb7f 86 1b 34 3d 10 54 fffffe00 10 fffffe1a
FIXUPS: 7ec22 5c 6a fffffd4c 22 f 1c f 15 11 e 1e 23 fffffcf3 12a2 14 18
FIXUPS: 7fade 96 6 a 6 1b 4b fffffa96 10c 3a 31 5 151 24 28 ba fffffbc2
FIXUPS: 7f637 f 15 fffffdd4 7c b4 fffffe06 fffffd67 2b 28 28 2b 14fd fffffe18
FIXUPS: 804bf 18 28 b 1f 2f 11 6 38 fffffe4e 63 fffffda1 1d 4e 19 46 1d
FIXUPS: 80306 9 d 9 fffffa30 71 61 ec 4a 78 76 aa e 1024 d ffffff81 fffffdbc
FIXUPS: 80e9c 1c 1b 1b 21 1c 1f 28 28 8 11 24 25 6c 10 12 fffffba9 17 10f
FIXUPS: 80dc8 fffffbd0 47 41 10c fffffd35 24 ffffff98 ffffff6b fff9e909
FIXUPS: 1f09e 3f f 42 c2 fffff169 e e 2c 7 5 41 18b 1e6 593 14 1c d8 c1
FIXUPS: 1ef03 e e 39 e e 62341 30 71 e 1e fffffd9e fff9f8e0 77 21 3d a
FIXUPS: 20aeb 236 d1 82 5a 5b a a a 28 a 6 13 6 6 22 23 17 26 a0 ffffdee7
FIXUPS: 1efba 13 13 68 25 11 82e 199 11a 35 1db 2a 16 15 8 1c 62 9 9 14
FIXUPS: 1fecf 43 13 8 47 8 6f 1e 10f 93 16 16 363 76 144 15e 94 29 ffffeb82
FIXUPS: 1f4aa 6 19 1b c c 6 27 3e 11 16 d 36 13 1a 1a 2a 21 11 5e 10 9
FIXUPS: 1f70a 16 a 1d 36 c 6 56 26 c2ba 12 12 12 15 12 12 12 15 ffff55bc
FIXUPS: 2112a 13 18 63 9c 4b 1e 17 32 3e 9a 15f ffffdcfa 13 13 13 68 144
FIXUPS: 1f437 6 22 13 1a792 cb 19 d5 19 a1 91eb 11 1d 13f 12 c 13 33 14
FIXUPS: 432e2 fffe8fbc 9d a0 19 325 18 96 1c fffff24c 12 12 12 15 12 12
FIXUPS: 2bab0 201ed 3d1 82a 20 22 2f2 31b ffffbdee a5 c2 ffffe337 70 1f
FIXUPS: 47214 117 f b2 24 28a 119 2c 21a 71 11d 2c 248 ffffb6ea 3817 34d
FIXUPS: 39a87 6 c3 11350 24 18 3d 13 24 13 12d f 16 b2 739 17 27 1d b b
FIXUPS: 4b92e 2e 24 18 1f 36 13 15 f7 f b9 f 21 19 f 144b 954 508 77a 485
FIXUPS: 4eb0d 1c 1e 4e e 20 46c ffffb4e8 5e 5c 20 18 3f 27 1d f 1e 24 2b
FIXUPS: 4a756 5e 6 5ad 1b a9 20 18 96d5 33 27 36 2a bcf 3a 298 2b 57 3d
FIXUPS: 55596 44 40 34 32 32 2b 2f 27 2a 6db 41 37 ffff707f 39 14 27 15
FIXUPS: 4cfc3 79 1e 6dd6 4d 12 7e 13 129 29 2f 2a 2d 27 30 2a 2d 27 30
FIXUPS: 54227 2d 27 30 2a 68 27 36 2a 33 27 36 2a 33 27 36 ffffe04a 484
FIXUPS: 52a2d 4d 31 26e 67 11 f 27 ad 24 d 60 d 5f d 378 42 9a 22 f3 47e
FIXUPS: 53a0e a9 9b 48 102 58 9b 2a 4d ffffd635 40 3e 3e 3e 3e 3e 42f 45
FIXUPS: 51a65 30 2c 36 3bb 2e 2b 27 40 3a 2e 1d1 1d0 25 2a 28 27 25 2a
FIXUPS: 52490 38 30 30 ffffe30d 3d b3 21 97 a1 1e 10 15e 14 c3 34 ce b9
FIXUPS: 50f45 9b 3d 1d 20 1d 2f 45 2c 1f 48 20 3c 38 5f 38 58 100 ffffe7bf
FIXUPS: 4fbe3 26 81 1d 19 5b 39 49 26 1f 58 35 32 75 32 14 1ac 1c 92 6
FIXUPS: 50254 19c 27 43 159 30 11 14 61 41 20 ffffee6d 25 25 25 25 2e 61
FIXUPS: 4f6ac 42 14 1a 1a 1a 1a 9 2a c c 1a 1a 1a 1a 1a 1d 9 6 bb 13e 4d
FIXUPS: 4fadb 8b 3a 992f 6a 13 13 1b6 54 3a 51 32 1e9 101 40 bb 67 18 7a
FIXUPS: 4f222 2c 11 ab 9 71 3a 1a 1a 1a 1a 1a 6a c c 56 8e2c d d0 d e 65
FIXUPS: 584be 109 1c 19 3d9 65 56 7 3c 49 29 31 6d 40 16b e5 43 ac 2f 244
FIXUPS: 591ee 3d 75 16 23 1b7 ffffdff0 79 2c 27 e 65 2c 50 1a 14 3c e 41
FIXUPS: 57725 1e 26 47 42 170 5c 2c a9 35 12 2f 12 5c 327 26 26 328 e2
FIXUPS: 56bea 14 14 17 14 14 1e 14 12 c f c 16 15 68 c 19 25 1d 9 fb 30
FIXUPS: 56fdd e9 33 80 38 97 7d 7e 47 a5 fffff49c 1d 14 17 14 14 17 17
FIXUPS: 5697d 17 14 14 c 12 f f c 15 15 43 c 6 34 56 1e 2e 12 f 17 1a 17
FIXUPS: 56bd6 fffff4d4 145 2c 89 12 3c 26 36 d8 1f 19 19 1f 22 22 1f 1f
FIXUPS: 56537 1f 47 45 38 44 3b 75 87 36 7c 1e 2e 12 f 914d 18 7c 18 c7
FIXUPS: 5fb8c 27 d 2c 18 d 2de 24 1b d4 75 18 7c 18 ffff9fe7 ac fffffeca
FIXUPS: 5a0a2 3f fffffdd6 a 36 a 15b b ffffbf44 a0 9296 18 1d 2e 27 1a
FIXUPS: 5f3ab 27 1d 34 24 18 d 2c 20 1b 1a a 1a 34 1d 16 15 100 228 f e
FIXUPS: 5f8e1 e b 78 19 fffff1ed d b 1f 17 21 9 10 7 c 1c 9 10 7 28 1d
FIXUPS: 5ecae 8 10 8 b 1c 432 24 18 2b 24 18 26 13 1a a4 fffff5cd 18 13
FIXUPS: 5e8db 26 24 1a 29 27 1d 2b 24 18 19 c b a 1a c 1a 8 1a e 1a c 1a
FIXUPS: 5eb1c 1a 19 a a 8 fffff8d2 12 12 15 12 a1 24 18 28 24 18 24 26
FIXUPS: 5e637 18 26 24 1a 29 27 1d b 1c 30 21 13 28 30 21 13 f 24 fffff949
FIXUPS: 5e1e4 12 12 12 12 12 12 12 12 12 12 12 12 12 12 12 12 12 15 12
FIXUPS: 5e352 19 30 12 12 12 12 12 12 12 12 fffff0fd e a f a b a b a b
FIXUPS: 5d598 4a a f a b a b a b a e 55 4b 4b 4b 4b 4b d3 56 54 803 ffffecfe
FIXUPS: 5cf13 53 8 53 49 13 a3 13 b7 31 6b 12 53 10 53 172 a 10 1b a 13
FIXUPS: 5d4bc b a b a b a e a b fffff5a0 a 13 34 a 10 8 a 1e a 10 68 a
FIXUPS: 5cbf7 28 8 c 27 b 52 b 46 b 46 a 4f 10 10 d 47 a 61 fffff2ba a
FIXUPS: 5c168 51 a 21 87 a 13 1b b 20 365 b 20 199 4c d d 8 a 13 b 59 d
FIXUPS: 5c909 10 3f 51 60 5b 13 fffff381 1c 8 54 a 13 8 a 121 a 10 16 a
FIXUPS: 5c00d a d a a b a 13 a d a a 15 1b a 10 14 a 11 fffff840 d1 a 17
FIXUPS: 5bad6 b 46 a 4f d 2e 2b a 13 8 a 13 19 c 2d 8 52 8 46 8 46 8 46
FIXUPS: 5bdc8 e a e fffff79a a 11 a 17 49 a 13 8 a 17 8 a 4d a 4f a 51
FIXUPS: 5b770 10 a 4a b 54 10 d 19 a 14 16 8e a fffff5ad 64 4c a 8 b 46
FIXUPS: 5afff 12 1c9 13 37 1d 12 20 25 3e 67 84 19 10 ca a 13 8 a 10 51
FIXUPS: 5b54e 1a 8 a fffff309 12 17 a f 2b 9 d 8 a 21 9 d 167 53 4c a d
FIXUPS: 5abc1 20 4c a f a 10 d1 a 1b 87 a 1b d0 5723 150 23 12 5f 205 7d
FIXUPS: 5a3aa 19 a 1fe c d 16 9 12 15 a 16 15 a 10 a 54 a 55 8 a 11 9b
FIXUPS: 5a7fe 7b d003 160 4e9 7 560 96 42 44 41 1a3 ffffab5b 635 109 362
FIXUPS: 63f5f 1e8 c54 c4 42 114 28 4d 28 ffffdb50 89 48 2d b0 38 2ae ffffd4db
FIXUPS: 60593 93dc 47 47 47 43 1b 5a ffffc06e 61 48 4a 47 136 11a 996 458
FIXUPS: 66d38 f5 2c b2 88 35 2c 32 90 81 15c ff 50 28d 2a 94 5447 2f 4a
FIXUPS: 6cc30 46 48 82 3a 142 d ffffb993 d7 2a 21 1a 1f9 8ec 16 26 1e dc
FIXUPS: 695e4 73 6a 47 47 47 50 4d 5c 46 53 af4 500 193 39 a7 478 2f 283
FIXUPS: 6b2ca 1d7 2da 134 c 173 1ee 133 1e 1b9 14e d d b 2d d d b eb 6b
FIXUPS: 6c977 105 72 3c 266c ac 16b b1 7e 17b 1ac 165 238 185 b7 50 111
FIXUPS: 701a4 48 5c 3e ffff99a1 13b 24d 8e 51 3c 49 32 4d 46 40 45 74 37
FIXUPS: 6a40f 2be4 55 41 331 ce 27 20 e2 12 47 b5 128 39a 1a0 265 87 1a5
FIXUPS: 6e2e7 3a 32 f3 17 54 28 69 2e8 1a9 136 c3 323 b6 7d fff921f6 42
FIXUPS: 127f 52 c a 6f3e0 18 66 5e 41 25 27 21 58c 13e 1e 270 30e 242 e0
FIXUPS: 7198b 11 17d 32d 238 1cf b2 1d4 23e 1ae ffffa702 fff9477a 1c d0
FIXUPS: 1852 1e 33 6d 6 38 31 5b 2c fffff993 1b d 16 ffffff32 2b d 16 fffffcc5
FIXUPS: 1054 80341 c fff7fd25 2e d 42 12 8025f a fff7fe3b fc8 1f 44 55
FIXUPS: 22d7 5b fffff0c2 60 d 53 22 12 7feec a fff80131 16 18 23 15 26
FIXUPS: 15c4 30 d 10 78 1f 7fd4d c fff802e8 1f 7fd0d c fff80969 14 9 1a
FIXUPS: 1dcf 14 18 16 11 15 11 1c 36 9 1a e 14 16 11 15 11 1c 2e 14 7f4cd
FIXUPS: 81461 fff80c30 2a 86 1f 21 1f 7f364 a fff81343 13 d 50 1f 21 1f
FIXUPS: 2941 1f fffff14c 1a 7f96f c fff806b3 30 d 16 1d 21 1d 6f 8e 9 22
FIXUPS: 1d25 1b 17 11 10 a 7f72d a fff81008 10 9 1e 33 10 7ef8a c fff8109f
FIXUPS: 2584 d 10 1b 98 d 37 1c d 59 7edcd a fff81249 b 12 2f 20 3a 11
FIXUPS: 2809 17 7ed05 c fff814e2 22 7eb0f a fff81516 d 3f 12 7eaa2 a fff8157c
FIXUPS: 2af4 2a 26 6a 3b 5c fffff73b 10 19 17 7f0b4 b 9 c fff80f60 d 50
FIXUPS: 2460 7f044 fff81c5d 1f 21 1f fffffb13 13 11 7 5 7e8e1 a fff81736
FIXUPS: 2cd1 16 25 1f 7e87a c fff817a0 2b 27 20 25 2b e 1f 21 1f 21 1f
FIXUPS: 2999 29 c9a 12 f f 35 1f 2d 1d 27 2d e 20 11 14 1f 21 1f 2b 26
FIXUPS: 2f03 1f 7e6a2 a fff81976 d 16 2d 8f 54 34 16 1f 201 20 30 63 d
FIXUPS: 33ff 1c 7e1c9 a fff81e56 d 45 e 7e160 a fff81eb9 15 c e d 2b 16
FIXUPS: 3559 12 2d 32 a 1e f 13 2e f 373 11 12 c 20 14 1d 16 32 3e 19 c
FIXUPS: 3af5 2e 13 c 6 1b 1b 9 b 24 12 10 20 10 21 d 23 d 2a 16 1055 11
FIXUPS: 4d24 c 1b 14 1f 27 de 8f 18 10 1c 14 19 16 e c ffffed0d 134 34
FIXUPS: 3e83 fffffa41 10 d 27 3c 19 1b 1f d 7 7dd15 b b b c fff830de a4
FIXUPS: 4889 2c 46 b3 3c 5c 36 6 17 23 59 c 2f 6 6 a 6 9 9f d 16 3f 32
FIXUPS: 4cd6 d fffff5e4 5b 6 29 7d333 a fff82da8 1e 13 29 2a 1f 25 13 29
FIXUPS: 457d 14 2a 6e 13 d f 2e a 36 25 39 25 a 7cf51 9 a fff8458d 10 12
FIXUPS: 817a4 a fff844f0 a3 57 1a 22 ffffe10d 22 48 42 10f 33 7d556 c fff82af3
FIXUPS: 4161 11 7d4d2 a fff82b56 d 3f b 20 7d449 a fff82c43 c 7d491 fff83bce
FIXUPS: 5326 24 56 21 19 22 3e 1f 3e 18 1f 1f 70 1b 356 a a a 34 19c 35
FIXUPS: 81765 c fff843da 65 12 7bbc2 a fff84466 d 111b 2d 1e 1d 48 23 32
FIXUPS: 6e4d b 24 20 20 23 ffffe12d 3f 7c6ba c fff83985 fa 4d 18 21 7c50e
FIXUPS: 8172e fff83b16 d 43 10 13 13 12 7c468 fff84ee4 13 13 e 15 17 12
FIXUPS: 66b4 12 1a 12 15 3d 15 3e e b f7 1a 99 17 18 23 26 19 19 18 19
FIXUPS: 6a4e 1b 210 47 239 1b d 3f 12 7a852 a fff857fa ffffeebf 23 d6 2d
FIXUPS: 5fc3 f 6 4b a b 3a 24 26 6 10 6 50 84 1f0 5a 95 15c 1c 12 249c
FIXUPS: 8ad6 43 18 24 11 ffffe942 20 28 21 69 f 18 56 30 7a1c0 a fff85e76
FIXUPS: 767f 25 e 7a155 8 a fff85ec2 50 fffff8ae 2b d 16 36 6f 156b 1d
FIXUPS: 867c 792f8 a fff86d2d 35 20 18 1d 69 19 39 14 29 23 1b 24 30 1b
FIXUPS: 88fa 2e 8e 2e d 2e 1d 18 78f41 b c fff870de fffff58f 7991b 8 a
FIXUPS: 8083 2c 798a6 c fff86800 1b 3c 16 9 18 17 41 a6 39 22 f 9 24 11
FIXUPS: 839e 17 3b 59 71 13 aa 54 24 fffff6f9 18 11 1b 3c 17 3b 79b1a b
FIXUPS: 818ea a fff8652e 18 17 23 1c d f 79a58 b b a fff865eb 19 10 24
FIXUPS: 7f6b 12 30 1e 2f e fffffa5e b 15 b 15 37 14 8 8 8 f 1e e 12 18
FIXUPS: 7b7c 17 32 48 79c97 8 b b a fff86378 d 3a 14 8 8 8 19 1ca9 f ffffdde1
FIXUPS: 7775 12 7a09d a fff85f86 d 39 12 7a038 a fff85fe9 41 23 1c 8c 24
FIXUPS: 7975 79eef b a fff8612b d 13 50 79e73 a fff861a0 15 b 1ac1 30 14
FIXUPS: 9599 17 12 19 49 2b 1c 33 12 20 56 d 10 27 9 c 17 20 30 8 15 18
FIXUPS: 9825 60 4f e 12 5c 1b fffff72f 16 49 16 12 2f 33 13 2a 25 24 c
FIXUPS: 9235 20 1f 20 1d 34 15 29 1e 29 33 1d 32 13 2b 3c 31 33 b 1a fffff759
FIXUPS: 8c52 15 12 9 2b 1a 9 49 30 1d 16 17 18 1f 37 a 15 12 9 1e 1d 9
FIXUPS: 8ea7 33 37 64 41 1a 20 45 27 fd6 39 f 1a 6 22 10 5d 7b 22 d 3c
FIXUPS: a254 3f 48 68 44 14 6f 13 51 a fffff53c d 33 d 27 fffff17e 16 17
FIXUPS: 8beb 1f 2659 f 11 c 8 fffff34e 6 e 1b d 25 9 fffffe87 10 24 13
FIXUPS: a540 31 f 11 15 c 7 fffff61d 54 16c 31 13 f 1bb 36 3c d4f 42 e
FIXUPS: ade9 a d 34 a d 18 41 16 13 c 4f 1e 10 4f 10 13 29 1f 21 1f 71
FIXUPS: b0e0 32 e 6 8d 51 50 fffff52b 1c 1f 1c 2f a 43 a 1e a 32 75 1a
FIXUPS: a99a 2d a 13 8d 2d 58 f 26 45 45 12 28 42 12 26 1e 30 82 5db d
FIXUPS: b35d a 44 a 1c b3 1b 76516 c fff89b53 d 3c 13 1b 7644a c fff89c0a
FIXUPS: b60f 1f 37 18 27 d fffff005 19 1e 1c 1c 22 1c 19fe fffffa08 1b
FIXUPS: bb91 16 c6 fffffa7c 1b d 3b f 76299 a fff89d9f bf 91 d 1b 38 2c
FIXUPS: b98b 45 29 17 3d 20 a 80 fffff7da a 10 a eff d 42 12 757bf a fff8a86e
FIXUPS: c2bf 75776 c fff8a91e 1b 6d 2a 3b 15 32 1a c 6 c fffff875 22 14
FIXUPS: bda0 15 7b 13 13 25 20d 8e 11ad 12 8 27 66 15 b8 5f 2b 7 11 7 2f
FIXUPS: d526 18 6c 3d df 2d 7 11 7 177 63 44 7 1d 7 50 c 80 ffffe78d a60
FIXUPS: cc9e 46 2b 7 11 7 6f c 12 2b 4f 3e 8f 56 22 1f 25 29 31 3f 28 18
FIXUPS: d0c0 d9 75 44 7 11 7 30 16 fffff4a4 55 44 d 16 11 28 10 4c 18 16
FIXUPS: c8f0 16 16 16 75184 fff8aed3 20 3e 12 9 6d 38 3d 2b 7 11 7 2c c
FIXUPS: cb78 6c 1020 48 d7 34 f6 72 7 f 69 14 ffffe5aa 26 75533 c fff8ab39
FIXUPS: c5d6 19 75485 9 c fff8ab9b d 42 c 12 75403 a fff8ac1d 38 16 16
FIXUPS: c72b 21c6 7c 7 27 15 77 18 fffff53b 1a d 16 d 29 fffffa87 d 99
FIXUPS: db31 b 12 73f76 b e a fff8c08d d 4f 8 f 73f0d b e a fff8c765 13
FIXUPS: e2b0 16 24 34 2c 34 4c d 13 19 17 1e 33 16 12 28 1b 2c 11 2f 48
FIXUPS: e5be 2c eb 28 55 fa e 6d 16 50b 1f 72d9e c fff8d2c3 75 28 25 1e
FIXUPS: ef61 fb 28 d 45 ffffef92 6 a 1c 73a91 c fff8c5cd 39 73a0d a fff8c606
FIXUPS: e161 48 6 12 739a3 a fff8c687 121f d 154 11 fffff4e0 e d 1f 58
FIXUPS: eb1d f 1b 13 4e 48 1a 15 1d 1c 38 1a 23 72eb8 b c fff8d178 d 27
FIXUPS: ed6d f 1b 31 1454 fffff405 1f 67 97e 28 d d fffff0ad d 23 20 d
FIXUPS: f187 f 1e d 6b 28 d 5d 2d 728d9 a fff8d746 d 1d 7 14 e 5a 35 ea1
FIXUPS: 102a9 16 9 6 1b 19 16 b 13 8 10 9 26 f 13 17 a8 f 68 e fffffbfc
FIXUPS: 100fc 51 12 24 19 12 f 24 18 14 12ed c 3c 39 20 14 26 7 a 2e 18
FIXUPS: 11642 18 1f f 47 50 27 7 49 4d 20 16 10 53 3d 1b ffffe972 e e 15
FIXUPS: 1028c f5e 3c 13 1c 13 c 26 c 15 1b 9 12 9 f f 7 28 7 58 d 3c 13
FIXUPS: 1140e 9 11 7086c a fff8f7b7 75 9 7 9 fffff79a 2c 5e 58 1d 3f 18
FIXUPS: 10ded 2c 65 28 16 16 18 1a 2a 5f 12 13 4c 2f 47 25 2c 23 7 7 2c
FIXUPS: 11134 7 7 25 fffff75d c f f 71336 b 8 a fff8eceb 3d 712ec c fff8ed4c
FIXUPS: 10ab8 9 1b 1a 2a 71155 c fff8eedc 15 6 1f 11 c 13 11 c 11 45 19
FIXUPS: 11ce5 ffffe82b 4f 37 14 33 9e 5 13 1e 25 2b 21 25 c 71491 b 9 b
FIXUPS: 81c0f fff8eb90 1c 29 d 44 11 14 e a c 22 1e 10c9 2a 31 1c 19 10
FIXUPS: 11a5c 20 6 4b 12 27 23 e 11 e f 2a e 11 e f 11 12 15 12 28 12 d
FIXUPS: 11c6b 11 58 33e 16 61 f 7e 34 9c 23 1b 18 29 1b 54 20 20 d dc 2b
FIXUPS: 1244a 1f 2d 1b 1b 3b 15 18 1f 12 3e 21 40 d 55a 41 28 d b4 1f d
FIXUPS: 12d15 e2 ffffef42 18 13 d 36 11 49 20 6fe94 c fff901b6 36 13 2e
FIXUPS: 11f10 18 10 6fd9d c fff90286 13 35 18 6fd41 c fff90aa0 d 52 10
FIXUPS: 12832 6f4f2 b a fff90b47 4e 21 8e 14 f 3a 22 6 13 28 27 d 1c 14
FIXUPS: 12ae0 d 1b 1b 25 6f1fd c b0 fff914ca 31 28 d 9e c 19 d 1e 72 45
FIXUPS: 13507 40 ce 8f 24 21 22 62 3a 5d ffffee59 77 14 4d 13 14 13 19
FIXUPS: 81cf4 b fff912d2 53 f 6ed61 b a fff912bd 1a 14 d 34 13 b b 15 6eca1
FIXUPS: 81dbe fff9137f 14 43 11 1c 1b 30 6ebc9 c fff9146f d 17 1b 16 6eb50
FIXUPS: 140b0 26 6dd3e a fff922e5 32 23 b7 16 e cc 13 9 1a 2c 35 4b 2e
FIXUPS: 1444d 12 24 ffffea2a 86 16 28 13 17 6edc9 b 9 c fff91240 6eebd
FIXUPS: 183d4 ffffb520 f 14 6 8 36 8 3e 1d 26 26 22 22 11 6 8 23 6 6 11
FIXUPS: 13ab3 8 4c 481 23 20 20 4a 19 2e 3f4b c 37 18 19 27 1f 2a 15 15
FIXUPS: 180ea 15 15 15 15 15 15 23 36 18 18 1f 18 23 26 d 31 1a a 3c 68
FIXUPS: 81e75 fff95c6f 37 19 21 28 1f 18 31 2e 1a 20 20 1a a 74 69 a 3e
FIXUPS: 17dce 2b 22 29 21 1e 22 14 6 5d e 22 1f 1f fffff30a 49 49 49 49
FIXUPS: 17401 49 49 49 4c 14d 5 1c 48 50 e 5 1c 52 50 69 69 50 4f 9 9 3d
FIXUPS: 17a0b 1d d 25 b fffff15f 19 41 f 22 26 1a 37 12 3d 50 15 15 6 48
FIXUPS: 16e03 41 6e 1d 15 44 49 49 49 49 49 49 49 49 49 49 49 fffff3b9
FIXUPS: 16666 19 1c 9d a a a 29 51 1c e a9 15 12 f 3b 19 42 11 18 3b 12
FIXUPS: 16a22 50 15 15 6 b1 15 12 f fffff21d 1f 16 6 a 6c069 a fff94177
FIXUPS: 15ff1 60 26 16 74 5a 19 42 d 16 65 1c 24 38 10 34 18 ee 2b 10 21
FIXUPS: 16585 34 45 fffff344 3a c7 3f e 30 d 36 d a 59 6 20 a 6 3b 12 1f
FIXUPS: 15c4e c d 1f 2d c 12 1f 28 1f 30 c 13 13 fffff6f9 9 b 10 21 15
FIXUPS: 1552c 6a a2 73 37 14 30 c b 2b 4d 1f f 1c a 1c 9 a 44 18 10 16
FIXUPS: 158d4 13 12 15 fffff3f6 2f 16 6 55 68 e 56 12 43 2cf c 41 49 7
FIXUPS: 152a4 1a 36 22 32 11 1b 14 b f 2b 6 c 4d 1a 2e 14 362c 7 39 74
FIXUPS: 1457f 20 1c d 55 17 13 d 9b 1d5 e 40 6d522 a fff92af6 d 16 63 23
FIXUPS: 14a85 24 97 56 bd a f 1e 55 39e5 22 697ee a fff96846 d 3f 12 69772
FIXUPS: 81efe fff968a7 3e 3b f a 10 a 1c 696a8 c fff96993 30 d 35 f 3d
FIXUPS: 189a1 93 13 a 2e 19 5c3 30 b3 3b 11 a 5c f ca 11 a 45 11 a 208
FIXUPS: 19574 28 ffffefa6 11 26 6991c c fff9672d 1c 15 f 22 18 b 26 6983b
FIXUPS: 81ebe fff9ad96 d 55 19 25 d 1d 31 40 7b 80 ffffbd29 118 18 14 f
FIXUPS: 18d19 12 6 2a 18 f 1b 6 138 30 30 30 30 30 30 30 3603 1c 6c de
FIXUPS: 1c7a5 3e c a a a a 2b 13 1c 64 29 8 1f 14 4a 4a 4a 4a 47 52 6 65
FIXUPS: 1cb9f 45 65451 c fff9abee 653e5 a fff99f0a 1c 3a 2e 3c 26 21 32
FIXUPS: 1c06e 34 15 e9 28 d 21 12f 3a 47 6 74 19 28 83 a a a 86 1c 20 1c
FIXUPS: 1b8ed 6 47 12 1f 45 c d 1f 39 c 12 1f 34 1f 3c c 13 13 d 1f 9 6
FIXUPS: 1bb64 66490 a fff99c05 11 f 36 2b 16 fffff745 26 25 c 1c 19 1c
FIXUPS: 1b49b a a 66b25 a fff995c3 d 16 1a 13 12 15 33 3b c5 3f e 30 d
FIXUPS: 1b831 e b 73 6 20 fffff61e 1f 21 1f 24 e 15 23 17 19 1c 1e 1c 24
FIXUPS: 1b090 2a 1c 78 130 56 14 2b 8 17 20 8 11 d 13 1a 13 12 ffffed56
FIXUPS: 1a14d 7e 158 43 bd 26 19 1c 1c 7 7c 30 91 25 78 7 a c4 27 2c 2c0
FIXUPS: 1aac7 21 22 57 69 71 128 b5 77 3c ffffec55 f 5 fb 23 21 68327 a
FIXUPS: 19c94 d 76 2f 28 5c 2c f 681b5 a fff97eba 6d 44 29 25 6 2c 29 25
FIXUPS: 1a003 23 47 35 5f fffff68d 35 2f 21 a 11 1d 13 d 1e 2b f 6 2a 15
FIXUPS: 19917 22 12 49 2d 68593 a fff97aa6 d 54 8 c 1e 684dd a fff97b47
FIXUPS: 19aef 3b44 2e 13 d 48 2b d 17 9 3f 9 12 64939 a fff9b6f7 a b6 17
FIXUPS: 1d8b6 21 a ffffbcf0 5 30 16 46 11 2b 68897 c fff977ac 69 39a3 19
FIXUPS: 1d12b 19 d 64f23 a fff9b0f6 d 3f 9 9 9 9 12 64e9e a fff9b3f0 6
FIXUPS: 1d49a 37 10 f 53 40 a f 11 33 2b 18 a 8a6 1da a4 1d fffffcd8 1e
FIXUPS: 1de71 16 fffffefd d 33 d fffffbd3 d 23 d 1d 9 60 80 27 17 f7 98
FIXUPS: 1d90f 39 fffff691 38 65044 c fff9affc 67
