 win32

 Timestamp is 4d0ed01a (Mon Dec 20 11:40:10 2010)

 Preferred load address is 00400000

 Start         Length     Name                   Class
 0001:00000000 0006065bH .text                   CODE
 0001:00060660 00000a70H .text$x                 CODE
 0002:00000000 00002bb0H .rodata                 CODE
 0003:00000000 0001ac97H .rotext                 CODE
 0004:00000000 00008678H .rdata                  DATA
 0004:00008678 00000000H .rdata$r                DATA
 0004:00008678 00000d00H .xdata$x                DATA
 0004:00009378 00000000H .edata                  DATA
 0005:00000000 00000004H .CRT$XCA                DATA
 0005:00000004 00000080H .CRT$XCU                DATA
 0005:00000084 00000004H .CRT$XCZ                DATA
 0005:00000088 00000004H .CRT$XIA                DATA
 0005:0000008c 0000000cH .CRT$XIC                DATA
 0005:00000098 00000004H .CRT$XIY                DATA
 0005:0000009c 00000004H .CRT$XIZ                DATA
 0005:000000a0 00000004H .CRT$XPA                DATA
 0005:000000a4 00000004H .CRT$XPX                DATA
 0005:000000a8 00000004H .CRT$XPZ                DATA
 0005:000000ac 00000004H .CRT$XTA                DATA
 0005:000000b0 00000004H .CRT$XTB                DATA
 0005:000000b4 00000004H .CRT$XTZ                DATA
 0005:000000c0 0000f308H .data                   DATA
 0005:0000f3c8 0009d69cH .bss                    DATA
 0006:00000000 00000064H .idata$2                DATA
 0006:00000064 00000014H .idata$3                DATA
 0006:00000078 000001f0H .idata$4                DATA
 0006:00000268 000001f0H .idata$5                DATA
 0006:00000458 00000662H .idata$6                DATA

  Address         Publics by Value              Rva+Base     Lib:Object

 0001:00000000       ?createNew@AMRAudioRTPSink@@SAPAV1@AAVUsageEnvironment@@PAXPAVGroupsock@@EII@Z 00401000 f   AMRAudioRTPSink.obj
 0001:00000080       ??0AMRAudioRTPSink@@IAE@AAVUsageEnvironment@@PAXPAVGroupsock@@EII@Z 00401080 f   AMRAudioRTPSink.obj
 0001:000000f0       ??_EAMRAudioRTPSink@@MAEPAXI@Z 004010f0 f i AMRAudioRTPSink.obj
 0001:000000f0       ??_GAMRAudioRTPSink@@MAEPAXI@Z 004010f0 f i AMRAudioRTPSink.obj
 0001:00000110       ??1AMRAudioRTPSink@@MAE@XZ 00401110 f   AMRAudioRTPSink.obj
 0001:00000170       ?sourceIsCompatibleWithUs@AMRAudioRTPSink@@EAEIAAVMediaSource@@@Z 00401170 f   AMRAudioRTPSink.obj
 0001:000001e0       ?doSpecialFrameHandling@AMRAudioRTPSink@@EAEXIPAEIUtimeval@@I@Z 004011e0 f   AMRAudioRTPSink.obj
 0001:00000290       ?specialHeaderSize@AMRAudioRTPSink@@EBEIXZ 00401290 f   AMRAudioRTPSink.obj
 0001:000002a0       ?auxSDPLine@AMRAudioRTPSink@@EAEPBDXZ 004012a0 f   AMRAudioRTPSink.obj
 0001:000002f0       ??0AMRAudioSource@@IAE@AAVUsageEnvironment@@II@Z 004012f0 f   AMRAudioSource.obj
 0001:00000320       ??_EAMRAudioSource@@MAEPAXI@Z 00401320 f i AMRAudioSource.obj
 0001:00000320       ??_GAMRAudioSource@@MAEPAXI@Z 00401320 f i AMRAudioSource.obj
 0001:00000340       ??1AMRAudioSource@@MAE@XZ  00401340 f   AMRAudioSource.obj
 0001:00000350       ??0AudioRTPSink@@IAE@AAVUsageEnvironment@@PAXPAVGroupsock@@EIPBDI@Z 00401350 f   AudioRTPSink.obj
 0001:00000390       ??_EAudioRTPSink@@MAEPAXI@Z 00401390 f i AudioRTPSink.obj
 0001:00000390       ??_GAudioRTPSink@@MAEPAXI@Z 00401390 f i AudioRTPSink.obj
 0001:000003b0       ??1AudioRTPSink@@MAE@XZ    004013b0 f   AudioRTPSink.obj
 0001:000003c0       ?sdpMediaType@AudioRTPSink@@EBEPBDXZ 004013c0 f   AudioRTPSink.obj
 0001:000003d0       ??0BasicHashTable@@QAE@H@Z 004013d0 f   BasicHashTable.obj
 0001:00000430       ??_EBasicHashTable@@UAEPAXI@Z 00401430 f i BasicHashTable.obj
 0001:00000430       ??_GBasicHashTable@@UAEPAXI@Z 00401430 f i BasicHashTable.obj
 0001:00000450       ??1BasicHashTable@@UAE@XZ  00401450 f   BasicHashTable.obj
 0001:000004e0       ?Add@BasicHashTable@@EAEPAXPBDPAX@Z 004014e0 f   BasicHashTable.obj
 0001:00000530       ?Remove@BasicHashTable@@EAEIPBD@Z 00401530 f   BasicHashTable.obj
 0001:00000570       ?Lookup@BasicHashTable@@EBEPAXPBD@Z 00401570 f   BasicHashTable.obj
 0001:00000590       ?numEntries@BasicHashTable@@EBEIXZ 00401590 f   BasicHashTable.obj
 0001:000005a0       ??0Iterator@BasicHashTable@@QAE@AAV1@@Z 004015a0 f   BasicHashTable.obj
 0001:000005d0       ??_EIterator@BasicHashTable@@UAEPAXI@Z 004015d0 f i BasicHashTable.obj
 0001:000005d0       ??_GIterator@BasicHashTable@@UAEPAXI@Z 004015d0 f i BasicHashTable.obj
 0001:000005f0       ??1Iterator@BasicHashTable@@UAE@XZ 004015f0 f i BasicHashTable.obj
 0001:00000600       ?next@Iterator@BasicHashTable@@EAEPAXAAPBD@Z 00401600 f   BasicHashTable.obj
 0001:00000650       ?create@HashTable@@SAPAV1@H@Z 00401650 f   BasicHashTable.obj
 0001:000006b0       ?create@Iterator@HashTable@@SAPAV12@AAV2@@Z 004016b0 f   BasicHashTable.obj
 0001:00000710       ?lookupKey@BasicHashTable@@ABEPAVTableEntry@1@PBDAAI@Z 00401710 f   BasicHashTable.obj
 0001:00000750       ?keyMatches@BasicHashTable@@ABEIPBD0@Z 00401750 f   BasicHashTable.obj
 0001:00000800       ?insertNewEntry@BasicHashTable@@AAEPAVTableEntry@1@IPBD@Z 00401800 f   BasicHashTable.obj
 0001:00000840       ?assignKey@BasicHashTable@@AAEXPAVTableEntry@1@PBD@Z 00401840 f   BasicHashTable.obj
 0001:000008c0       ?deleteEntry@BasicHashTable@@AAEXIPAVTableEntry@1@@Z 004018c0 f   BasicHashTable.obj
 0001:00000910       ?deleteKey@BasicHashTable@@AAEXPAVTableEntry@1@@Z 00401910 f   BasicHashTable.obj
 0001:00000940       ?rebuild@BasicHashTable@@AAEXXZ 00401940 f   BasicHashTable.obj
 0001:00000a00       ?hashIndexFromKey@BasicHashTable@@ABEIPBD@Z 00401a00 f   BasicHashTable.obj
 0001:00000a70       ??0BasicTaskScheduler0@@IAE@XZ 00401a70 f   BasicTaskScheduler0.obj
 0001:00000b00       ??_EBasicTaskScheduler0@@UAEPAXI@Z 00401b00 f i BasicTaskScheduler0.obj
 0001:00000b00       ??_GBasicTaskScheduler0@@UAEPAXI@Z 00401b00 f i BasicTaskScheduler0.obj
 0001:00000b20       ??1BasicTaskScheduler0@@UAE@XZ 00401b20 f   BasicTaskScheduler0.obj
 0001:00000b90       ?scheduleDelayedTask@BasicTaskScheduler0@@UAEPAX_JP6AXPAX@Z1@Z 00401b90 f   BasicTaskScheduler0.obj
 0001:00000c50       ?handleTimeout@AlarmHandler@@EAEXXZ 00401c50 f i BasicTaskScheduler0.obj
 0001:00000c70       ??_EAlarmHandler@@UAEPAXI@Z 00401c70 f i BasicTaskScheduler0.obj
 0001:00000c70       ??_GAlarmHandler@@UAEPAXI@Z 00401c70 f i BasicTaskScheduler0.obj
 0001:00000c90       ??1AlarmHandler@@UAE@XZ    00401c90 f i BasicTaskScheduler0.obj
 0001:00000ca0       ?unscheduleDelayedTask@BasicTaskScheduler0@@UAEXAAPAX@Z 00401ca0 f   BasicTaskScheduler0.obj
 0001:00000cd0       ?doEventLoop@BasicTaskScheduler0@@UAEXPAD@Z 00401cd0 f   BasicTaskScheduler0.obj
 0001:00000d00       ??0HandlerDescriptor@@AAE@PAV0@@Z 00401d00 f   BasicTaskScheduler0.obj
 0001:00000d40       ??_EHandlerDescriptor@@EAEPAXI@Z 00401d40 f i BasicTaskScheduler0.obj
 0001:00000d40       ??_GHandlerDescriptor@@EAEPAXI@Z 00401d40 f i BasicTaskScheduler0.obj
 0001:00000d60       ??1HandlerDescriptor@@EAE@XZ 00401d60 f   BasicTaskScheduler0.obj
 0001:00000d80       ??0HandlerSet@@QAE@XZ      00401d80 f   BasicTaskScheduler0.obj
 0001:00000da0       ??_GHandlerSet@@UAEPAXI@Z  00401da0 f i BasicTaskScheduler0.obj
 0001:00000da0       ??_EHandlerSet@@UAEPAXI@Z  00401da0 f i BasicTaskScheduler0.obj
 0001:00000dc0       ??1HandlerSet@@UAE@XZ      00401dc0 f   BasicTaskScheduler0.obj
 0001:00000e20       ?assignHandler@HandlerSet@@QAEXHHP6AXPAXH@Z0@Z 00401e20 f   BasicTaskScheduler0.obj
 0001:00000e70       ?clearHandler@HandlerSet@@QAEXH@Z 00401e70 f   BasicTaskScheduler0.obj
 0001:00000e90       ?moveHandler@HandlerSet@@QAEXHH@Z 00401e90 f   BasicTaskScheduler0.obj
 0001:00000eb0       ?lookupHandler@HandlerSet@@AAEPAVHandlerDescriptor@@H@Z 00401eb0 f   BasicTaskScheduler0.obj
 0001:00000f30       ??0HandlerIterator@@QAE@AAVHandlerSet@@@Z 00401f30 f   BasicTaskScheduler0.obj
 0001:00000f50       ??_GHandlerIterator@@UAEPAXI@Z 00401f50 f i BasicTaskScheduler0.obj
 0001:00000f50       ??_EHandlerIterator@@UAEPAXI@Z 00401f50 f i BasicTaskScheduler0.obj
 0001:00000f70       ??1HandlerIterator@@UAE@XZ 00401f70 f   BasicTaskScheduler0.obj
 0001:00000f80       ?reset@HandlerIterator@@QAEXXZ 00401f80 f   BasicTaskScheduler0.obj
 0001:00000f90       ?next@HandlerIterator@@QAEPAVHandlerDescriptor@@XZ 00401f90 f   BasicTaskScheduler0.obj
 0001:00001070       ?createNew@BasicTaskScheduler@@SAPAV1@XZ 00402070 f   BasicTaskScheduler.obj
 0001:000010d0       ??0BasicTaskScheduler@@IAE@XZ 004020d0 f   BasicTaskScheduler.obj
 0001:00001100       ??_EBasicTaskScheduler@@UAEPAXI@Z 00402100 f i BasicTaskScheduler.obj
 0001:00001100       ??_GBasicTaskScheduler@@UAEPAXI@Z 00402100 f i BasicTaskScheduler.obj
 0001:00001120       ??1BasicTaskScheduler@@UAE@XZ 00402120 f   BasicTaskScheduler.obj
 0001:00001130       ?SingleStep@BasicTaskScheduler@@MAEXI@Z 00402130 f   BasicTaskScheduler.obj
 0001:000014e0       ?setBackgroundHandling@BasicTaskScheduler@@MAEXHHP6AXPAXH@Z0@Z 004024e0 f   BasicTaskScheduler.obj
 0001:00001670       ?moveSocketHandling@BasicTaskScheduler@@MAEXHH@Z 00402670 f   BasicTaskScheduler.obj
 0001:00001890       ?createNew@BasicUDPSink@@SAPAV1@AAVUsageEnvironment@@PAVGroupsock@@I@Z 00402890 f   BasicUDPSink.obj
 0001:00001900       ??0BasicUDPSink@@IAE@AAVUsageEnvironment@@PAVGroupsock@@I@Z 00402900 f   BasicUDPSink.obj
 0001:00001970       ??_EBasicUDPSink@@MAEPAXI@Z 00402970 f i BasicUDPSink.obj
 0001:00001970       ??_GBasicUDPSink@@MAEPAXI@Z 00402970 f i BasicUDPSink.obj
 0001:00001990       ??1BasicUDPSink@@MAE@XZ    00402990 f   BasicUDPSink.obj
 0001:000019f0       ?continuePlaying@BasicUDPSink@@EAEIXZ 004029f0 f   BasicUDPSink.obj
 0001:00001a10       ?continuePlaying1@BasicUDPSink@@AAEXXZ 00402a10 f   BasicUDPSink.obj
 0001:00001a40       ?afterGettingFrame@BasicUDPSink@@CAXPAXIIUtimeval@@I@Z 00402a40 f   BasicUDPSink.obj
 0001:00001a60       ?afterGettingFrame1@BasicUDPSink@@AAEXIII@Z 00402a60 f   BasicUDPSink.obj
 0001:00001b50       ?sendNext@BasicUDPSink@@CAXPAX@Z 00402b50 f   BasicUDPSink.obj
 0001:00001b60       ??0BasicUsageEnvironment0@@IAE@AAVTaskScheduler@@@Z 00402b60 f   BasicUsageEnvironment0.obj
 0001:00001bc0       ??_EBasicUsageEnvironment0@@MAEPAXI@Z 00402bc0 f i BasicUsageEnvironment0.obj
 0001:00001bc0       ??_GBasicUsageEnvironment0@@MAEPAXI@Z 00402bc0 f i BasicUsageEnvironment0.obj
 0001:00001be0       ??1BasicUsageEnvironment0@@MAE@XZ 00402be0 f   BasicUsageEnvironment0.obj
 0001:00001bf0       ?reset@BasicUsageEnvironment0@@AAEXXZ 00402bf0 f   BasicUsageEnvironment0.obj
 0001:00001c00       ?getResultMsg@BasicUsageEnvironment0@@UBEPBDXZ 00402c00 f   BasicUsageEnvironment0.obj
 0001:00001c10       ?setResultMsg@BasicUsageEnvironment0@@UAEXPBD@Z 00402c10 f   BasicUsageEnvironment0.obj
 0001:00001c30       ?setResultMsg@BasicUsageEnvironment0@@UAEXPBD0@Z 00402c30 f   BasicUsageEnvironment0.obj
 0001:00001c50       ?setResultMsg@BasicUsageEnvironment0@@UAEXPBD00@Z 00402c50 f   BasicUsageEnvironment0.obj
 0001:00001c80       ?setResultErrMsg@BasicUsageEnvironment0@@UAEXPBDH@Z 00402c80 f   BasicUsageEnvironment0.obj
 0001:00001cc0       ?appendToResultMsg@BasicUsageEnvironment0@@UAEXPBD@Z 00402cc0 f   BasicUsageEnvironment0.obj
 0001:00001d20       ?reportBackgroundError@BasicUsageEnvironment0@@UAEXXZ 00402d20 f   BasicUsageEnvironment0.obj
 0001:00001e00       ??0BasicUsageEnvironment@@IAE@AAVTaskScheduler@@@Z 00402e00 f   BasicUsageEnvironment.obj
 0001:00001e70       ??_EBasicUsageEnvironment@@MAEPAXI@Z 00402e70 f i BasicUsageEnvironment.obj
 0001:00001e70       ??_GBasicUsageEnvironment@@MAEPAXI@Z 00402e70 f i BasicUsageEnvironment.obj
 0001:00001e90       ??1BasicUsageEnvironment@@MAE@XZ 00402e90 f   BasicUsageEnvironment.obj
 0001:00001ea0       ?createNew@BasicUsageEnvironment@@SAPAV1@AAVTaskScheduler@@@Z 00402ea0 f   BasicUsageEnvironment.obj
 0001:00001f00       ?getErrno@BasicUsageEnvironment@@UBEHXZ 00402f00 f   BasicUsageEnvironment.obj
 0001:00001f10       ??6BasicUsageEnvironment@@UAEAAVUsageEnvironment@@PBD@Z 00402f10 f   BasicUsageEnvironment.obj
 0001:00001f40       ??6BasicUsageEnvironment@@UAEAAVUsageEnvironment@@H@Z 00402f40 f   BasicUsageEnvironment.obj
 0001:00001f60       ??6BasicUsageEnvironment@@UAEAAVUsageEnvironment@@I@Z 00402f60 f   BasicUsageEnvironment.obj
 0001:00001f80       ??6BasicUsageEnvironment@@UAEAAVUsageEnvironment@@N@Z 00402f80 f   BasicUsageEnvironment.obj
 0001:00001fb0       ??6BasicUsageEnvironment@@UAEAAVUsageEnvironment@@PAX@Z 00402fb0 f   BasicUsageEnvironment.obj
 0001:00002090       ??PTimeval@@QBEHABV0@@Z    00403090 f   DelayQueue.obj
 0001:000020c0       ??YTimeval@@QAEXABVDelayInterval@@@Z 004030c0 f   DelayQueue.obj
 0001:00002100       ??ZTimeval@@QAEXABVDelayInterval@@@Z 00403100 f   DelayQueue.obj
 0001:00002150       ??G@YA?AVDelayInterval@@ABVTimeval@@0@Z 00403150 f   DelayQueue.obj
 0001:000021a0       ??D@YA?AVDelayInterval@@FABV0@@Z 004031a0 f   DelayQueue.obj
 0001:00002270       ??0DelayQueueEntry@@IAE@VDelayInterval@@@Z 00403270 f   DelayQueue.obj
 0001:000022a0       ??_GDelayQueueEntry@@UAEPAXI@Z 004032a0 f i DelayQueue.obj
 0001:000022a0       ??_EDelayQueueEntry@@UAEPAXI@Z 004032a0 f i DelayQueue.obj
 0001:000022c0       ??1DelayQueueEntry@@UAE@XZ 004032c0 f   DelayQueue.obj
 0001:000022d0       ?closeHttpSocketAndFreeResource@RTSPClientSession@RTSPServer@@QAEXXZ 004032d0 f   DelayQueue.obj
 0001:000022d0       ?handleTimeout@DelayQueueEntry@@MAEXXZ 004032d0 f   DelayQueue.obj
 0001:000022e0       ??0DelayQueue@@QAE@XZ      004032e0 f   DelayQueue.obj
 0001:00002350       ??_EDelayQueue@@UAEPAXI@Z  00403350 f i DelayQueue.obj
 0001:00002350       ??_GDelayQueue@@UAEPAXI@Z  00403350 f i DelayQueue.obj
 0001:00002370       ??1DelayQueue@@UAE@XZ      00403370 f   DelayQueue.obj
 0001:000023d0       ?addEntry@DelayQueue@@QAEXPAVDelayQueueEntry@@@Z 004033d0 f   DelayQueue.obj
 0001:00002430       ?removeEntry@DelayQueue@@QAEXPAVDelayQueueEntry@@@Z 00403430 f   DelayQueue.obj
 0001:00002470       ?removeEntry@DelayQueue@@QAEPAVDelayQueueEntry@@J@Z 00403470 f   DelayQueue.obj
 0001:00002490       ?timeToNextAlarm@DelayQueue@@QAEABVDelayInterval@@XZ 00403490 f   DelayQueue.obj
 0001:000024e0       ?handleAlarm@DelayQueue@@QAEXXZ 004034e0 f   DelayQueue.obj
 0001:00002550       ?findEntryByToken@DelayQueue@@AAEPAVDelayQueueEntry@@J@Z 00403550 f   DelayQueue.obj
 0001:000025b0       ?synchronize@DelayQueue@@AAEXXZ 004035b0 f   DelayQueue.obj
 0001:00002700       ?TimeNow@@YA?AVEventTime@@XZ 00403700 f   DelayQueue.obj
 0001:00002760       ??0Authenticator@@QAE@XZ   00403760 f   DigestAuthentication.obj
 0001:00002780       ??_GAuthenticator@@UAEPAXI@Z 00403780 f i DigestAuthentication.obj
 0001:00002780       ??_EAuthenticator@@UAEPAXI@Z 00403780 f i DigestAuthentication.obj
 0001:000027a0       ??1Authenticator@@UAE@XZ   004037a0 f   DigestAuthentication.obj
 0001:000027b0       ?reset@Authenticator@@QAEXXZ 004037b0 f   DigestAuthentication.obj
 0001:000027d0       ?setRealmAndRandomNonce@Authenticator@@QAEXPBD@Z 004037d0 f   DigestAuthentication.obj
 0001:00002830       ?setUsernameAndPassword@Authenticator@@QAEXPBD0I@Z 00403830 f   DigestAuthentication.obj
 0001:00002860       ?computeDigestResponse@Authenticator@@QBEPBDPBD0@Z 00403860 f   DigestAuthentication.obj
 0001:000029a0       ?reclaimDigestResponse@Authenticator@@QBEXPBD@Z 004039a0 f   DigestAuthentication.obj
 0001:000029b0       ?resetRealmAndNonce@Authenticator@@AAEXXZ 004039b0 f   DigestAuthentication.obj
 0001:000029e0       ?resetUsernameAndPassword@Authenticator@@AAEXXZ 004039e0 f   DigestAuthentication.obj
 0001:00002a10       ?assignRealmAndNonce@Authenticator@@AAEXPBD0@Z 00403a10 f   DigestAuthentication.obj
 0001:00002a40       ?assignUsernameAndPassword@Authenticator@@AAEXPBD0I@Z 00403a40 f   DigestAuthentication.obj
 0001:00002a70       ?assign@Authenticator@@AAEXPBD000I@Z 00403a70 f   DigestAuthentication.obj
 0001:00002aa0       ?Hik_ReleaseInstance@@YAXPAU_HikInstance@@@Z 00403aa0 f   DvrWnd.obj
 0001:00002ac0       ?CreateWnd@@YAPAUHWND__@@XZ 00403ac0 f   DvrWnd.obj
 0001:00002c10       ?MessageLoop@@YGKPAX@Z     00403c10 f   DvrWnd.obj
 0001:00002c90       ?createNewRTPSink@EncoderMediaSubsession@@MAEPAVRTPSink@@PAVGroupsock@@EPAVFramedSource@@@Z 00403c90 f   EncoderMediaSubsession.obj
 0001:00002ce0       ?createNewVideoSource@EncoderMediaSubsession@@MAEPAVFramedSource@@IAAI@Z 00403ce0 f   EncoderMediaSubsession.obj
 0001:00002d30       ?createNewAudioSource@EncoderMediaSubsession@@MAEPAVFramedSource@@IAAI@Z 00403d30 f   EncoderMediaSubsession.obj
 0001:00002d70       ?SetVideoParameters@EncoderMediaSubsession@@QAEXHHHHHPAD@Z 00403d70 f   EncoderMediaSubsession.obj
 0001:00002de0       ?SetAudioParameters@EncoderMediaSubsession@@QAEXHHHPAD@Z 00403de0 f   EncoderMediaSubsession.obj
 0001:00002e40       ?createNew@EncoderMediaSubsession@@SAPAV1@AAVUsageEnvironment@@PAXIIG@Z 00403e40 f   EncoderMediaSubsession.obj
 0001:00002ec0       ??0EncoderMediaSubsession@@IAE@AAVUsageEnvironment@@PAXIIG@Z 00403ec0 f   EncoderMediaSubsession.obj
 0001:00002f60       ??_EEncoderMediaSubsession@@MAEPAXI@Z 00403f60 f i EncoderMediaSubsession.obj
 0001:00002f60       ??_GEncoderMediaSubsession@@MAEPAXI@Z 00403f60 f i EncoderMediaSubsession.obj
 0001:00002f80       ??1EncoderMediaSubsession@@MAE@XZ 00403f80 f   EncoderMediaSubsession.obj
 0001:00002ff0       ?sdpLines@EncoderMediaSubsession@@MAEPBDXZ 00403ff0 f   EncoderMediaSubsession.obj
 0001:00003130       ?envir@Medium@@QBEAAVUsageEnvironment@@XZ 00404130 f i EncoderMediaSubsession.obj
 0001:00003140       ?getStreamParameters@EncoderMediaSubsession@@MAEXIIABVPort@@0HEEAAIAAE1AAV2@3AAPAX@Z 00404140 f   EncoderMediaSubsession.obj
 0001:00003560       ?startStream@EncoderMediaSubsession@@MAEXIPAXP6AX0@Z0AAGAAIP6AX0E@Z00II@Z 00404560 f   EncoderMediaSubsession.obj
 0001:00003650       ?pauseStream@EncoderMediaSubsession@@MAEXIPAX@Z 00404650 f   EncoderMediaSubsession.obj
 0001:000036c0       ?seekStream@EncoderMediaSubsession@@MAEXIPAXN@Z 004046c0 f   EncoderMediaSubsession.obj
 0001:000036f0       ?setStreamScale@EncoderMediaSubsession@@MAEXIPAXM@Z 004046f0 f   EncoderMediaSubsession.obj
 0001:00003720       ?deleteStream@EncoderMediaSubsession@@MAEXIAAPAX@Z 00404720 f   EncoderMediaSubsession.obj
 0001:000037b0       ?getAuxSDPLine@EncoderMediaSubsession@@MAEPBDPAVRTPSink@@PAVFramedSource@@@Z 004047b0 f   EncoderMediaSubsession.obj
 0001:000037d0       ?closeStreamSource@EncoderMediaSubsession@@MAEXPAVFramedSource@@@Z 004047d0 f   EncoderMediaSubsession.obj
 0001:000037e0       ?setSDPLinesFromRTPSink@EncoderMediaSubsession@@AAEXPAVRTPSink@@PAVFramedSource@@I@Z 004047e0 f   EncoderMediaSubsession.obj
 0001:00003920       ??0StreamState@@QAE@AAVEncoderMediaSubsession@@ABVPort@@1PAVRTPSink@@PAVBasicUDPSink@@IPAVFramedSource@@PAVGroupsock@@5@Z 00404920 f   EncoderMediaSubsession.obj
 0001:000039a0       ??_GStreamState@@UAEPAXI@Z 004049a0 f i EncoderMediaSubsession.obj
 0001:000039a0       ??_EStreamState@@UAEPAXI@Z 004049a0 f i EncoderMediaSubsession.obj
 0001:000039c0       ??1StreamState@@UAE@XZ     004049c0 f   EncoderMediaSubsession.obj
 0001:000039d0       ?startPlaying@StreamState@@QAEXPAVDestinations@@P6AXPAX@Z1P6AX1E@Z1@Z 004049d0 f   EncoderMediaSubsession.obj
 0001:00003b20       ?pause@StreamState@@QAEXXZ 00404b20 f   EncoderMediaSubsession.obj
 0001:00003b50       ?endPlaying@StreamState@@QAEXPAVDestinations@@PAD1@Z 00404b50 f   EncoderMediaSubsession.obj
 0001:00003d00       ?reclaim@StreamState@@QAEXXZ 00404d00 f   EncoderMediaSubsession.obj
 0001:00003d60       ?createNew@EncoderVideoSource@@SAPAV1@AAVUsageEnvironment@@IIIIIPAD@Z 00404d60 f   EncoderSource.obj
 0001:00003de0       ??0EncoderVideoSource@@IAE@AAVUsageEnvironment@@IIIIIW4VideoCodec@0@PAD@Z 00404de0 f   EncoderSource.obj
 0001:00003fb0       ??_GEncoderVideoSource@@MAEPAXI@Z 00404fb0 f i EncoderSource.obj
 0001:00003fb0       ??_EEncoderVideoSource@@MAEPAXI@Z 00404fb0 f i EncoderSource.obj
 0001:00003fd0       ??1EncoderVideoSource@@MAE@XZ 00404fd0 f   EncoderSource.obj
 0001:00004060       ?doGetNextFrame@EncoderVideoSource@@EAEXXZ 00405060 f   EncoderSource.obj
 0001:00004080       ?MPEG4_doGetNextFrame@EncoderVideoSource@@AAEXXZ 00405080 f   EncoderSource.obj
 0001:000041c0       ?getLivehdFrame@EncoderVideoSource@@AAEHXZ 004051c0 f   EncoderSource.obj
 0001:00004660       _emms_c                    00405660 f   EncoderSource.obj
 0001:00004660       ?getRecordDirectories@@YAXHPAPADPAH11@Z 00405660 f   EncoderSource.obj
 0001:00004660       _AddMember                 00405660 f   EncoderSource.obj
 0001:00004660       ?getRecordFiles@@YAXHPADPAPADPAH22@Z 00405660 f   EncoderSource.obj
 0001:00004660       ?getUpgradeStatus@@YAXPAD0@Z 00405660 f   EncoderSource.obj
 0001:00004660       ?doStopGettingFrames@FramedSource@@MAEXXZ 00405660 f   EncoderSource.obj
 0001:00004660       ?deviceReset@RTSPEncoderSession@RTSPServer@@IAEXXZ 00405660 f   EncoderSource.obj
 0001:00004660       ?H264_doGetNextFrame@EncoderVideoSource@@AAEXXZ 00405660 f   EncoderSource.obj
 0001:00004660       _AddSender                 00405660 f   EncoderSource.obj
 0001:00004660       _RemoveSender              00405660 f   EncoderSource.obj
 0001:00004670       ?computePresentationTime@EncoderVideoSource@@AAEHXZ 00405670 f   EncoderSource.obj
 0001:000047d0       ?getConfigBytes@EncoderVideoSource@@QBEPAEAAI@Z 004057d0 f   EncoderSource.obj
 0001:000047f0       ?createNew@EncoderAudioSource@@SAPAV1@AAVUsageEnvironment@@IIIPAD@Z 004057f0 f   EncoderSource.obj
 0001:00004870       ??0EncoderAudioSource@@IAE@AAVUsageEnvironment@@IIIW4AudioCodec@0@PAD@Z 00405870 f   EncoderSource.obj
 0001:00004940       ??_GEncoderAudioSource@@MAEPAXI@Z 00405940 f i EncoderSource.obj
 0001:00004940       ??_EEncoderAudioSource@@MAEPAXI@Z 00405940 f i EncoderSource.obj
 0001:00004960       ??1EncoderAudioSource@@MAE@XZ 00405960 f   EncoderSource.obj
 0001:000049d0       ?computeAudioPresentationTime@EncoderAudioSource@@AAEHXZ 004059d0 f   EncoderSource.obj
 0001:00004a70       ?doGetNextFrame@EncoderAudioSource@@EAEXXZ 00405a70 f   EncoderSource.obj
 0001:00004b30       ??0FramedSource@@IAE@AAVUsageEnvironment@@@Z 00405b30 f   FramedSource.obj
 0001:00004b60       ??_EFramedSource@@MAEPAXI@Z 00405b60 f i FramedSource.obj
 0001:00004b60       ??_GFramedSource@@MAEPAXI@Z 00405b60 f i FramedSource.obj
 0001:00004b80       ??1FramedSource@@MAE@XZ    00405b80 f   FramedSource.obj
 0001:00004b90       ?getNextFrame@FramedSource@@QAEXPAEIP6AXPAXIIUtimeval@@I@Z1P6AX1@Z1@Z 00405b90 f   FramedSource.obj
 0001:00004c10       ?afterGetting@FramedSource@@KAXPAV1@@Z 00405c10 f   FramedSource.obj
 0001:00004c40       ?stopGettingFrames@FramedSource@@QAEXXZ 00405c40 f   FramedSource.obj
 0001:00004c50       ?assign@Scope@@AAEXEPBD@Z  00405c50 f   GroupEId.obj
 0001:00004c80       ?clean@Scope@@AAEXXZ       00405c80 f   GroupEId.obj
 0001:00004ca0       ??0Scope@@QAE@EPBD@Z       00405ca0 f   GroupEId.obj
 0001:00004cc0       ??4Scope@@QAEAAV0@ABV0@@Z  00405cc0 f   GroupEId.obj
 0001:00004d40       ??1Scope@@QAE@XZ           00405d40 f   GroupEId.obj
 0001:00004d50       ??0GroupEId@@QAE@ABUin_addr@@GABVScope@@I@Z 00405d50 f   GroupEId.obj
 0001:00004dc0       ?isSSM@GroupEId@@QBEIXZ    00405dc0 f   GroupEId.obj
 0001:00004dd0       ?init@GroupEId@@AAEXABUin_addr@@0GABVScope@@I@Z 00405dd0 f   GroupEId.obj
 0001:00004e10       ??_EOutputSocket@@UAEPAXI@Z 00405e10 f i Groupsock.obj
 0001:00004e10       ??_GOutputSocket@@UAEPAXI@Z 00405e10 f i Groupsock.obj
 0001:00004e30       ??0OutputSocket@@IAE@AAVUsageEnvironment@@VPort@@@Z 00405e30 f   Groupsock.obj
 0001:00004e90       ??1OutputSocket@@UAE@XZ    00405e90 f   Groupsock.obj
 0001:00004ea0       ?write@OutputSocket@@QAEIIVPort@@EPAEI@Z 00405ea0 f   Groupsock.obj
 0001:00004f60       ?handleRead@OutputSocket@@EAEIPAEIAAIAAUsockaddr_in@@@Z 00405f60 f   Groupsock.obj
 0001:00004f70       ??0destRecord@@QAE@ABUin_addr@@ABVPort@@EPAV0@@Z 00405f70 f   Groupsock.obj
 0001:00005000       ??_EdestRecord@@UAEPAXI@Z  00406000 f i Groupsock.obj
 0001:00005000       ??_GdestRecord@@UAEPAXI@Z  00406000 f i Groupsock.obj
 0001:00005020       ??1GroupEId@@QAE@XZ        00406020 f i Groupsock.obj
 0001:00005030       ??1destRecord@@UAE@XZ      00406030 f   Groupsock.obj
 0001:00005110       ??0Groupsock@@QAE@AAVUsageEnvironment@@ABUin_addr@@VPort@@E@Z 00406110 f   Groupsock.obj
 0001:000052a0       ??_EGroupsock@@UAEPAXI@Z   004062a0 f i Groupsock.obj
 0001:000052a0       ??_GGroupsock@@UAEPAXI@Z   004062a0 f i Groupsock.obj
 0001:000052c0       ??1Groupsock@@UAE@XZ       004062c0 f   Groupsock.obj
 0001:000053a0       ?addDestination@Groupsock@@QAEXABUin_addr@@ABVPort@@@Z 004063a0 f   Groupsock.obj
 0001:00005430       ?removeDestination@Groupsock@@QAEXABUin_addr@@ABVPort@@@Z 00406430 f   Groupsock.obj
 0001:00005490       ?removeAllDestinations@Groupsock@@QAEXXZ 00406490 f   Groupsock.obj
 0001:000054b0       ?multicastSendOnly@Groupsock@@QAEXXZ 004064b0 f   Groupsock.obj
 0001:000054f0       ?output@Groupsock@@QAEIAAVUsageEnvironment@@EPAEIPAVDirectedNetInterface@@@Z 004064f0 f   Groupsock.obj
 0001:00005620       ?handleRead@Groupsock@@UAEIPAEIAAIAAUsockaddr_in@@@Z 00406620 f   Groupsock.obj
 0001:000057a0       ?wasLoopedBackFromUs@Groupsock@@QAEIAAVUsageEnvironment@@AAUsockaddr_in@@@Z 004067a0 f   Groupsock.obj
 0001:000057e0       ?outputToAllMembersExcept@Groupsock@@AAEHPAVDirectedNetInterface@@EPAEII@Z 004067e0 f   Groupsock.obj
 0001:000059f0       ??6@YAAAVUsageEnvironment@@AAV0@ABVGroupsock@@@Z 004069f0 f   Groupsock.obj
 0001:00005b10       ?id@?$ctype@G@std@@$E      00406b10 f i Groupsock.obj
 0001:00005b20       ??0NoReuse@@QAE@XZ         00406b20 f   GroupsockHelper.obj
 0001:00005b30       ??1NoReuse@@QAE@XZ         00406b30 f   GroupsockHelper.obj
 0001:00005b40       ?setupDatagramSocket@@YAHAAVUsageEnvironment@@VPort@@@Z 00406b40 f   GroupsockHelper.obj
 0001:00005ca0       ?makeSocketNonBlocking@@YAIH@Z 00406ca0 f   GroupsockHelper.obj
 0001:00005cd0       ?setupStreamSocket@@YAHAAVUsageEnvironment@@VPort@@I@Z 00406cd0 f   GroupsockHelper.obj
 0001:00005e00       ?readSocket@@YAHAAVUsageEnvironment@@HPAEIAAUsockaddr_in@@PAUtimeval@@@Z 00406e00 f   GroupsockHelper.obj
 0001:00005f80       ?readSocketExact@@YAHAAVUsageEnvironment@@HPAEIAAUsockaddr_in@@PAUtimeval@@@Z 00406f80 f   GroupsockHelper.obj
 0001:00005fe0       ?writeSocket@@YAIAAVUsageEnvironment@@HUin_addr@@VPort@@EPAEI@Z 00406fe0 f   GroupsockHelper.obj
 0001:00006100       ?increaseSendBufferTo@@YAIAAVUsageEnvironment@@HI@Z 00407100 f   GroupsockHelper.obj
 0001:00006190       ?socketJoinGroup@@YAIAAVUsageEnvironment@@HI@Z 00407190 f   GroupsockHelper.obj
 0001:00006200       ?socketLeaveGroup@@YAIAAVUsageEnvironment@@HI@Z 00407200 f   GroupsockHelper.obj
 0001:00006250       ?socketLeaveGroupSSM@@YAIAAVUsageEnvironment@@HII@Z 00407250 f   GroupsockHelper.obj
 0001:000062b0       ?getSourcePort@@YAIAAVUsageEnvironment@@HAAVPort@@@Z 004072b0 f   GroupsockHelper.obj
 0001:000063a0       ?ourIPAddress@@YAIAAVUsageEnvironment@@@Z 004073a0 f   GroupsockHelper.obj
 0001:00006610       ?timestampString@@YAPBDXZ  00407610 f   GroupsockHelper.obj
 0001:00006660       ?gettimeofday@@YAHPAUtimeval@@PAH@Z 00407660 f   GroupsockHelper.obj
 0001:000067a0       ??0HashTable@@IAE@XZ       004077a0 f   HashTable.obj
 0001:000067b0       ??_EHashTable@@UAEPAXI@Z   004077b0 f i HashTable.obj
 0001:000067b0       ??_GHashTable@@UAEPAXI@Z   004077b0 f i HashTable.obj
 0001:000067d0       ??1HashTable@@UAE@XZ       004077d0 f   HashTable.obj
 0001:000067e0       ??0Iterator@HashTable@@IAE@XZ 004077e0 f   HashTable.obj
 0001:000067f0       ??_GIterator@HashTable@@UAEPAXI@Z 004077f0 f i HashTable.obj
 0001:000067f0       ??_EIterator@HashTable@@UAEPAXI@Z 004077f0 f i HashTable.obj
 0001:00006810       ??1Iterator@HashTable@@UAE@XZ 00407810 f   HashTable.obj
 0001:00006820       ?RemoveNext@HashTable@@QAEPAXXZ 00407820 f   HashTable.obj
 0001:00006870       ?initFrameData@@YAXPAUframeQueue@@@Z 00407870 f   HikData.obj
 0001:000068c0       ?deleteFrontNodeData@@YAHPAUframeQueue@@@Z 004078c0 f   HikData.obj
 0001:00006900       ?addFrameData@@YAHPAUframeQueue@@PAUsingleframe@@@Z 00407900 f   HikData.obj
 0001:00006a10       ?readFrameData@@YAHPAUframeQueue@@PAUsingleframe@@@Z 00407a10 f   HikData.obj
 0001:00006ac0       ?freeSingleFrameData@@YAXPAUframeData@@@Z 00407ac0 f   HikData.obj
 0001:00006b10       ?I420Cif2Qcif@@YAXPAE0@Z   00407b10 f   HikData.obj
 0001:00006ca0       ?videoGetFrameInfoByHik@@YAXPADPAHHH@Z 00407ca0 f   HikData.obj
 0001:00006d50       ?CapPicFun@@YGXJPADJJJJJJ@Z 00407d50 f   HikData.obj
 0001:00006dd0       ?ThreadCallback@@YAKPAX@Z  00407dd0 f   HikData.obj
 0001:00006f20       ?getFrameByHikSDK@@YAXXZ   00407f20 f   HikData.obj
 0001:00006f60       _our_inet_addr             00407f60 f   inet.obj
 0001:00006f70       _our_inet_ntoa             00407f70 f   inet.obj
 0001:00006f80       _initializeWinsockIfNecessary 00407f80 f   inet.obj
 0001:00007000       _our_random                00408000 f   inet.obj
 0001:00007010       _our_srandom               00408010 f   inet.obj
 0001:00007020       _our_random32              00408020 f   inet.obj
 0001:00007040       ??0Locale@@QAE@PBDH@Z      00408040 f   Locale.obj
 0001:00007080       ??_GLocale@@UAEPAXI@Z      00408080 f i Locale.obj
 0001:00007080       ??_ELocale@@UAEPAXI@Z      00408080 f i Locale.obj
 0001:000070a0       ??1Locale@@UAE@XZ          004080a0 f   Locale.obj
 0001:000070d0       ??0Medium@@IAE@AAVUsageEnvironment@@@Z 004080d0 f   Media.obj
 0001:00007130       ??_GMedium@@MAEPAXI@Z      00408130 f i Media.obj
 0001:00007130       ??_EMedium@@MAEPAXI@Z      00408130 f i Media.obj
 0001:00007150       ??1Medium@@MAE@XZ          00408150 f   Media.obj
 0001:00007170       ?lookupByName@Medium@@SAIAAVUsageEnvironment@@PBDAAPAV1@@Z 00408170 f   Media.obj
 0001:000071c0       ?close@Medium@@SAXAAVUsageEnvironment@@PBD@Z 004081c0 f   Media.obj
 0001:000071e0       ?close@Medium@@SAXPAV1@@Z  004081e0 f   Media.obj
 0001:00007200       ?getOurTables@_Tables@@SAPAV1@AAVUsageEnvironment@@@Z 00408200 f   Media.obj
 0001:00007260       ?reclaimIfPossible@_Tables@@QAEXXZ 00408260 f   Media.obj
 0001:00007290       ??0_Tables@@IAE@AAVUsageEnvironment@@@Z 00408290 f   Media.obj
 0001:000072b0       ??_G_Tables@@MAEPAXI@Z     004082b0 f i Media.obj
 0001:000072b0       ??_E_Tables@@MAEPAXI@Z     004082b0 f i Media.obj
 0001:000072d0       ??1_Tables@@MAE@XZ         004082d0 f   Media.obj
 0001:000072e0       ?ourMedia@MediaLookupTable@@SAPAV1@AAVUsageEnvironment@@@Z 004082e0 f   Media.obj
 0001:00007350       ?lookup@RTPReceptionStatsDB@@QBEPAVRTPReceptionStats@@I@Z 00408350 f   Media.obj
 0001:00007350       ?lookup@MediaLookupTable@@QBEPAVMedium@@PBD@Z 00408350 f   Media.obj
 0001:00007360       ?addNew@MediaLookupTable@@QAEXPAVMedium@@PAD@Z 00408360 f   Media.obj
 0001:00007380       ?remove@MediaLookupTable@@QAEXPBD@Z 00408380 f   Media.obj
 0001:000073f0       ?generateNewName@MediaLookupTable@@QAEXPADI@Z 004083f0 f   Media.obj
 0001:00007410       ??0MediaLookupTable@@IAE@AAVUsageEnvironment@@@Z 00408410 f   Media.obj
 0001:00007440       ??_EMediaLookupTable@@MAEPAXI@Z 00408440 f i Media.obj
 0001:00007440       ??_GMediaLookupTable@@MAEPAXI@Z 00408440 f i Media.obj
 0001:00007460       ??1MediaLookupTable@@MAE@XZ 00408460 f   Media.obj
 0001:00007480       ??0MediaSink@@IAE@AAVUsageEnvironment@@@Z 00408480 f   MediaSink.obj
 0001:000074a0       ??_GMediaSink@@MAEPAXI@Z   004084a0 f i MediaSink.obj
 0001:000074a0       ??_EMediaSink@@MAEPAXI@Z   004084a0 f i MediaSink.obj
 0001:000074c0       ??1MediaSink@@MAE@XZ       004084c0 f   MediaSink.obj
 0001:00007510       ?sourceIsCompatibleWithUs@MediaSink@@MAEIAAVMediaSource@@@Z 00408510 f   MediaSink.obj
 0001:00007520       ?startPlaying@MediaSink@@QAEIAAVMediaSource@@P6AXPAX@Z1@Z 00408520 f   MediaSink.obj
 0001:00007580       ?stopPlaying@MediaSink@@UAEXXZ 00408580 f   MediaSink.obj
 0001:000075c0       ?onSourceClosure@MediaSink@@KAXPAX@Z 004085c0 f   MediaSink.obj
 0001:000075e0       ??0OutPacketBuffer@@QAE@II@Z 004085e0 f   MediaSink.obj
 0001:00007630       ??1OutPacketBuffer@@QAE@XZ 00408630 f   MediaSink.obj
 0001:00007640       ?enqueue@OutPacketBuffer@@QAEXPBEI@Z 00408640 f   MediaSink.obj
 0001:00007690       ?enqueueWord@OutPacketBuffer@@QAEXI@Z 00408690 f   MediaSink.obj
 0001:000076c0       ?insert@OutPacketBuffer@@QAEXPBEII@Z 004086c0 f   MediaSink.obj
 0001:00007710       ?insertWord@OutPacketBuffer@@QAEXII@Z 00408710 f   MediaSink.obj
 0001:00007740       ?extract@OutPacketBuffer@@QAEXPAEII@Z 00408740 f   MediaSink.obj
 0001:00007780       ?extractWord@OutPacketBuffer@@QAEII@Z 00408780 f   MediaSink.obj
 0001:000077a0       ?skipBytes@OutPacketBuffer@@QAEXI@Z 004087a0 f   MediaSink.obj
 0001:000077d0       ?setOverflowData@OutPacketBuffer@@QAEXIIABUtimeval@@I@Z 004087d0 f   MediaSink.obj
 0001:00007800       ?useOverflowData@OutPacketBuffer@@QAEXXZ 00408800 f   MediaSink.obj
 0001:00007830       ?adjustPacketStart@OutPacketBuffer@@QAEXI@Z 00408830 f   MediaSink.obj
 0001:00007860       ?resetPacketStart@OutPacketBuffer@@QAEXXZ 00408860 f   MediaSink.obj
 0001:00007880       ??0MediaSource@@IAE@AAVUsageEnvironment@@@Z 00408880 f   MediaSource.obj
 0001:000078a0       ??_EMediaSource@@MAEPAXI@Z 004088a0 f i MediaSource.obj
 0001:000078a0       ??_GMediaSource@@MAEPAXI@Z 004088a0 f i MediaSource.obj
 0001:000078c0       ??1MediaSource@@MAE@XZ     004088c0 f   MediaSource.obj
 0001:000078d0       ?isServerMediaSession@ServerMediaSession@@EBEIXZ 004088d0 f   MediaSource.obj
 0001:000078d0       ?isFramedSource@FramedSource@@EBEIXZ 004088d0 f   MediaSource.obj
 0001:000078d0       ?isMPEG4VideoStreamFramer@EncoderVideoSource@@EBEIXZ 004088d0 f   MediaSource.obj
 0001:000078d0       ?isSink@MediaSink@@EBEIXZ  004088d0 f   MediaSource.obj
 0001:000078d0       ?isRTSPServer@RTSPServer@@EBEIXZ 004088d0 f   MediaSource.obj
 0001:000078d0       ?isSource@MediaSource@@EBEIXZ 004088d0 f   MediaSource.obj
 0001:000078d0       ?allowFragmentationAfterStart@MPEG4ESVideoRTPSink@@MBEIXZ 004088d0 f   MediaSource.obj
 0001:000078d0       ?isAMRAudioSource@EncoderAudioSource@@EBEIXZ 004088d0 f   MediaSource.obj
 0001:000078d0       ?isH264VideoStreamFramer@EncoderVideoSource@@EBEIXZ 004088d0 f   MediaSource.obj
 0001:000078d0       ?isAMRAudioSource@AMRAudioSource@@UBEIXZ 004088d0 f   MediaSource.obj
 0001:000078d0       ?isRTPSink@RTPSink@@EBEIXZ 004088d0 f   MediaSource.obj
 0001:000078d0       ?isRTCPInstance@RTCPInstance@@EBEIXZ 004088d0 f   MediaSource.obj
 0001:000078e0       ?MIMEtype@MediaSource@@UBEPBDXZ 004088e0 f   MediaSource.obj
 0001:000078f0       ?isMediaSession@Medium@@UBEIXZ 004088f0 f   MediaSource.obj
 0001:000078f0       ?isRTCPInstance@Medium@@UBEIXZ 004088f0 f   MediaSource.obj
 0001:000078f0       ?specialHeaderSize@MultiFramedRTPSink@@MBEIXZ 004088f0 f   MediaSource.obj
 0001:000078f0       ?isFramedSource@MediaSource@@UBEIXZ 004088f0 f   MediaSource.obj
 0001:000078f0       ?maxFrameSize@FramedSource@@UBEIXZ 004088f0 f   MediaSource.obj
 0001:000078f0       ?isAMRAudioSource@MediaSource@@UBEIXZ 004088f0 f   MediaSource.obj
 0001:000078f0       ?isDarwinInjector@Medium@@UBEIXZ 004088f0 f   MediaSource.obj
 0001:000078f0       ?isRTSPClient@Medium@@UBEIXZ 004088f0 f   MediaSource.obj
 0001:000078f0       ?allowOtherFramesAfterLastFragment@MultiFramedRTPSink@@MBEIXZ 004088f0 f   MediaSource.obj
 0001:000078f0       ?isRTPSource@MediaSource@@UBEIXZ 004088f0 f   MediaSource.obj
 0001:000078f0       ?isSink@Medium@@UBEIXZ     004088f0 f   MediaSource.obj
 0001:000078f0       ?isRTPSink@MediaSink@@UBEIXZ 004088f0 f   MediaSource.obj
 0001:000078f0       _NewSender                 004088f0 f   MediaSource.obj
 0001:000078f0       ?isSource@Medium@@UBEIXZ   004088f0 f   MediaSource.obj
 0001:000078f0       ?isH264VideoStreamFramer@MediaSource@@UBEIXZ 004088f0 f   MediaSource.obj
 0001:000078f0       ?isMPEG1or2VideoStreamFramer@MediaSource@@UBEIXZ 004088f0 f   MediaSource.obj
 0001:000078f0       ?frameSpecificHeaderSize@MultiFramedRTPSink@@MBEIXZ 004088f0 f   MediaSource.obj
 0001:000078f0       ?isRTSPServer@Medium@@UBEIXZ 004088f0 f   MediaSource.obj
 0001:000078f0       ?isServerMediaSession@Medium@@UBEIXZ 004088f0 f   MediaSource.obj
 0001:000078f0       ?auxSDPLine@RTPSink@@UAEPBDXZ 004088f0 f   MediaSource.obj
 0001:000078f0       ?isJPEGVideoSource@MediaSource@@UBEIXZ 004088f0 f   MediaSource.obj
 0001:000078f0       ?isDVVideoStreamFramer@MediaSource@@UBEIXZ 004088f0 f   MediaSource.obj
 0001:000078f0       ?isMPEG4VideoStreamFramer@MediaSource@@UBEIXZ 004088f0 f   MediaSource.obj
 0001:000078f0       ?allowFragmentationAfterStart@MultiFramedRTPSink@@MBEIXZ 004088f0 f   MediaSource.obj
 0001:00007900       ?getAttributes@MediaSource@@UBEXXZ 00408900 f   MediaSource.obj
 0001:00007910       ??0MPEG4ESVideoRTPSink@@IAE@AAVUsageEnvironment@@PAXPAVGroupsock@@EI@Z 00408910 f   MPEG4ESVideoRTPSink.obj
 0001:00007960       ??_GMPEG4ESVideoRTPSink@@MAEPAXI@Z 00408960 f i MPEG4ESVideoRTPSink.obj
 0001:00007960       ??_EMPEG4ESVideoRTPSink@@MAEPAXI@Z 00408960 f i MPEG4ESVideoRTPSink.obj
 0001:00007980       ??1MPEG4ESVideoRTPSink@@MAE@XZ 00408980 f   MPEG4ESVideoRTPSink.obj
 0001:000079e0       ?createNew@MPEG4ESVideoRTPSink@@SAPAV1@AAVUsageEnvironment@@PAXPAVGroupsock@@EI@Z 004089e0 f   MPEG4ESVideoRTPSink.obj
 0001:00007a60       ?sourceIsCompatibleWithUs@MPEG4ESVideoRTPSink@@MAEIAAVMediaSource@@@Z 00408a60 f   MPEG4ESVideoRTPSink.obj
 0001:00007a70       ?doSpecialFrameHandling@MPEG4ESVideoRTPSink@@MAEXIPAEIUtimeval@@I@Z 00408a70 f   MPEG4ESVideoRTPSink.obj
 0001:00007b00       ?frameCanAppearAfterPacketStart@MPEG4ESVideoRTPSink@@MBEIPBEI@Z 00408b00 f   MPEG4ESVideoRTPSink.obj
 0001:00007b10       ?auxSDPLine@MPEG4ESVideoRTPSink@@MAEPBDXZ 00408b10 f   MPEG4ESVideoRTPSink.obj
 0001:00007c40       ?setPacketSizes@MultiFramedRTPSink@@QAEXII@Z 00408c40 f   MultiFramedRTPSink.obj
 0001:00007cd0       ??0MultiFramedRTPSink@@IAE@AAVUsageEnvironment@@PAXPAVGroupsock@@EIPBDI@Z 00408cd0 f   MultiFramedRTPSink.obj
 0001:00007d60       ??_GMultiFramedRTPSink@@MAEPAXI@Z 00408d60 f i MultiFramedRTPSink.obj
 0001:00007d60       ??_EMultiFramedRTPSink@@MAEPAXI@Z 00408d60 f i MultiFramedRTPSink.obj
 0001:00007d80       ??1MultiFramedRTPSink@@MAE@XZ 00408d80 f   MultiFramedRTPSink.obj
 0001:00007df0       ?doSpecialFrameHandling@MultiFramedRTPSink@@MAEXIPAEIUtimeval@@I@Z 00408df0 f   MultiFramedRTPSink.obj
 0001:00007e10       ?frameCanAppearAfterPacketStart@MultiFramedRTPSink@@MBEIPBEI@Z 00408e10 f   MultiFramedRTPSink.obj
 0001:00007e10       ?frameCanAppearAfterPacketStart@AMRAudioRTPSink@@EBEIPBEI@Z 00408e10 f   MultiFramedRTPSink.obj
 0001:00007e20       ?computeOverflowForNewFrame@MultiFramedRTPSink@@MBEII@Z 00408e20 f   MultiFramedRTPSink.obj
 0001:00007e40       ?setMarkerBit@MultiFramedRTPSink@@IAEXXZ 00408e40 f   MultiFramedRTPSink.obj
 0001:00007e70       ?setTimestamp@MultiFramedRTPSink@@IAEXUtimeval@@@Z 00408e70 f   MultiFramedRTPSink.obj
 0001:00007ea0       ?setSpecialHeaderBytes@MultiFramedRTPSink@@IAEXPBEII@Z 00408ea0 f   MultiFramedRTPSink.obj
 0001:00007ed0       ?continuePlaying@MultiFramedRTPSink@@MAEIXZ 00408ed0 f   MultiFramedRTPSink.obj
 0001:00007ee0       ?stopPlaying@MultiFramedRTPSink@@UAEXXZ 00408ee0 f   MultiFramedRTPSink.obj
 0001:00007f10       ?buildAndSendPacket@MultiFramedRTPSink@@AAEXI@Z 00408f10 f   MultiFramedRTPSink.obj
 0001:00007fb0       ?packFrame@MultiFramedRTPSink@@AAEXXZ 00408fb0 f   MultiFramedRTPSink.obj
 0001:00008070       ?afterGettingFrame@MultiFramedRTPSink@@CAXPAXIIUtimeval@@I@Z 00409070 f   MultiFramedRTPSink.obj
 0001:000080a0       ?afterGettingFrame1@MultiFramedRTPSink@@AAEXIIUtimeval@@I@Z 004090a0 f   MultiFramedRTPSink.obj
 0001:00008340       ?isTooBigForAPacket@MultiFramedRTPSink@@ABEII@Z 00409340 f   MultiFramedRTPSink.obj
 0001:00008370       ?sendPacketIfNecessary@MultiFramedRTPSink@@AAEXXZ 00409370 f   MultiFramedRTPSink.obj
 0001:000084f0       ?sendNext@MultiFramedRTPSink@@CAXPAX@Z 004094f0 f   MultiFramedRTPSink.obj
 0001:00008500       ?ourHandleClosure@MultiFramedRTPSink@@CAXPAX@Z 00409500 f   MultiFramedRTPSink.obj
 0001:00008520       ??0Port@@QAE@G@Z           00409520 f   NetAddress.obj
 0001:00008540       ??6@YAAAVUsageEnvironment@@AAV0@ABVPort@@@Z 00409540 f   NetAddress.obj
 0001:00008570       ??0AddressPortLookupTable@@QAE@XZ 00409570 f   NetAddress.obj
 0001:00008590       ??_GAddressPortLookupTable@@UAEPAXI@Z 00409590 f i NetAddress.obj
 0001:00008590       ??_EAddressPortLookupTable@@UAEPAXI@Z 00409590 f i NetAddress.obj
 0001:000085b0       ??1AddressPortLookupTable@@UAE@XZ 004095b0 f   NetAddress.obj
 0001:000085d0       ?Add@AddressPortLookupTable@@QAEPAXIIVPort@@PAX@Z 004095d0 f   NetAddress.obj
 0001:00008610       ?Lookup@AddressPortLookupTable@@QAEPAXIIVPort@@@Z 00409610 f   NetAddress.obj
 0001:00008650       ?Remove@AddressPortLookupTable@@QAEIIIVPort@@@Z 00409650 f   NetAddress.obj
 0001:00008690       ??0Iterator@AddressPortLookupTable@@QAE@AAV1@@Z 00409690 f   NetAddress.obj
 0001:000086c0       ??_EIterator@AddressPortLookupTable@@UAEPAXI@Z 004096c0 f i NetAddress.obj
 0001:000086c0       ??_GIterator@AddressPortLookupTable@@UAEPAXI@Z 004096c0 f i NetAddress.obj
 0001:000086e0       ??1Iterator@AddressPortLookupTable@@UAE@XZ 004096e0 f   NetAddress.obj
 0001:00008700       ?next@Iterator@DirectedNetInterfaceSet@@QAEPAVDirectedNetInterface@@XZ 00409700 f   NetAddress.obj
 0001:00008700       ?next@Iterator@AddressPortLookupTable@@QAEPAXXZ 00409700 f   NetAddress.obj
 0001:00008710       ?IsMulticastAddress@@YAII@Z 00409710 f   NetAddress.obj
 0001:00008740       ??0NetInterface@@IAE@XZ    00409740 f   NetInterface.obj
 0001:00008750       ??_ENetInterface@@UAEPAXI@Z 00409750 f i NetInterface.obj
 0001:00008750       ??_GNetInterface@@UAEPAXI@Z 00409750 f i NetInterface.obj
 0001:00008770       ??1NetInterface@@UAE@XZ    00409770 f   NetInterface.obj
 0001:00008780       ??0DirectedNetInterfaceSet@@QAE@XZ 00409780 f   NetInterface.obj
 0001:000087a0       ??_EDirectedNetInterfaceSet@@UAEPAXI@Z 004097a0 f i NetInterface.obj
 0001:000087a0       ??_GDirectedNetInterfaceSet@@UAEPAXI@Z 004097a0 f i NetInterface.obj
 0001:000087c0       ??1DirectedNetInterfaceSet@@UAE@XZ 004097c0 f   NetInterface.obj
 0001:000087e0       ??0Iterator@DirectedNetInterfaceSet@@QAE@AAV1@@Z 004097e0 f   NetInterface.obj
 0001:00008810       ??_GIterator@DirectedNetInterfaceSet@@UAEPAXI@Z 00409810 f i NetInterface.obj
 0001:00008810       ??_EIterator@DirectedNetInterfaceSet@@UAEPAXI@Z 00409810 f i NetInterface.obj
 0001:00008830       ??1Iterator@DirectedNetInterfaceSet@@UAE@XZ 00409830 f   NetInterface.obj
 0001:00008850       ??0Socket@@IAE@AAVUsageEnvironment@@VPort@@@Z 00409850 f   NetInterface.obj
 0001:000088c0       ??_GSocket@@UAEPAXI@Z      004098c0 f i NetInterface.obj
 0001:000088c0       ??_ESocket@@UAEPAXI@Z      004098c0 f i NetInterface.obj
 0001:000088e0       ??1Socket@@UAE@XZ          004098e0 f   NetInterface.obj
 0001:00008900       ??6@YAAAVUsageEnvironment@@AAV0@ABVSocket@@@Z 00409900 f   NetInterface.obj
 0001:00008940       ??0NetInterfaceTrafficStats@@QAE@XZ 00409940 f   NetInterface.obj
 0001:00008950       ?countPacket@NetInterfaceTrafficStats@@QAEXI@Z 00409950 f   NetInterface.obj
 0001:000089b0       _our_MD5Init               004099b0 f   our_md5.obj
 0001:000089e0       _ourMD5Update              004099e0 f   our_md5.obj
 0001:00009430       _our_MD5Final              0040a430 f   our_md5.obj
 0001:000094f0       _our_MD5End                0040a4f0 f   our_md5hl.obj
 0001:00009560       _our_MD5Data               0040a560 f   our_md5hl.obj
 0001:000095a0       ?init_crypto_key@@YAPAXPAEI0I@Z 0040a5a0 f   rsa_crypto.obj
 0001:00009640       ?crypto_encode@@YAHPAXPAEI1I@Z 0040a640 f   rsa_crypto.obj
 0001:000096c0       ?hex_digit@@YAHE@Z         0040a6c0 f   rsa_crypto.obj
 0001:00009700       ?hex_value@@YADI@Z         0040a700 f   rsa_crypto.obj
 0001:00009720       ?hex2array@@YAHPADHPAEH@Z  0040a720 f   rsa_crypto.obj
 0001:000097a0       ?array2hex@@YAHPAEHPADH@Z  0040a7a0 f   rsa_crypto.obj
 0001:00009800       ?reapOldMembers@RTCPMemberDatabase@@QAEXI@Z 0040a800 f   RTCP.obj
 0001:00009870       ??0RTCPInstance@@IAE@AAVUsageEnvironment@@PAVGroupsock@@IPBEPAVRTPSink@@PBVRTPSource@@I@Z 0040a870 f   RTCP.obj
 0001:00009a80       ??_ERTCPMemberDatabase@@UAEPAXI@Z 0040aa80 f i RTCP.obj
 0001:00009a80       ??_GRTCPMemberDatabase@@UAEPAXI@Z 0040aa80 f i RTCP.obj
 0001:00009ae0       ??_GRTCPInstance@@MAEPAXI@Z 0040aae0 f i RTCP.obj
 0001:00009ae0       ??_ERTCPInstance@@MAEPAXI@Z 0040aae0 f i RTCP.obj
 0001:00009b00       ??1RTCPInstance@@MAE@XZ    0040ab00 f   RTCP.obj
 0001:00009c10       ?createNew@RTCPInstance@@SAPAV1@AAVUsageEnvironment@@PAVGroupsock@@IPBEPAVRTPSink@@PBVRTPSource@@I@Z 0040ac10 f   RTCP.obj
 0001:00009c90       ?numMembers@RTCPInstance@@QBEIXZ 0040ac90 f   RTCP.obj
 0001:00009ca0       ?setSpecificRRHandler@RTCPInstance@@QAEXIVPort@@P6AXPAX@Z1@Z 0040aca0 f   RTCP.obj
 0001:00009d60       ?unsetSpecificRRHandler@RTCPInstance@@AAEXIVPort@@@Z 0040ad60 f   RTCP.obj
 0001:00009db0       ?addStreamSocket@RTCPInstance@@QAEXHE@Z 0040adb0 f   RTCP.obj
 0001:00009de0       ?incomingReportHandler@RTCPInstance@@CAXPAV1@H@Z 0040ade0 f   RTCP.obj
 0001:00009df0       ?incomingReportHandler1@RTCPInstance@@AAEXXZ 0040adf0 f   RTCP.obj
 0001:0000a240       ?onReceive@RTCPInstance@@AAEXHHI@Z 0040b240 f   RTCP.obj
 0001:0000a2c0       ?sendReport@RTCPInstance@@QAEXXZ 0040b2c0 f   RTCP.obj
 0001:0000a320       ?sendBYE@RTCPInstance@@QAEXXZ 0040b320 f   RTCP.obj
 0001:0000a340       ?sendBuiltPacket@RTCPInstance@@AAEXXZ 0040b340 f   RTCP.obj
 0001:0000a390       ?checkNewSSRC@RTCPInstance@@QAEHXZ 0040b390 f   RTCP.obj
 0001:0000a3d0       ?removeLastReceivedSSRC@RTCPInstance@@QAEXXZ 0040b3d0 f   RTCP.obj
 0001:0000a3e0       ?removeSSRC@RTCPInstance@@QAEXII@Z 0040b3e0 f   RTCP.obj
 0001:0000a440       ?onExpire@RTCPInstance@@CAXPAV1@@Z 0040b440 f   RTCP.obj
 0001:0000a450       ?addReport@RTCPInstance@@AAEXXZ 0040b450 f   RTCP.obj
 0001:0000a470       ?addSR@RTCPInstance@@AAEXXZ 0040b470 f   RTCP.obj
 0001:0000a520       ?addRR@RTCPInstance@@AAEXXZ 0040b520 f   RTCP.obj
 0001:0000a550       ?enqueueCommonReportPrefix@RTCPInstance@@AAEXEII@Z 0040b550 f   RTCP.obj
 0001:0000a5b0       ?enqueueCommonReportSuffix@RTCPInstance@@AAEXXZ 0040b5b0 f   RTCP.obj
 0001:0000a630       ?enqueueReportBlock@RTCPInstance@@AAEXPAVRTPReceptionStats@@@Z 0040b630 f   RTCP.obj
 0001:0000a780       ?addSDES@RTCPInstance@@AAEXXZ 0040b780 f   RTCP.obj
 0001:0000a810       ?addBYE@RTCPInstance@@AAEXXZ 0040b810 f   RTCP.obj
 0001:0000a850       ?schedule@RTCPInstance@@QAEXN@Z 0040b850 f   RTCP.obj
 0001:0000a8a0       ?reschedule@RTCPInstance@@QAEXN@Z 0040b8a0 f   RTCP.obj
 0001:0000a8d0       ?onExpire1@RTCPInstance@@AAEXXZ 0040b8d0 f   RTCP.obj
 0001:0000a950       ??0SDESItem@@QAE@EPBE@Z    0040b950 f   RTCP.obj
 0001:0000a9b0       ?totalSize@SDESItem@@QBEIXZ 0040b9b0 f   RTCP.obj
 0001:0000a9c0       _Schedule                  0040b9c0 f   RTCP.obj
 0001:0000a9e0       _Reschedule                0040b9e0 f   RTCP.obj
 0001:0000aa00       _SendRTCPReport            0040ba00 f   RTCP.obj
 0001:0000aa10       _SendBYEPacket             0040ba10 f   RTCP.obj
 0001:0000aa20       _TypeOfEvent               0040ba20 f   RTCP.obj
 0001:0000aa30       _SentPacketSize            0040ba30 f   RTCP.obj
 0001:0000aa40       _PacketType                0040ba40 f   RTCP.obj
 0001:0000aa50       _ReceivedPacketSize        0040ba50 f   RTCP.obj
 0001:0000aa60       _NewMember                 0040ba60 f   RTCP.obj
 0001:0000aa70       _RemoveMember              0040ba70 f   RTCP.obj
 0001:0000aa80       _drand30                   0040ba80 f   RTCP.obj
 0001:0000aab0       _rtcp_interval             0040bab0 f   rtcp_from_spec.obj
 0001:0000ab50       _OnExpire                  0040bb50 f   rtcp_from_spec.obj
 0001:0000acd0       _OnReceive                 0040bcd0 f   rtcp_from_spec.obj
 0001:0000aeb0       ??0RTPInterface@@QAE@PAVMedium@@PAVGroupsock@@@Z 0040beb0 f   RTPInterface.obj
 0001:0000af10       ??_GRTPInterface@@UAEPAXI@Z 0040bf10 f i RTPInterface.obj
 0001:0000af10       ??_ERTPInterface@@UAEPAXI@Z 0040bf10 f i RTPInterface.obj
 0001:0000af30       ??1RTPInterface@@UAE@XZ    0040bf30 f   RTPInterface.obj
 0001:0000af50       ?setStreamSocket@RTPInterface@@QAEXHE@Z 0040bf50 f   RTPInterface.obj
 0001:0000af70       ?addStreamSocket@RTPInterface@@QAEXHE@Z 0040bf70 f   RTPInterface.obj
 0001:0000aff0       ?removeStreamSocket@RTPInterface@@QAEXHE@Z 0040bff0 f   RTPInterface.obj
 0001:0000b140       ?setServerRequestAlternativeByteHandler@RTPInterface@@QAEXP6AXPAXE@Z0@Z 0040c140 f   RTPInterface.obj
 0001:0000b180       ?sendPacket@RTPInterface@@QAEHPAEI@Z 0040c180 f   RTPInterface.obj
 0001:0000b1e0       ?startNetworkReading@RTPInterface@@QAEXP6AXPAXH@Z@Z 0040c1e0 f   RTPInterface.obj
 0001:0000b240       ?handleRead@RTPInterface@@QAEIPAEIAAIAAUsockaddr_in@@@Z 0040c240 f   RTPInterface.obj
 0001:0000b340       ?stopNetworkReading@RTPInterface@@QAEXXZ 0040c340 f   RTPInterface.obj
 0001:0000b450       ??0SocketDescriptor@@QAE@AAVUsageEnvironment@@H@Z 0040c450 f   RTPInterface.obj
 0001:0000b490       ??_ESocketDescriptor@@UAEPAXI@Z 0040c490 f i RTPInterface.obj
 0001:0000b490       ??_GSocketDescriptor@@UAEPAXI@Z 0040c490 f i RTPInterface.obj
 0001:0000b4b0       ??1SocketDescriptor@@UAE@XZ 0040c4b0 f   RTPInterface.obj
 0001:0000b4d0       ?registerRTPInterface@SocketDescriptor@@QAEXEPAVRTPInterface@@@Z 0040c4d0 f   RTPInterface.obj
 0001:0000b520       ?lookupRTPInterface@SocketDescriptor@@QAEPAVRTPInterface@@E@Z 0040c520 f   RTPInterface.obj
 0001:0000b540       ?deregisterRTPInterface@SocketDescriptor@@QAEXE@Z 0040c540 f   RTPInterface.obj
 0001:0000b5f0       ?tcpReadHandler@SocketDescriptor@@CAXPAV1@H@Z 0040c5f0 f   RTPInterface.obj
 0001:0000b6f0       ??0tcpStreamRecord@@QAE@HEPAV0@@Z 0040c6f0 f   RTPInterface.obj
 0001:0000b710       ??_GtcpStreamRecord@@UAEPAXI@Z 0040c710 f i RTPInterface.obj
 0001:0000b710       ??_EtcpStreamRecord@@UAEPAXI@Z 0040c710 f i RTPInterface.obj
 0001:0000b730       ??1tcpStreamRecord@@UAE@XZ 0040c730 f   RTPInterface.obj
 0001:0000b750       ??0RTPSink@@IAE@AAVUsageEnvironment@@PAVGroupsock@@EIPBDI@Z 0040c750 f   RTPSink.obj
 0001:0000b850       ??_GRTPSink@@MAEPAXI@Z     0040c850 f i RTPSink.obj
 0001:0000b850       ??_ERTPSink@@MAEPAXI@Z     0040c850 f i RTPSink.obj
 0001:0000b870       ??1RTPSink@@MAE@XZ         0040c870 f   RTPSink.obj
 0001:0000b8f0       ?convertToRTPTimestamp@RTPSink@@QAEIUtimeval@@@Z 0040c8f0 f   RTPSink.obj
 0001:0000b960       ?presetNextTimestamp@RTPSink@@QAEIXZ 0040c960 f   RTPSink.obj
 0001:0000b980       ?sdpMediaType@RTPSink@@UBEPBDXZ 0040c980 f   RTPSink.obj
 0001:0000b990       ?rtpmapLine@RTPSink@@UBEPADXZ 0040c990 f   RTPSink.obj
 0001:0000ba50       ??0RTPTransmissionStatsDB@@AAE@AAVRTPSink@@@Z 0040ca50 f   RTPSink.obj
 0001:0000ba80       ??_GRTPTransmissionStatsDB@@EAEPAXI@Z 0040ca80 f i RTPSink.obj
 0001:0000ba80       ??_ERTPTransmissionStatsDB@@EAEPAXI@Z 0040ca80 f i RTPSink.obj
 0001:0000baa0       ??1RTPTransmissionStatsDB@@EAE@XZ 0040caa0 f   RTPSink.obj
 0001:0000bae0       ?noteIncomingRR@RTPTransmissionStatsDB@@QAEXIABUsockaddr_in@@IIIII@Z 0040cae0 f   RTPSink.obj
 0001:0000bb80       ?removeRecord@RTPTransmissionStatsDB@@QAEXI@Z 0040cb80 f   RTPSink.obj
 0001:0000bbc0       ?lookup@RTPTransmissionStatsDB@@QBEPAVRTPTransmissionStats@@I@Z 0040cbc0 f   RTPSink.obj
 0001:0000bbd0       ?add@RTPTransmissionStatsDB@@AAEXIPAVRTPTransmissionStats@@@Z 0040cbd0 f   RTPSink.obj
 0001:0000bbf0       ??0RTPTransmissionStats@@AAE@AAVRTPSink@@I@Z 0040cbf0 f   RTPSink.obj
 0001:0000bc50       ??_GRTPTransmissionStats@@EAEPAXI@Z 0040cc50 f i RTPSink.obj
 0001:0000bc50       ??_ERTPTransmissionStats@@EAEPAXI@Z 0040cc50 f i RTPSink.obj
 0001:0000bc70       ??1RTPTransmissionStats@@EAE@XZ 0040cc70 f   RTPSink.obj
 0001:0000bc80       ?noteIncomingRR@RTPTransmissionStats@@AAEXABUsockaddr_in@@IIIII@Z 0040cc80 f   RTPSink.obj
 0001:0000bd50       ?reset@RTPReceptionStatsDB@@QAEXXZ 0040cd50 f   RTPSource.obj
 0001:0000bdd0       ?noteIncomingSR@RTPReceptionStatsDB@@QAEXIIII@Z 0040cdd0 f   RTPSource.obj
 0001:0000be60       ?removeRecord@RTPReceptionStatsDB@@QAEXI@Z 0040ce60 f   RTPSource.obj
 0001:0000be90       ??0Iterator@RTPReceptionStatsDB@@QAE@AAV1@@Z 0040ce90 f   RTPSource.obj
 0001:0000bec0       ??_EIterator@RTPReceptionStatsDB@@UAEPAXI@Z 0040cec0 f i RTPSource.obj
 0001:0000bec0       ??_GIterator@RTPReceptionStatsDB@@UAEPAXI@Z 0040cec0 f i RTPSource.obj
 0001:0000bee0       ??1Iterator@RTPReceptionStatsDB@@UAE@XZ 0040cee0 f   RTPSource.obj
 0001:0000bf00       ?next@Iterator@RTPReceptionStatsDB@@QAEPAVRTPReceptionStats@@I@Z 0040cf00 f   RTPSource.obj
 0001:0000bf30       ?add@RTPReceptionStatsDB@@IAEXIPAVRTPReceptionStats@@@Z 0040cf30 f   RTPSource.obj
 0001:0000bf50       ??_ERTPReceptionStats@@MAEPAXI@Z 0040cf50 f i RTPSource.obj
 0001:0000bf50       ??_GRTPReceptionStats@@MAEPAXI@Z 0040cf50 f i RTPSource.obj
 0001:0000bf70       ??0RTPReceptionStats@@IAE@I@Z 0040cf70 f   RTPSource.obj
 0001:0000bf90       ??1RTPReceptionStats@@MAE@XZ 0040cf90 f   RTPSource.obj
 0001:0000bfa0       ?init@RTPReceptionStats@@AAEXI@Z 0040cfa0 f   RTPSource.obj
 0001:0000c000       ?noteIncomingSR@RTPReceptionStats@@AAEXIII@Z 0040d000 f   RTPSource.obj
 0001:0000c070       ?jitter@RTPReceptionStats@@QBEIXZ 0040d070 f   RTPSource.obj
 0001:0000c080       ?reset@RTPReceptionStats@@AAEXXZ 0040d080 f   RTPSource.obj
 0001:0000c090       ?eat_white@@YAPADPAD@Z     0040d090 f   RTSPCommon.obj
 0001:0000c0b0       ?next_white@@YAPADPAD@Z    0040d0b0 f   RTSPCommon.obj
 0001:0000c0e0       ?next_line@@YAPADPAD@Z     0040d0e0 f   RTSPCommon.obj
 0001:0000c110       ?parseRTSPResponseString@@YAIPBDIPADI1I1I1IPAIPAPAE@Z 0040d110 f   RTSPCommon.obj
 0001:0000c370       ?parseRTSPRequestString@@YAIPBDIPADI1I1I1I@Z 0040d370 f   RTSPCommon.obj
 0001:0000c640       ?parseRTSPGetPostString@@YAIPBDIPADI1I1I1I1I@Z 0040d640 f   RTSPCommon.obj
 0001:0000c840       ?parseRangeParam@@YAIPBDAAN1@Z 0040d840 f   RTSPCommon.obj
 0001:0000c920       ?parseRangeHeader@@YAIPBDAAN1@Z 0040d920 f   RTSPCommon.obj
 0001:0000c970       ?parseSpecifiedStringParam@@YAIPBDPAD1I@Z 0040d970 f   RTSPCommon.obj
 0001:0000c9e0       ?parseTransportHeader@@YAXPBDAAW4StreamingMode@@AAPAD2AAEAAG433@Z 0040d9e0 f   RTSPCommon.obj
 0001:0000cca0       ?parsePlayNowHeader@@YAIPBD@Z 0040dca0 f   RTSPCommon.obj
 0001:0000ccd0       ?parseTokenFromURLSuffix@@YAXPAD00@Z 0040dcd0 f   RTSPCommon.obj
 0001:0000cd30       ?rtsp_parse_param_line_within_range@@YAPADPADH0@Z 0040dd30 f   RTSPEncoderSession.obj
 0001:0000cdd0       ?rtsp_get_msg@@YAHPADH0@Z  0040ddd0 f   RTSPEncoderSession.obj
 0001:0000ce60       ??0RTSPEncoderSession@RTSPServer@@QAE@AAV1@PAVServerMediaSession@@IUsockaddr_in@@PADG3333I@Z 0040de60 f   RTSPEncoderSession.obj
 0001:0000d0f0       ??_ERTSPEncoderSession@RTSPServer@@UAEPAXI@Z 0040e0f0 f i RTSPEncoderSession.obj
 0001:0000d0f0       ??_GRTSPEncoderSession@RTSPServer@@UAEPAXI@Z 0040e0f0 f i RTSPEncoderSession.obj
 0001:0000d110       ??1RTSPEncoderSession@RTSPServer@@UAE@XZ 0040e110 f   RTSPEncoderSession.obj
 0001:0000d120       ?noteLiveness@RTSPEncoderSession@RTSPServer@@IAEXXZ 0040e120 f   RTSPEncoderSession.obj
 0001:0000d180       ?livenessTimeoutTask@RTSPEncoderSession@RTSPServer@@KAXPAV12@@Z 0040e180 f   RTSPEncoderSession.obj
 0001:0000d1a0       ?handleRequestBytes@RTSPEncoderSession@RTSPServer@@MAEXH@Z 0040e1a0 f   RTSPEncoderSession.obj
 0001:0000d950       ?handleCmd_Badrequest@RTSPEncoderSession@RTSPServer@@IAEXXZ 0040e950 f   RTSPEncoderSession.obj
 0001:0000d990       ?handleCmd_Unauthorized@RTSPEncoderSession@RTSPServer@@IAEXXZ 0040e990 f   RTSPEncoderSession.obj
 0001:0000db30       ?handleCmd_SeeOtherServer@RTSPEncoderSession@RTSPServer@@MAEXPBD@Z 0040eb30 f   RTSPEncoderSession.obj
 0001:0000dc70       ?handleCmd_DESCRIBE@RTSPEncoderSession@RTSPServer@@MAEXPBD00@Z 0040ec70 f   RTSPEncoderSession.obj
 0001:0000df80       ?handleCmd_SETUP@RTSPEncoderSession@RTSPServer@@MAEXPBD000@Z 0040ef80 f   RTSPEncoderSession.obj
 0001:0000e540       ?handleCmd_withinSession@RTSPEncoderSession@RTSPServer@@MAEXPBD0000@Z 0040f540 f   RTSPEncoderSession.obj
 0001:0000e700       ?handleCmd_TEARDOWN@RTSPEncoderSession@RTSPServer@@MAEXPAVServerMediaSubsession@@PBD@Z 0040f700 f   RTSPEncoderSession.obj
 0001:0000e790       ?handleCmd_PLAY@RTSPEncoderSession@RTSPServer@@MAEXPAVServerMediaSubsession@@PBD1@Z 0040f790 f   RTSPEncoderSession.obj
 0001:0000ee90       ?handleCmd_PAUSE@RTSPEncoderSession@RTSPServer@@MAEXPAVServerMediaSubsession@@PBD@Z 0040fe90 f   RTSPEncoderSession.obj
 0001:0000ef10       ?handleCmd_GET_PARAMETER_SubDirList@RTSPEncoderSession@RTSPServer@@MAEXPAVServerMediaSubsession@@PBD1@Z 0040ff10 f   RTSPEncoderSession.obj
 0001:0000f1c0       ?handleCmd_GET_PARAMETER_SubFileList@RTSPEncoderSession@RTSPServer@@MAEXPAVServerMediaSubsession@@PBD1@Z 004101c0 f   RTSPEncoderSession.obj
 0001:0000f4b0       ?handleCmd_GET_PARAMETER@RTSPEncoderSession@RTSPServer@@MAEXPAVServerMediaSubsession@@PBD1@Z 004104b0 f   RTSPEncoderSession.obj
 0001:0000f570       ?handleCmd_SET_PARAMETER_ResponsePtz@RTSPEncoderSession@RTSPServer@@MAEXPAVServerMediaSubsession@@PBD1@Z 00410570 f   RTSPEncoderSession.obj
 0001:0000fbf0       ?handleCmd_SET_PARAMETER_ResponseScene@RTSPEncoderSession@RTSPServer@@MAEXPAVServerMediaSubsession@@PBD1@Z 00410bf0 f   RTSPEncoderSession.obj
 0001:0000fdb0       ?handleCmd_SET_PARAMETER@RTSPEncoderSession@RTSPServer@@MAEXPAVServerMediaSubsession@@PBD1@Z 00410db0 f   RTSPEncoderSession.obj
 0001:000100d0       ?reNoteLiveness@RTSPEncoderSession@RTSPServer@@QAEXXZ 004110d0 f   RTSPEncoderSession.obj
 0001:00010120       ?heartbeat@RTSPEncoderSession@RTSPServer@@SAXPAX@Z 00411120 f   RTSPEncoderSession.obj
 0001:00010190       ?do_heartbeat@RTSPEncoderSession@RTSPServer@@QAEH_N0PAD@Z 00411190 f   RTSPEncoderSession.obj
 0001:000103b0       ?register_Platform@RTSPEncoderSession@RTSPServer@@QAEHPAUsockaddr_in@@_N@Z 004113b0 f   RTSPEncoderSession.obj
 0001:000107c0       ?createNewEncoderSession@RTSPServer@@UAEPAVRTSPEncoderSession@1@PAVServerMediaSession@@IUsockaddr_in@@PADG2222I@Z 004117c0 f   RTSPEncoderSession.obj
 0001:00010880       ?GetRandom@RTSPEncoderSession@RTSPServer@@IAEPADXZ 00411880 f   RTSPEncoderSession.obj
 0001:000108d0       ?setSessionState@@YAHPADH@Z 004118d0 f   RTSPEncoderSession.obj
 0001:00010960       ?getServerInfo@@YAXPADPAGH@Z 00411960 f   RTSPSdk.obj
 0001:000109a0       ?getDeviceInfo@@YAXPADPAG0@Z 004119a0 f   RTSPSdk.obj
 0001:00010a10       ?getHttpServerInfo@@YAXPADPAG@Z 00411a10 f   RTSPSdk.obj
 0001:00010a50       ?getUserAgent@@YAXPAD@Z    00411a50 f   RTSPSdk.obj
 0001:00010a70       ?readkey@@YAXPAD@Z         00411a70 f   RTSPSdk.obj
 0001:00010aa0       ?writekey@@YAXPBD@Z        00411aa0 f   RTSPSdk.obj
 0001:00010ae0       ?writeSerial@RTSPEncoderSession@RTSPServer@@IAEXPBD@Z 00411ae0 f   RTSPSdk.obj
 0001:00010ae0       ?readSerial@RTSPEncoderSession@RTSPServer@@IAEXPAD@Z 00411ae0 f   RTSPSdk.obj
 0001:00010ae0       ?deviceHandleArmAndDisarmScene@RTSPEncoderSession@RTSPServer@@IAEXH@Z 00411ae0 f   RTSPSdk.obj
 0001:00010af0       ?deleteStream@ServerMediaSubsession@@UAEXIAAPAX@Z 00411af0 f   RTSPSdk.obj
 0001:00010af0       ?setStreamSourceScale@EncoderMediaSubsession@@MAEXPAVFramedSource@@M@Z 00411af0 f   RTSPSdk.obj
 0001:00010af0       ?deviceHandlePtz@RTSPEncoderSession@RTSPServer@@IAEXHH@Z 00411af0 f   RTSPSdk.obj
 0001:00010af0       ?pauseStream@ServerMediaSubsession@@UAEXIPAX@Z 00411af0 f   RTSPSdk.obj
 0001:00010af0       ?writeActiveServerInfo@RTSPEncoderSession@RTSPServer@@IAEXPBDG@Z 00411af0 f   RTSPSdk.obj
 0001:00010b00       ?getVideoCodecConfig@@YAXHHPAHPAEPAI@Z 00411b00 f   RTSPSdk.obj
 0001:00010ba0       ?get_LanWebURL@RTSPEncoderSession@RTSPServer@@IAEXPADH@Z 00411ba0 f   RTSPSdk.obj
 0001:00010bd0       ?get_WanWebURL@RTSPEncoderSession@RTSPServer@@IAEXPADH@Z 00411bd0 f   RTSPSdk.obj
 0001:00010c00       ?get_P2PLanURL@RTSPEncoderSession@RTSPServer@@IAEXPADH@Z 00411c00 f   RTSPSdk.obj
 0001:00010c30       ?get_P2PWanURL@RTSPEncoderSession@RTSPServer@@IAEXPADH@Z 00411c30 f   RTSPSdk.obj
 0001:00010c60       ?get_LanFtpURL@RTSPEncoderSession@RTSPServer@@IAEXPADH@Z 00411c60 f   RTSPSdk.obj
 0001:00010c90       ?get_WanFtpURL@RTSPEncoderSession@RTSPServer@@IAEXPADH@Z 00411c90 f   RTSPSdk.obj
 0001:00010cc0       ?get_LanVoiceAddr@RTSPEncoderSession@RTSPServer@@IAEXPADH@Z 00411cc0 f   RTSPSdk.obj
 0001:00010cf0       ?get_WanVoiceAddr@RTSPEncoderSession@RTSPServer@@IAEXPADH@Z 00411cf0 f   RTSPSdk.obj
 0001:00010d20       ?get_LanDataAddr@RTSPEncoderSession@RTSPServer@@IAEXPADH@Z 00411d20 f   RTSPSdk.obj
 0001:00010d50       ?get_WanDataAddr@RTSPEncoderSession@RTSPServer@@IAEXPADH@Z 00411d50 f   RTSPSdk.obj
 0001:00010d80       ?videoGetFrameInfo@@YAXPAXPADPAEPAH3@Z 00411d80 f   RTSPSdk.obj
 0001:00010e30       ?getFileHandle@@YAPAXHPAD0PAH@Z 00411e30 f   RTSPSdk.obj
 0001:00010e80       ?getFileVideoFrame@@YAXPAXPAHPAE11_N@Z 00411e80 f   RTSPSdk.obj
 0001:00010ee0       ?getFileAudioFrame@@YAXPAXPAHPAE11@Z 00411ee0 f   RTSPSdk.obj
 0001:00010ee0       ?audioGetFrameInfo@@YAXPAXPAD1PAH2@Z 00411ee0 f   RTSPSdk.obj
 0001:00010f40       ?getSubsessionParaConfig@@YAXPADHHAAI11111@Z 00411f40 f   RTSPSdk.obj
 0001:00011100       ?getStoreFileResolution@@YAXPADAAH1@Z 00412100 f   RTSPSdk.obj
 0001:000111f0       ?createNew@RTSPServer@@SAPAV1@AAVUsageEnvironment@@VPort@@PAVUserAuthenticationDatabase@@I@Z 004121f0 f   RTSPServer.obj
 0001:00011280       ?lookupByName@RTSPServer@@SAIAAVUsageEnvironment@@PBDAAPAV1@@Z 00412280 f   RTSPServer.obj
 0001:000112e0       ?addServerMediaSession@RTSPServer@@QAEXPAVServerMediaSession@@@Z 004122e0 f   RTSPServer.obj
 0001:00011310       ?lookupServerMediaSession@RTSPServer@@UAEPAVServerMediaSession@@PBD@Z 00412310 f   RTSPServer.obj
 0001:00011320       ?removeServerMediaSession@RTSPServer@@QAEXPAVServerMediaSession@@@Z 00412320 f   RTSPServer.obj
 0001:00011360       ?rtspURLPrefix@RTSPServer@@QBEPADH@Z 00412360 f   RTSPServer.obj
 0001:00011410       ?rtspURL@RTSPServer@@QBEPADPBVServerMediaSession@@H@Z 00412410 f   RTSPServer.obj
 0001:00011470       ?setUpOurSocket@RTSPServer@@KAHAAVUsageEnvironment@@AAVPort@@@Z 00412470 f   RTSPServer.obj
 0001:000114f0       ?specialClientAccessCheck@RTSPServer@@MAEIHAAUsockaddr_in@@PBD@Z 004124f0 f   RTSPServer.obj
 0001:00011500       ??0RTSPServer@@IAE@AAVUsageEnvironment@@HVPort@@PAVUserAuthenticationDatabase@@I@Z 00412500 f   RTSPServer.obj
 0001:00011590       ??_GRTSPServer@@MAEPAXI@Z  00412590 f i RTSPServer.obj
 0001:00011590       ??_ERTSPServer@@MAEPAXI@Z  00412590 f i RTSPServer.obj
 0001:000115b0       ??1RTSPServer@@MAE@XZ      004125b0 f   RTSPServer.obj
 0001:00011640       ?incomingConnectionHandler@RTSPServer@@CAXPAXH@Z 00412640 f   RTSPServer.obj
 0001:00011650       ?incomingConnectionHandler1@RTSPServer@@AAEXXZ 00412650 f   RTSPServer.obj
 0001:000116f0       ??0RTSPClientSession@RTSPServer@@QAE@AAV1@IHUsockaddr_in@@@Z 004126f0 f   RTSPServer.obj
 0001:00011810       ??_GRTSPClientSession@RTSPServer@@UAEPAXI@Z 00412810 f i RTSPServer.obj
 0001:00011810       ??_ERTSPClientSession@RTSPServer@@UAEPAXI@Z 00412810 f i RTSPServer.obj
 0001:00011830       ??1RTSPClientSession@RTSPServer@@UAE@XZ 00412830 f   RTSPServer.obj
 0001:000119a0       ?reclaimStreamStates@RTSPClientSession@RTSPServer@@IAEXXZ 004129a0 f   RTSPServer.obj
 0001:00011a10       ?resetRequestBuffer@RTSPClientSession@RTSPServer@@IAEXXZ 00412a10 f   RTSPServer.obj
 0001:00011a40       ?incomingRequestHandler@RTSPClientSession@RTSPServer@@KAXPAXH@Z 00412a40 f   RTSPServer.obj
 0001:00011a50       ?incomingHttpRequestHandler@RTSPClientSession@RTSPServer@@KAXPAXH@Z 00412a50 f   RTSPServer.obj
 0001:00011a60       ?incomingHttpGetRequestHandler@RTSPClientSession@RTSPServer@@KAXPAXH@Z 00412a60 f   RTSPServer.obj
 0001:00011a70       ?incomingHttpGetRequestHandler1@RTSPClientSession@RTSPServer@@MAEXXZ 00412a70 f   RTSPServer.obj
 0001:00011af0       ?incomingHttpRequestHandler1@RTSPClientSession@RTSPServer@@MAEXXZ 00412af0 f   RTSPServer.obj
 0001:00011b70       ?incomingRequestHandler1@RTSPClientSession@RTSPServer@@MAEXXZ 00412b70 f   RTSPServer.obj
 0001:00011bc0       ?handleAlternativeRequestByte@RTSPClientSession@RTSPServer@@KAXPAXE@Z 00412bc0 f   RTSPServer.obj
 0001:00011bd0       ?handleAlternativeRequestByte1@RTSPClientSession@RTSPServer@@MAEXE@Z 00412bd0 f   RTSPServer.obj
 0001:00011c00       ?handleRequestBytes@RTSPClientSession@RTSPServer@@MAEXH@Z 00412c00 f   RTSPServer.obj
 0001:00012a60       ?dateHeader@@YAPBDXZ       00413a60 f   RTSPServer.obj
 0001:00012aa0       ?handleCmd_bad@RTSPClientSession@RTSPServer@@MAEXPBD@Z 00413aa0 f   RTSPServer.obj
 0001:00012ad0       ?handleCmd_notSupported@RTSPClientSession@RTSPServer@@MAEXPBD@Z 00413ad0 f   RTSPServer.obj
 0001:00012b10       ?handleCmd_notFound@RTSPClientSession@RTSPServer@@MAEXPBD@Z 00413b10 f   RTSPServer.obj
 0001:00012b50       ?handleCmd_unsupportedTransport@RTSPClientSession@RTSPServer@@MAEXPBD@Z 00413b50 f   RTSPServer.obj
 0001:00012b90       ?handleCmd_OPTIONS@RTSPClientSession@RTSPServer@@MAEXPBD@Z 00413b90 f   RTSPServer.obj
 0001:00012bd0       ?handleCmd_DESCRIBE@RTSPClientSession@RTSPServer@@MAEXPBD00@Z 00413bd0 f   RTSPServer.obj
 0001:00012fb0       ?handleCmd_SETUP@RTSPClientSession@RTSPServer@@MAEXPBD000@Z 00413fb0 f   RTSPServer.obj
 0001:00013660       ?handleCmd_withinSession@RTSPClientSession@RTSPServer@@MAEXPBD0000@Z 00414660 f   RTSPServer.obj
 0001:000139b0       ?handleCmd_TEARDOWN@RTSPClientSession@RTSPServer@@MAEXPAVServerMediaSubsession@@PBD@Z 004149b0 f   RTSPServer.obj
 0001:00013a40       ?parseScaleHeader@@YAIPBDAAM@Z 00414a40 f   RTSPServer.obj
 0001:00013ab0       ?handleCmd_PLAY@RTSPClientSession@RTSPServer@@MAEXPAVServerMediaSubsession@@PBD1@Z 00414ab0 f   RTSPServer.obj
 0001:00014000       ?handleCmd_PAUSE@RTSPClientSession@RTSPServer@@MAEXPAVServerMediaSubsession@@PBD@Z 00415000 f   RTSPServer.obj
 0001:00014090       ?handleCmd_GET_PARAMETER@RTSPClientSession@RTSPServer@@MAEXPAVServerMediaSubsession@@PBD1@Z 00415090 f   RTSPServer.obj
 0001:000140d0       ?handleCmd_SET_PARAMETER@RTSPClientSession@RTSPServer@@MAEXPAVServerMediaSubsession@@PBD1@Z 004150d0 f   RTSPServer.obj
 0001:000140e0       ?authenticationOK@RTSPClientSession@RTSPServer@@IAEIPBD000@Z 004150e0 f   RTSPServer.obj
 0001:00014600       ?noteLiveness@RTSPClientSession@RTSPServer@@QAEXXZ 00415600 f   RTSPServer.obj
 0001:00014640       ?noteClientLiveness@RTSPClientSession@RTSPServer@@KAXPAV12@@Z 00415640 f   RTSPServer.obj
 0001:00014650       ?livenessTimeoutTask@RTSPClientSession@RTSPServer@@KAXPAV12@@Z 00415650 f   RTSPServer.obj
 0001:00014660       ?createNewClientSession@RTSPServer@@UAEPAVRTSPClientSession@1@IHUsockaddr_in@@@Z 00415660 f   RTSPServer.obj
 0001:000146f0       ?insert@?$vector@PAVRTSPClientSession@RTSPServer@@V?$allocator@PAVRTSPClientSession@RTSPServer@@@std@@@std@@QAEXPAPAVRTSPClientSession@RTSPServer@@IABQAV34@@Z 004156f0 f i RTSPServer.obj
 0001:00014900       ?createNew@ServerMediaSession@@SAPAV1@AAVUsageEnvironment@@PBD11I1@Z 00415900 f   ServerMediaSession.obj
 0001:00014980       ??0ServerMediaSession@@IAE@AAVUsageEnvironment@@PBD11I1@Z 00415980 f   ServerMediaSession.obj
 0001:00014a50       ??_EServerMediaSession@@UAEPAXI@Z 00415a50 f i ServerMediaSession.obj
 0001:00014a50       ??_GServerMediaSession@@UAEPAXI@Z 00415a50 f i ServerMediaSession.obj
 0001:00014a70       ??1ServerMediaSession@@UAE@XZ 00415a70 f   ServerMediaSession.obj
 0001:00014af0       ?addSubsession@ServerMediaSession@@QAEIPAVServerMediaSubsession@@@Z 00415af0 f   ServerMediaSession.obj
 0001:00014b30       ?resetMediaServersession@ServerMediaSession@@QAEXXZ 00415b30 f   ServerMediaSession.obj
 0001:00014b40       ?testScaleFactor@ServerMediaSession@@QAEXAAM@Z 00415b40 f   ServerMediaSession.obj
 0001:00014cc0       ?duration@ServerMediaSession@@QBEMXZ 00415cc0 f   ServerMediaSession.obj
 0001:00014d50       ?generateSDPDescription@ServerMediaSession@@QAEPADXZ 00415d50 f   ServerMediaSession.obj
 0001:00014f20       ??0ServerMediaSubsessionIterator@@QAE@AAVServerMediaSession@@@Z 00415f20 f   ServerMediaSession.obj
 0001:00014f40       ??_GServerMediaSubsessionIterator@@UAEPAXI@Z 00415f40 f i ServerMediaSession.obj
 0001:00014f40       ??_EServerMediaSubsessionIterator@@UAEPAXI@Z 00415f40 f i ServerMediaSession.obj
 0001:00014f60       ??1ServerMediaSubsessionIterator@@UAE@XZ 00415f60 f   ServerMediaSession.obj
 0001:00014f70       ?next@ServerMediaSubsessionIterator@@QAEPAVServerMediaSubsession@@XZ 00415f70 f   ServerMediaSession.obj
 0001:00014f80       ?reset@ServerMediaSubsessionIterator@@QAEXXZ 00415f80 f   ServerMediaSession.obj
 0001:00014f90       ??0ServerMediaSubsession@@IAE@AAVUsageEnvironment@@@Z 00415f90 f   ServerMediaSession.obj
 0001:00014fc0       ??_GServerMediaSubsession@@UAEPAXI@Z 00415fc0 f i ServerMediaSession.obj
 0001:00014fc0       ??_EServerMediaSubsession@@UAEPAXI@Z 00415fc0 f i ServerMediaSession.obj
 0001:00014fe0       ??1ServerMediaSubsession@@UAE@XZ 00415fe0 f   ServerMediaSession.obj
 0001:00015040       ?trackId@ServerMediaSubsession@@QAEPBDXZ 00416040 f   ServerMediaSession.obj
 0001:00015090       ?seekStream@ServerMediaSubsession@@UAEXIPAXN@Z 00416090 f   ServerMediaSession.obj
 0001:000150a0       ?setStreamScale@ServerMediaSubsession@@UAEXIPAXM@Z 004160a0 f   ServerMediaSession.obj
 0001:000150a0       ?seekStreamSource@EncoderMediaSubsession@@MAEXPAVFramedSource@@N@Z 004160a0 f   ServerMediaSession.obj
 0001:000150b0       ?testScaleFactor@ServerMediaSubsession@@UAEXAAM@Z 004160b0 f   ServerMediaSession.obj
 0001:000150c0       ?duration@ServerMediaSubsession@@UBEMXZ 004160c0 f   ServerMediaSession.obj
 0001:000150d0       ?rangeSDPLine@ServerMediaSubsession@@IBEPBDXZ 004160d0 f   ServerMediaSession.obj
 0001:00015160       ?strDup@@YAPADPBD@Z        00416160 f   strDup.obj
 0001:000151a0       ?strDupSize@@YAPADPBD@Z    004161a0 f   strDup.obj
 0001:000151d0       ?httpRequestKey@@YAHPAD0@Z 004161d0 f   testlive555.obj
 0001:00015420       ?supportMoreVideoAccess@@YAXPAVRTSPServer@@HHPAD@Z 00416420 f   testlive555.obj
 0001:00015880       ?realEntryMain@@YAXXZ      00416880 f   testlive555.obj
 0001:00015a60       _main                      00416a60 f   testlive555.obj
 0001:00015b40       ??0UsageEnvironment@@IAE@AAVTaskScheduler@@@Z 00416b40 f   UsageEnvironment.obj
 0001:00015b60       ??_EUsageEnvironment@@MAEPAXI@Z 00416b60 f i UsageEnvironment.obj
 0001:00015b60       ??_GUsageEnvironment@@MAEPAXI@Z 00416b60 f i UsageEnvironment.obj
 0001:00015b80       ??1UsageEnvironment@@MAE@XZ 00416b80 f   UsageEnvironment.obj
 0001:00015b90       ??0TaskScheduler@@IAE@XZ   00416b90 f   UsageEnvironment.obj
 0001:00015ba0       ??_ETaskScheduler@@UAEPAXI@Z 00416ba0 f i UsageEnvironment.obj
 0001:00015ba0       ??_GTaskScheduler@@UAEPAXI@Z 00416ba0 f i UsageEnvironment.obj
 0001:00015bc0       ??1TaskScheduler@@UAE@XZ   00416bc0 f   UsageEnvironment.obj
 0001:00015bd0       ?rescheduleDelayedTask@TaskScheduler@@UAEXAAPAX_JP6AXPAX@Z2@Z 00416bd0 f   UsageEnvironment.obj
 0001:00015c00       ??0VideoRTPSink@@IAE@AAVUsageEnvironment@@PAXPAVGroupsock@@EIPBD@Z 00416c00 f   VideoRTPSink.obj
 0001:00015c40       ??_EVideoRTPSink@@MAEPAXI@Z 00416c40 f i VideoRTPSink.obj
 0001:00015c40       ??_GVideoRTPSink@@MAEPAXI@Z 00416c40 f i VideoRTPSink.obj
 0001:00015c60       ??1VideoRTPSink@@MAE@XZ    00416c60 f   VideoRTPSink.obj
 0001:00015c70       ?sdpMediaType@VideoRTPSink@@EBEPBDXZ 00416c70 f   VideoRTPSink.obj
 0001:00015c80       ?xvid_enc_init@@YAPAXHHHHHH@Z 00416c80 f   xvid_interface.obj
 0001:00015eb0       ?xvid_encode_frame@@YAHPAXPAEHH1I@Z 00416eb0 f   xvid_interface.obj
 0001:00015f40       ?xvid_release@@YAXPAX@Z    00416f40 f   xvid_interface.obj
 0001:00015f60       ___WSAFDIsSet@8            00416f60 f   wsock32:WSOCK32.dll
 0001:00015f66       _socket@12                 00416f66 f   wsock32:WSOCK32.dll
 0001:00015f6c       _WSAGetLastError@0         00416f6c f   wsock32:WSOCK32.dll
 0001:00015f72       _select@20                 00416f72 f   wsock32:WSOCK32.dll
 0001:00015f78       _gethostname@8             00416f78 f   wsock32:WSOCK32.dll
 0001:00015f7e       _closesocket@4             00416f7e f   wsock32:WSOCK32.dll
 0001:00015f84       _ntohs@4                   00416f84 f   wsock32:WSOCK32.dll
 0001:00015f8a       _bind@12                   00416f8a f   wsock32:WSOCK32.dll
 0001:00015f90       _setsockopt@20             00416f90 f   wsock32:WSOCK32.dll
 0001:00015f96       _ioctlsocket@12            00416f96 f   wsock32:WSOCK32.dll
 0001:00015f9c       _recvfrom@24               00416f9c f   wsock32:WSOCK32.dll
 0001:00015fa2       _sendto@24                 00416fa2 f   wsock32:WSOCK32.dll
 0001:00015fa8       _getsockopt@20             00416fa8 f   wsock32:WSOCK32.dll
 0001:00015fae       _getsockname@12            00416fae f   wsock32:WSOCK32.dll
 0001:00015fb4       _ntohl@4                   00416fb4 f   wsock32:WSOCK32.dll
 0001:00015fba       _gethostbyname@4           00416fba f   wsock32:WSOCK32.dll
 0001:00015fc0       _htonl@4                   00416fc0 f   wsock32:WSOCK32.dll
 0001:00015fc6       _inet_addr@4               00416fc6 f   wsock32:WSOCK32.dll
 0001:00015fcc       _inet_ntoa@4               00416fcc f   wsock32:WSOCK32.dll
 0001:00015fd2       _WSACleanup@0              00416fd2 f   wsock32:WSOCK32.dll
 0001:00015fd8       _WSAStartup@8              00416fd8 f   wsock32:WSOCK32.dll
 0001:00015fde       _htons@4                   00416fde f   wsock32:WSOCK32.dll
 0001:00015fe4       _send@16                   00416fe4 f   wsock32:WSOCK32.dll
 0001:00015fea       _connect@12                00416fea f   wsock32:WSOCK32.dll
 0001:00015ff0       _listen@8                  00416ff0 f   wsock32:WSOCK32.dll
 0001:00015ff6       _accept@12                 00416ff6 f   wsock32:WSOCK32.dll
 0001:00016000       _xvid_global               00417000 f   libxvidcore:xvid.obj
 0001:00016ba0       _xvid_encore               00417ba0 f   libxvidcore:xvid.obj
 0001:00016bf0       _xvid_plugin_2pass1        00417bf0 f   libxvidcore:plugin_2pass1.obj
 0001:00016ea0       _xvid_plugin_2pass2        00417ea0 f   libxvidcore:plugin_2pass2.obj
 0001:00018d70       _xvid_plugin_single        00419d70 f   libxvidcore:plugin_single.obj
 0001:00023650       _xvid_Init_QP              00424650 f   libxvidcore:qpel.obj
 0001:00023820       _init_GMC                  00424820 f   libxvidcore:gmc.obj
 0001:00024480       _generate_GMCparameters    00425480 f   libxvidcore:gmc.obj
 0001:00024c50       _generate_GMCimage         00425c50 f   libxvidcore:gmc.obj
 0001:00024dd0       _sad16_c                   00425dd0 f   libxvidcore:sad.obj
 0001:00024f50       _sad16bi_c                 00425f50 f   libxvidcore:sad.obj
 0001:00024fe0       _sad8bi_c                  00425fe0 f   libxvidcore:sad.obj
 0001:00025070       _sad8_c                    00426070 f   libxvidcore:sad.obj
 0001:00025160       _dev16_c                   00426160 f   libxvidcore:sad.obj
 0001:000251c0       _sad16v_c                  004261c0 f   libxvidcore:sad.obj
 0001:00025230       _sad32v_c                  00426230 f   libxvidcore:sad.obj
 0001:000252c0       _sse8_16bit_c              004262c0 f   libxvidcore:sad.obj
 0001:000253c0       _sse8_8bit_c               004263c0 f   libxvidcore:sad.obj
 0001:000254d0       _calc_cbp_c                004264d0 f   libxvidcore:cbp.obj
 0001:000255a0       _rgb555_to_yv12_c          004265a0 f   libxvidcore:colorspace.obj
 0001:00025930       _rgb565_to_yv12_c          00426930 f   libxvidcore:colorspace.obj
 0001:00025cc0       _bgr_to_yv12_c             00426cc0 f   libxvidcore:colorspace.obj
 0001:00026010       _bgra_to_yv12_c            00427010 f   libxvidcore:colorspace.obj
 0001:00026360       _rgb_to_yv12_c             00427360 f   libxvidcore:colorspace.obj
 0001:000266b0       _abgr_to_yv12_c            004276b0 f   libxvidcore:colorspace.obj
 0001:00026a10       _rgba_to_yv12_c            00427a10 f   libxvidcore:colorspace.obj
 0001:00026d60       _argb_to_yv12_c            00427d60 f   libxvidcore:colorspace.obj
 0001:000270c0       _yuyv_to_yv12_c            004280c0 f   libxvidcore:colorspace.obj
 0001:00027250       _uyvy_to_yv12_c            00428250 f   libxvidcore:colorspace.obj
 0001:000273b0       _rgb555i_to_yv12_c         004283b0 f   libxvidcore:colorspace.obj
 0001:00027a40       _rgb565i_to_yv12_c         00428a40 f   libxvidcore:colorspace.obj
 0001:000280d0       _bgri_to_yv12_c            004290d0 f   libxvidcore:colorspace.obj
 0001:00028710       _bgrai_to_yv12_c           00429710 f   libxvidcore:colorspace.obj
 0001:00028d50       _abgri_to_yv12_c           00429d50 f   libxvidcore:colorspace.obj
 0001:000293a0       _rgbi_to_yv12_c            0042a3a0 f   libxvidcore:colorspace.obj
 0001:000299e0       _rgbai_to_yv12_c           0042a9e0 f   libxvidcore:colorspace.obj
 0001:0002a030       _argbi_to_yv12_c           0042b030 f   libxvidcore:colorspace.obj
 0001:0002a690       _yuyvi_to_yv12_c           0042b690 f   libxvidcore:colorspace.obj
 0001:0002a8e0       _uyvyi_to_yv12_c           0042b8e0 f   libxvidcore:colorspace.obj
 0001:0002aaf0       _yv12_to_rgb555_c          0042baf0 f   libxvidcore:colorspace.obj
 0001:0002af70       _yv12_to_rgb565_c          0042bf70 f   libxvidcore:colorspace.obj
 0001:0002b3f0       _yv12_to_bgr_c             0042c3f0 f   libxvidcore:colorspace.obj
 0001:0002b820       _yv12_to_bgra_c            0042c820 f   libxvidcore:colorspace.obj
 0001:0002bc80       _yv12_to_abgr_c            0042cc80 f   libxvidcore:colorspace.obj
 0001:0002c0e0       _yv12_to_rgb_c             0042d0e0 f   libxvidcore:colorspace.obj
 0001:0002c510       _yv12_to_rgba_c            0042d510 f   libxvidcore:colorspace.obj
 0001:0002c970       _yv12_to_argb_c            0042d970 f   libxvidcore:colorspace.obj
 0001:0002cdd0       _yv12_to_yuyv_c            0042ddd0 f   libxvidcore:colorspace.obj
 0001:0002cf00       _yv12_to_uyvy_c            0042df00 f   libxvidcore:colorspace.obj
 0001:0002d030       _yv12_to_rgb555i_c         0042e030 f   libxvidcore:colorspace.obj
 0001:0002d890       _yv12_to_rgb565i_c         0042e890 f   libxvidcore:colorspace.obj
 0001:0002e110       _yv12_to_bgri_c            0042f110 f   libxvidcore:colorspace.obj
 0001:0002e8c0       _yv12_to_bgrai_c           0042f8c0 f   libxvidcore:colorspace.obj
 0001:0002f090       _yv12_to_abgri_c           00430090 f   libxvidcore:colorspace.obj
 0001:0002f860       _yv12_to_rgbi_c            00430860 f   libxvidcore:colorspace.obj
 0001:00030010       _yv12_to_rgbai_c           00431010 f   libxvidcore:colorspace.obj
 0001:000307e0       _yv12_to_argbi_c           004317e0 f   libxvidcore:colorspace.obj
 0001:00030fb0       _yv12_to_yuyvi_c           00431fb0 f   libxvidcore:colorspace.obj
 0001:000311b0       _yv12_to_uyvyi_c           004321b0 f   libxvidcore:colorspace.obj
 0001:000313a0       _yv12_to_yv12_c            004323a0 f   libxvidcore:colorspace.obj
 0001:00031540       _colorspace_init           00432540 f   libxvidcore:colorspace.obj
 0001:000315b0       _image_brightness_c        004325b0 f   libxvidcore:postprocessing.obj
 0001:00031610       _interpolate8x8_avg2_c     00432610 f   libxvidcore:interpolate8x8.obj
 0001:00031700       _interpolate8x8_halfpel_add_c 00432700 f   libxvidcore:interpolate8x8.obj
 0001:00031720       _interpolate8x8_avg4_c     00432720 f   libxvidcore:interpolate8x8.obj
 0001:000318e0       _interpolate8x8_halfpel_h_c 004328e0 f   libxvidcore:interpolate8x8.obj
 0001:00031aa0       _interpolate8x4_halfpel_h_c 00432aa0 f   libxvidcore:interpolate8x8.obj
 0001:00031c60       _interpolate8x8_halfpel_h_add_c 00432c60 f   libxvidcore:interpolate8x8.obj
 0001:00031ec0       _interpolate8x8_halfpel_v_c 00432ec0 f   libxvidcore:interpolate8x8.obj
 0001:00032090       _interpolate8x4_halfpel_v_c 00433090 f   libxvidcore:interpolate8x8.obj
 0001:00032260       _interpolate8x8_halfpel_v_add_c 00433260 f   libxvidcore:interpolate8x8.obj
 0001:000324f0       _interpolate8x8_halfpel_hv_c 004334f0 f   libxvidcore:interpolate8x8.obj
 0001:000327c0       _interpolate8x4_halfpel_hv_c 004337c0 f   libxvidcore:interpolate8x8.obj
 0001:00032a90       _interpolate8x8_halfpel_hv_add_c 00433a90 f   libxvidcore:interpolate8x8.obj
 0001:00032e10       _interpolate8x8_6tap_lowpass_h_c 00433e10 f   libxvidcore:interpolate8x8.obj
 0001:000330e0       _interpolate16x16_lowpass_h_c 004340e0 f   libxvidcore:interpolate8x8.obj
 0001:00033770       _interpolate8x8_lowpass_h_c 00434770 f   libxvidcore:interpolate8x8.obj
 0001:00033aa0       _interpolate8x8_6tap_lowpass_v_c 00434aa0 f   libxvidcore:interpolate8x8.obj
 0001:00033df0       _interpolate16x16_lowpass_v_c 00434df0 f   libxvidcore:interpolate8x8.obj
 0001:00034510       _interpolate8x8_lowpass_v_c 00435510 f   libxvidcore:interpolate8x8.obj
 0001:00034890       _interpolate16x16_lowpass_hv_c 00435890 f   libxvidcore:interpolate8x8.obj
 0001:00034f40       _interpolate8x8_lowpass_hv_c 00435f40 f   libxvidcore:interpolate8x8.obj
 0001:00035290       _MBTransQuantIntra         00436290 f   libxvidcore:mbtransquant.obj
 0001:00035870       _MBTransQuantInter         00436870 f   libxvidcore:mbtransquant.obj
 0001:00035c40       _MBTransQuantInterBVOP     00436c40 f   libxvidcore:mbtransquant.obj
 0001:00036040       _MBFieldTest_c             00437040 f   libxvidcore:mbtransquant.obj
 0001:000361d0       _MBFrameToField            004371d0 f   libxvidcore:mbtransquant.obj
 0001:00036b80       _transfer_8to16copy_c      00437b80 f   libxvidcore:mem_transfer.obj
 0001:00036bb0       _transfer_16to8copy_c      00437bb0 f   libxvidcore:mem_transfer.obj
 0001:00036c00       _transfer_8to16sub_c       00437c00 f   libxvidcore:mem_transfer.obj
 0001:00036c60       _transfer_8to16subro_c     00437c60 f   libxvidcore:mem_transfer.obj
 0001:00036cb0       _transfer_8to16sub2_c      00437cb0 f   libxvidcore:mem_transfer.obj
 0001:00036d40       _transfer_8to16sub2ro_c    00437d40 f   libxvidcore:mem_transfer.obj
 0001:00036dc0       _transfer_16to8add_c       00437dc0 f   libxvidcore:mem_transfer.obj
 0001:00036e10       _transfer8x8_copy_c        00437e10 f   libxvidcore:mem_transfer.obj
 0001:00036e50       _transfer8x4_copy_c        00437e50 f   libxvidcore:mem_transfer.obj
 0001:00036e80       _quant_mpeg_intra_c        00437e80 f   libxvidcore:quant_mpeg.obj
 0001:00036ef0       _quant_mpeg_inter_c        00437ef0 f   libxvidcore:quant_mpeg.obj
 0001:00036fa0       _dequant_mpeg_intra_c      00437fa0 f   libxvidcore:quant_mpeg.obj
 0001:00037060       _dequant_mpeg_inter_c      00438060 f   libxvidcore:quant_mpeg.obj
 0001:00037120       _quant_h263_intra_c        00438120 f   libxvidcore:quant_h263.obj
 0001:000371d0       _quant_h263_inter_c        004381d0 f   libxvidcore:quant_h263.obj
 0001:00037270       _dequant_h263_intra_c      00438270 f   libxvidcore:quant_h263.obj
 0001:00037310       _dequant_h263_inter_c      00438310 f   libxvidcore:quant_h263.obj
 0001:00037380       _idct_int32                00438380 f   libxvidcore:idct.obj
 0001:00037870       _idct_int32_init           00438870 f   libxvidcore:idct.obj
 0001:000378b0       _fdct_int32                004388b0 f   libxvidcore:fdct.obj
 0001:00037d00       _bs_put_spritetrajectory   00438d00 f   libxvidcore:mbcoding.obj
 0001:00037f20       _init_vlc_tables           00438f20 f   libxvidcore:mbcoding.obj
 0001:00038400       _CodeCoeffIntra_CalcBits   00439400 f   libxvidcore:mbcoding.obj
 0001:000384e0       _CodeCoeffInter_CalcBits   004394e0 f   libxvidcore:mbcoding.obj
 0001:000385c0       _MBCoding                  004395c0 f   libxvidcore:mbcoding.obj
 0001:00039980       _MBCodingBVOP              0043a980 f   libxvidcore:mbcoding.obj
 0001:00039e30       _image_create              0043ae30 f   libxvidcore:image.obj
 0001:00039f40       _image_destroy             0043af40 f   libxvidcore:image.obj
 0001:00039fb0       _image_swap                0043afb0 f   libxvidcore:image.obj
 0001:00039fe0       _image_copy                0043afe0 f   libxvidcore:image.obj
 0001:0003a040       _image_setedges            0043b040 f   libxvidcore:image.obj
 0001:0003a550       _image_interpolate         0043b550 f   libxvidcore:image.obj
 0001:0003a730       _image_chroma_optimize     0043b730 f   libxvidcore:image.obj
 0001:0003a910       _image_input               0043b910 f   libxvidcore:image.obj
 0001:0003b180       _image_output              0043c180 f   libxvidcore:image.obj
 0001:0003b620       _plane_sse                 0043c620 f   libxvidcore:image.obj
 0001:0003b8d0       _enc_create                0043c8d0 f   libxvidcore:encoder.obj
 0001:0003c480       _enc_destroy               0043d480 f   libxvidcore:encoder.obj
 0001:0003c770       _enc_encode                0043d770 f   libxvidcore:encoder.obj
 0001:0003f7b0       _get_intra_matrix          004407b0 f   libxvidcore:quant_matrix.obj
 0001:0003f7c0       _get_inter_matrix          004407c0 f   libxvidcore:quant_matrix.obj
 0001:0003f7d0       _get_default_intra_matrix  004407d0 f   libxvidcore:quant_matrix.obj
 0001:0003f7e0       _get_default_inter_matrix  004407e0 f   libxvidcore:quant_matrix.obj
 0001:0003f7f0       _is_custom_intra_matrix    004407f0 f   libxvidcore:quant_matrix.obj
 0001:0003f830       _is_custom_inter_matrix    00440830 f   libxvidcore:quant_matrix.obj
 0001:0003f870       _set_intra_matrix          00440870 f   libxvidcore:quant_matrix.obj
 0001:0003f8a0       _init_intra_matrix         004408a0 f   libxvidcore:quant_matrix.obj
 0001:0003f8e0       _set_inter_matrix          004408e0 f   libxvidcore:quant_matrix.obj
 0001:0003f990       _init_mpeg_matrix          00440990 f   libxvidcore:quant_matrix.obj
 0001:0003f9b0       _xvid_malloc               004409b0 f   libxvidcore:mem_align.obj
 0001:0003fa10       _xvid_free                 00440a10 f   libxvidcore:mem_align.obj
 0001:0003fa30       _image_printf              00440a30 f   libxvidcore:font.obj
 0001:0003fbf0       _BitstreamWriteVolHeader   00440bf0 f   libxvidcore:bitstream.obj
 0001:00040930       _BitstreamWriteVopHeader   00441930 f   libxvidcore:bitstream.obj
 0001:00040dd0       _predict_acdc              00441dd0 f   libxvidcore:mbprediction.obj
 0001:00041140       _MBPrediction              00442140 f   libxvidcore:mbprediction.obj
 0001:000415f0       _get_pmv2                  004425f0 f   libxvidcore:mbprediction.obj
 0001:00041870       _get_qpmv2                 00442870 f   libxvidcore:mbprediction.obj
 0001:00041b10       _xvid_me_ChromaSAD         00442b10 f   libxvidcore:estimation_common.obj
 0001:00041ca0       _xvid_me_interpolate8x8qpel 00442ca0 f   libxvidcore:estimation_common.obj
 0001:00041f20       _xvid_me_interpolate16x16qpel 00442f20 f   libxvidcore:estimation_common.obj
 0001:00042300       _xvid_me_AdvDiamondSearch  00443300 f   libxvidcore:estimation_common.obj
 0001:000425a0       _xvid_me_SquareSearch      004435a0 f   libxvidcore:estimation_common.obj
 0001:000426a0       _xvid_me_DiamondSearch     004436a0 f   libxvidcore:estimation_common.obj
 0001:00042780       _xvid_me_SubpelRefine      00443780 f   libxvidcore:estimation_common.obj
 0001:00042820       _FullRefine_Fast           00443820 f   libxvidcore:estimation_common.obj
 0001:000430d0       _getMinFcode               004440d0 f   libxvidcore:estimation_common.obj
 0001:000430f0       _MEanalysis                004440f0 f   libxvidcore:vop_type_decision.obj
 0001:00043920       _MBMotionCompensation      00444920 f   libxvidcore:motion_comp.obj
 0001:000444c0       _MBMotionCompensationBVOP  004454c0 f   libxvidcore:motion_comp.obj
 0001:00045fc0       _xvid_me_SkipDecisionP     00446fc0 f   libxvidcore:estimation_pvop.obj
 0001:00046040       _MotionEstimation          00447040 f   libxvidcore:estimation_pvop.obj
 0001:00048850       _MotionEstimateSMP         00449850 f   libxvidcore:estimation_pvop.obj
 0001:00048fd0       _GMEanalysis               00449fd0 f   libxvidcore:estimation_gmc.obj
 0001:000493b0       _GlobalMotionEst           0044a3b0 f   libxvidcore:estimation_gmc.obj
 0001:00049e10       _GlobalMotionEstRefine     0044ae10 f   libxvidcore:estimation_gmc.obj
 0001:0004a340       _globalSAD                 0044b340 f   libxvidcore:estimation_gmc.obj
 0001:0004a450       _CheckCandidate16no4v      0044b450 f   libxvidcore:estimation_bvop.obj
 0001:0004a610       _MotionEstimationBVOP      0044b610 f   libxvidcore:estimation_bvop.obj
 0001:0004cf70       _SMPMotionEstimationBVOP   0044df70 f   libxvidcore:estimation_bvop.obj
 0001:0004d750       _xvid_me_ModeDecision_RD   0044e750 f   libxvidcore:estimation_rd_based.obj
 0001:00050280       _xvid_me_ModeDecision_Fast 00451280 f   libxvidcore:estimation_rd_based.obj
 0001:00050dd0       _ModeDecision_BVOP_RD      00451dd0 f   libxvidcore:estimation_rd_based_bvop.obj
 0001:00053210       _BN_bin2bn                 00454210 f   libeay32:LIBEAY32.dll
 0001:00053216       _RSA_new                   00454216 f   libeay32:LIBEAY32.dll
 0001:0005321c       _ERR_error_string          0045421c f   libeay32:LIBEAY32.dll
 0001:00053222       _ERR_get_error             00454222 f   libeay32:LIBEAY32.dll
 0001:00053228       _RSA_public_encrypt        00454228 f   libeay32:LIBEAY32.dll
 0001:0005322e       _RSA_free                  0045422e f   libeay32:LIBEAY32.dll
 0001:00053234       ??3@YAXPAX@Z               00454234 f   LIBC:delete.obj
 0001:0005323f       ??2@YAPAXI@Z               0045423f f   LIBC:new.obj
 0001:0005324d       ?_JumpToContinuation@@YGXPAXPAUEHRegistrationNode@@@Z 0045424d f   LIBC:trnsctrl.obj
 0001:00053281       ?_CallMemberFunction0@@YGXPAX0@Z 00454281 f   LIBC:trnsctrl.obj
 0001:00053281       ?_CallMemberFunction1@@YGXPAX00@Z 00454281 f   LIBC:trnsctrl.obj
 0001:00053288       ?_CallMemberFunction2@@YGXPAX00H@Z 00454288 f   LIBC:trnsctrl.obj
 0001:0005328f       ?_UnwindNestedFrames@@YGXPAUEHRegistrationNode@@PAUEHExceptionRecord@@@Z 0045428f f   LIBC:trnsctrl.obj
 0001:000532de       ___CxxFrameHandler         004542de f   LIBC:trnsctrl.obj
 0001:00053314       ?_CallCatchBlock2@@YAPAXPAUEHRegistrationNode@@PBU_s_FuncInfo@@PAXHK@Z 00454314 f   LIBC:trnsctrl.obj
 0001:0005338d       ?_CallSETranslator@@YAHPAUEHExceptionRecord@@PAUEHRegistrationNode@@PAX2PBU_s_FuncInfo@@H1@Z 0045438d f   LIBC:trnsctrl.obj
 0001:000534b6       ?_GetRangeOfTrysToCheck@@YAPBU_s_TryBlockMapEntry@@PBU_s_FuncInfo@@HHPAI1@Z 004544b6 f   LIBC:trnsctrl.obj
 0001:00053534       __global_unwind2           00454534 f   LIBC:exsup.obj
 0001:00053576       __local_unwind2            00454576 f   LIBC:exsup.obj
 0001:000535ce       __NLG_Return2              004545ce f   LIBC:exsup.obj
 0001:000535de       __abnormal_termination     004545de f   LIBC:exsup.obj
 0001:00053601       __NLG_Notify1              00454601 f   LIBC:exsup.obj
 0001:0005360a       __NLG_Notify               0045460a f   LIBC:exsup.obj
 0001:0005361d       __NLG_Dispatch             0045461d f   LIBC:exsup.obj
 0001:00053622       _sprintf                   00454622 f   LIBC:sprintf.obj
 0001:00053674       __purecall                 00454674 f   LIBC:purevirt.obj
 0001:00053680       __allrem                   00454680 f   LIBC:llrem.obj
 0001:00053740       __alldiv                   00454740 f   LIBC:lldiv.obj
 0001:000537ea       _abort                     004547ea f   LIBC:abort.obj
 0001:00053801       _perror                    00454801 f   LIBC:perror.obj
 0001:0005386d       _strerror                  0045486d f   LIBC:strerror.obj
 0001:000538a0       _memmove                   004548a0 f   LIBC:memmove.obj
 0001:00053bd5       _fputs                     00454bd5 f   LIBC:fputs.obj
 0001:00053c18       ___initstdio               00454c18 f   LIBC:_file.obj
 0001:00053cbd       ___endstdio                00454cbd f   LIBC:_file.obj
 0001:00053cd1       _fprintf                   00454cd1 f   LIBC:fprintf.obj
 0001:00053d03       __fpmath                   00454d03 f   LIBC:fpinit.obj
 0001:00053d1a       __fpclear                  00454d1a f   LIBC:fpinit.obj
 0001:00053d1b       __cfltcvt_init             00454d1b f   LIBC:fpinit.obj
 0001:00053d60       _strncpy                   00454d60 f   LIBC:strncpy.obj
 0001:00053e5e       _free                      00454e5e f   LIBC:free.obj
 0001:00053ec7       __fsopen                   00454ec7 f   LIBC:fopen.obj
 0001:00053ee7       _fopen                     00454ee7 f   LIBC:fopen.obj
 0001:00053efa       _fclose                    00454efa f   LIBC:fclose.obj
 0001:00053f50       __onexit                   00454f50 f   LIBC:onexit.obj
 0001:00053fbd       _atexit                    00454fbd f   LIBC:onexit.obj
 0001:00053fcf       ___onexitinit              00454fcf f   LIBC:onexit.obj
 0001:00054000       _strncmp                   00455000 f   LIBC:strncmp.obj
 0001:00054038       _ctime                     00455038 f   LIBC:ctime.obj
 0001:00054060       __allmul                   00455060 f   LIBC:llmul.obj
 0001:00054094       _fwrite                    00455094 f   LIBC:fwrite.obj
 0001:0005419e       _calloc                    0045519e f   LIBC:calloc.obj
 0001:0005424f       _srand                     0045524f f   LIBC:rand.obj
 0001:00054259       _rand                      00455259 f   LIBC:rand.obj
 0001:00054277       _setlocale                 00455277 f   LIBC:setlocal.obj
 0001:00054651       __expandlocale             00455651 f   LIBC:setlocal.obj
 0001:00054769       ___init_dummy              00455769 f   LIBC:setlocal.obj
 0001:00054769       ___init_collate            00455769 f   LIBC:setlocal.obj
 0001:0005476c       __strcats                  0045576c f   LIBC:setlocal.obj
 0001:00054791       ___lc_strtolc              00455791 f   LIBC:setlocal.obj
 0001:0005485d       ___lc_lctostr              0045585d f   LIBC:setlocal.obj
 0001:000548b0       __ftol                     004558b0 f   LIBC:ftol.obj
 0001:000548d7       _malloc                    004558d7 f   LIBC:malloc.obj
 0001:000548e9       __nh_malloc                004558e9 f   LIBC:malloc.obj
 0001:00054915       __heap_alloc               00455915 f   LIBC:malloc.obj
 0001:00054989       _fread                     00455989 f   LIBC:fread.obj
 0001:00054a71       __cinit                    00455a71 f   LIBC:crt0dat.obj
 0001:00054a9e       _exit                      00455a9e f   LIBC:crt0dat.obj
 0001:00054aaf       __exit                     00455aaf f   LIBC:crt0dat.obj
 0001:00054b73       _fflush                    00455b73 f   LIBC:fflush.obj
 0001:00054bae       __flush                    00455bae f   LIBC:fflush.obj
 0001:00054c0a       __flushall                 00455c0a f   LIBC:fflush.obj
 0001:00054c80       _atol                      00455c80 f   LIBC:atox.obj
 0001:00054d0b       _atoi                      00455d0b f   LIBC:atox.obj
 0001:00054d16       _sscanf                    00455d16 f   LIBC:sscanf.obj
 0001:00054d50       __strnicmp                 00455d50 f   LIBC:strnicmp.obj
 0001:00054e00       _strstr                    00455e00 f   LIBC:strstr.obj
 0001:00054e80       __snprintf                 00455e80 f   LIBC:snprintf.obj
 0001:00054ed1       _localtime                 00455ed1 f   LIBC:localtim.obj
 0001:00055031       _time                      00456031 f   LIBC:time.obj
 0001:0005510d       _fseek                     0045610d f   LIBC:fseek.obj
 0001:00055199       _strftime                  00456199 f   LIBC:strftime.obj
 0001:000551b4       __Strftime                 004561b4 f   LIBC:strftime.obj
 0001:00055a40       _gmtime                    00456a40 f   LIBC:gmtime.obj
 0001:00055b39       _printf                    00456b39 f   LIBC:printf.obj
 0001:00055b6a       _mainCRTStartup            00456b6a f   LIBC:crt0.obj
 0001:00055c49       __amsg_exit                00456c49 f   LIBC:crt0.obj
 0001:00055c9c       __except_handler3          00456c9c f   LIBC:exsup3.obj
 0001:00055d59       __seh_longjmp_unwind@4     00456d59 f   LIBC:exsup3.obj
 0001:00055d74       _setbuf                    00456d74 f   LIBC:setbuf.obj
 0001:00055da0       __aulldiv                  00456da0 f   LIBC:ulldiv.obj
 0001:00055e08       _realloc                   00456e08 f   LIBC:realloc.obj
 0001:000560a8       _fgetc                     004570a8 f   LIBC:fgetc.obj
 0001:000560c2       _vsprintf                  004570c2 f   LIBC:vsprintf.obj
 0001:00056113       ___InternalCxxFrameHandler 00457113 f   LIBC:frame.obj
 0001:0005645a       ___FrameUnwindToState      0045745a f   LIBC:frame.obj
 0001:00056883       ?_DestructExceptionObject@@YAXPAUEHExceptionRecord@@E@Z 00457883 f   LIBC:frame.obj
 0001:00056910       __CallSettingFrame@12      00457910 f   LIBC:lowhelpr.obj
 0001:00056937       __NLG_Return               00457937 f   LIBC:lowhelpr.obj
 0001:0005695c       ?terminate@@YAXXZ          0045795c f   LIBC:hooks.obj
 0001:000569b2       ?_inconsistency@@YAXXZ     004579b2 f   LIBC:hooks.obj
 0001:00056a08       __flsbuf                   00457a08 f   LIBC:_flsbuf.obj
 0001:00056b1d       __output                   00457b1d f   LIBC:output.obj
 0001:00057384       _raise                     00458384 f   LIBC:winsig.obj
 0001:000574f6       __FF_MSGBANNER             004584f6 f   LIBC:crt0msg.obj
 0001:0005752f       __NMSG_WRITE               0045852f f   LIBC:crt0msg.obj
 0001:00057682       __write                    00458682 f   LIBC:write.obj
 0001:00057830       _strlen                    00458830 f   LIBC:strlen.obj
 0001:000578b0       _strcpy                    004588b0 f   LIBC:strcat.obj
 0001:000578c0       _strcat                    004588c0 f   LIBC:strcat.obj
 0001:000579a0       __stbuf                    004589a0 f   LIBC:_sftbuf.obj
 0001:00057a2d       __ftbuf                    00458a2d f   LIBC:_sftbuf.obj
 0001:00057a6a       __ioinit                   00458a6a f   LIBC:ioinit.obj
 0001:00057c15       __fcloseall                00458c15 f   LIBC:closeall.obj
 0001:00057c6d       __setdefaultprecision      00458c6d f   LIBC:fp8.obj
 0001:00057c7f       __ms_p5_test_fdiv          00458c7f f   LIBC:testfdiv.obj
 0001:00057cbd       __ms_p5_mp_test_fdiv       00458cbd f   LIBC:testfdiv.obj
 0001:00057ce6       __forcdecpt                00458ce6 f   LIBC:cvt.obj
 0001:00057d40       __cropzeros                00458d40 f   LIBC:cvt.obj
 0001:00057d8e       __positive                 00458d8e f   LIBC:cvt.obj
 0001:00057da6       __fassign                  00458da6 f   LIBC:cvt.obj
 0001:00057de4       __cftoe                    00458de4 f   LIBC:cvt.obj
 0001:00057ee8       __cftof                    00458ee8 f   LIBC:cvt.obj
 0001:00057fc6       __cftog                    00458fc6 f   LIBC:cvt.obj
 0001:000580ab       __cfltcvt                  004590ab f   LIBC:cvt.obj
 0001:00058121       __GetLinkerVersion         00459121 f   LIBC:heapinit.obj
 0001:0005814e       ___heap_select             0045914e f   LIBC:heapinit.obj
 0001:00058296       __heap_init                00459296 f   LIBC:heapinit.obj
 0001:000582f3       ___sbh_heap_init           004592f3 f   LIBC:sbheap.obj
 0001:0005833b       ___sbh_find_block          0045933b f   LIBC:sbheap.obj
 0001:00058366       ___sbh_free_block          00459366 f   LIBC:sbheap.obj
 0001:0005868f       ___sbh_alloc_block         0045968f f   LIBC:sbheap.obj
 0001:00058998       ___sbh_alloc_new_region    00459998 f   LIBC:sbheap.obj
 0001:00058a49       ___sbh_alloc_new_group     00459a49 f   LIBC:sbheap.obj
 0001:00058b44       ___sbh_resize_block        00459b44 f   LIBC:sbheap.obj
 0001:00058e3a       ___old_sbh_new_region      00459e3a f   LIBC:sbheap.obj
 0001:00058f7e       ___old_sbh_release_region  00459f7e f   LIBC:sbheap.obj
 0001:00058fd4       ___old_sbh_decommit_pages  00459fd4 f   LIBC:sbheap.obj
 0001:00059096       ___old_sbh_find_block      0045a096 f   LIBC:sbheap.obj
 0001:000590ed       ___old_sbh_free_block      0045a0ed f   LIBC:sbheap.obj
 0001:00059132       ___old_sbh_alloc_block     0045a132 f   LIBC:sbheap.obj
 0001:0005933a       ___old_sbh_alloc_block_from_page 0045a33a f   LIBC:sbheap.obj
 0001:0005945e       ___old_sbh_resize_block    0045a45e f   LIBC:sbheap.obj
 0001:00059507       __openfile                 0045a507 f   LIBC:_open.obj
 0001:00059677       __getstream                0045a677 f   LIBC:stream.obj
 0001:000596ef       __close                    0045a6ef f   LIBC:close.obj
 0001:000597a2       __freebuf                  0045a7a2 f   LIBC:_freebuf.obj
 0001:000597cd       __msize                    0045a7cd f   LIBC:msize.obj
 0001:0005982e       _asctime                   0045a82e f   LIBC:asctime.obj
 0001:00059910       _memcpy                    0045a910 f   LIBC:memcpy.obj
 0001:00059c50       _memset                    0045ac50 f   LIBC:memset.obj
 0001:00059ca8       __callnewh                 0045aca8 f   LIBC:handler.obj
 0001:00059cc3       ___init_time               0045acc3 f   LIBC:inittime.obj
 0001:0005a232       ___init_numeric            0045b232 f   LIBC:initnum.obj
 0001:0005a407       ___init_monetary           0045b407 f   LIBC:initmon.obj
 0001:0005a679       ___init_ctype              0045b679 f   LIBC:initctyp.obj
 0001:0005a8c0       _strcmp                    0045b8c0 f   LIBC:strcmp.obj
 0001:0005a950       _strcspn                   0045b950 f   LIBC:strcspn.obj
 0001:0005a990       _strpbrk                   0045b990 f   LIBC:strpbrk.obj
 0001:0005a9ca       ___get_qualified_locale    0045b9ca f   LIBC:getqloc.obj
 0001:0005b271       __filbuf                   0045c271 f   LIBC:_filbuf.obj
 0001:0005b34a       __read                     0045c34a f   LIBC:read.obj
 0001:0005b540       __commit                   0045c540 f   LIBC:commit.obj
 0001:0005b597       __isctype                  0045c597 f   LIBC:isctype.obj
 0001:0005b60c       __input                    0045c60c f   LIBC:input.obj
 0001:0005c0bd       _tolower                   0045d0bd f   LIBC:tolower.obj
 0001:0005c1a0       _strchr                    0045d1a0 f   LIBC:strchr.obj
 0001:0005c1a6       ___from_strstr_to_strchr   0045d1a6 f   LIBC:strchr.obj
 0001:0005c25c       ___tzset                   0045d25c f   LIBC:tzset.obj
 0001:0005c271       __tzset                    0045d271 f   LIBC:tzset.obj
 0001:0005c4cf       __isindst                  0045d4cf f   LIBC:tzset.obj
 0001:0005c7bb       ___loctotime_t             0045d7bb f   LIBC:dtoxtime.obj
 0001:0005c87d       __lseek                    0045d87d f   LIBC:lseek.obj
 0001:0005c917       _ftell                     0045d917 f   LIBC:ftell.obj
 0001:0005ca70       __stricmp                  0045da70 f   LIBC:stricmp.obj
 0001:0005ca70       __strcmpi                  0045da70 f   LIBC:stricmp.obj
 0001:0005cafc       ?__CxxUnhandledExceptionFilter@@YGJPAU_EXCEPTION_POINTERS@@@Z 0045dafc f   LIBC:unhandld.obj
 0001:0005cb42       ?__CxxSetUnhandledExceptionFilter@@YAXXZ 0045db42 f   LIBC:unhandld.obj
 0001:0005cb53       ?__CxxRestoreUnhandledExceptionFilter@@YAXXZ 0045db53 f   LIBC:unhandld.obj
 0001:0005cb60       __XcptFilter               0045db60 f   LIBC:winxfltr.obj
 0001:0005cce4       __setenvp                  0045dce4 f   LIBC:stdenvp.obj
 0001:0005cd9d       __setargv                  0045dd9d f   LIBC:stdargv.obj
 0001:0005cfea       ___crtGetEnvironmentStringsA 0045dfea f   LIBC:a_env.obj
 0001:0005d11c       _setvbuf                   0045e11c f   LIBC:setvbuf.obj
 0001:0005d1bd       ?_ValidateRead@@YAHPBXI@Z  0045e1bd f   LIBC:validate.obj
 0001:0005d1d9       ?_ValidateWrite@@YAHPAXI@Z 0045e1d9 f   LIBC:validate.obj
 0001:0005d1f5       ?_ValidateExecute@@YAHP6GHXZ@Z 0045e1f5 f   LIBC:validate.obj
 0001:0005d20d       __getbuf                   0045e20d f   LIBC:_getbuf.obj
 0001:0005d251       __isatty                   0045e251 f   LIBC:isatty.obj
 0001:0005d277       _wctomb                    0045e277 f   LIBC:wctomb.obj
 0001:0005d2e0       __aullrem                  0045e2e0 f   LIBC:ullrem.obj
 0001:0005d355       ___crtMessageBoxA          0045e355 f   LIBC:crtmbox.obj
 0001:0005d3de       __dosmaperr                0045e3de f   LIBC:dosmap.obj
 0001:0005d445       __control87                0045e445 f   LIBC:ieee87.obj
 0001:0005d47a       __controlfp                0045e47a f   LIBC:ieee87.obj
 0001:0005d5ab       __ZeroTail                 0045e5ab f   LIBC:intrncvt.obj
 0001:0005d5f4       __IncMan                   0045e5f4 f   LIBC:intrncvt.obj
 0001:0005d64a       __RoundMan                 0045e64a f   LIBC:intrncvt.obj
 0001:0005d6d6       __CopyMan                  0045e6d6 f   LIBC:intrncvt.obj
 0001:0005d6f1       __FillZeroMan              0045e6f1 f   LIBC:intrncvt.obj
 0001:0005d6fd       __IsZeroMan                0045e6fd f   LIBC:intrncvt.obj
 0001:0005d718       __ShrMan                   0045e718 f   LIBC:intrncvt.obj
 0001:0005d7a5       __ld12cvt                  0045e7a5 f   LIBC:intrncvt.obj
 0001:0005d911       __ld12tod                  0045e911 f   LIBC:intrncvt.obj
 0001:0005d927       __ld12tof                  0045e927 f   LIBC:intrncvt.obj
 0001:0005d93d       __atodbl                   0045e93d f   LIBC:intrncvt.obj
 0001:0005d96a       __atoflt                   0045e96a f   LIBC:intrncvt.obj
 0001:0005d997       __fptostr                  0045e997 f   LIBC:_fptostr.obj
 0001:0005da0e       __fltout                   0045ea0e f   LIBC:cfout.obj
 0001:0005da72       ___dtold                   0045ea72 f   LIBC:cfout.obj
 0001:0005db28       __fptrap                   0045eb28 f   LIBC:crt0fp.obj
 0001:0005db31       _strtol                    0045eb31 f   LIBC:strtol.obj
 0001:0005dd50       __alloca_probe             0045ed50 f   LIBC:chkstk.obj
 0001:0005dd50       __chkstk                   0045ed50 f   LIBC:chkstk.obj
 0001:0005dd7f       __sopen                    0045ed7f f   LIBC:open.obj
 0001:0005e038       __alloc_osfhnd             0045f038 f   LIBC:osfinfo.obj
 0001:0005e0cd       __set_osfhnd               0045f0cd f   LIBC:osfinfo.obj
 0001:0005e144       __free_osfhnd              0045f144 f   LIBC:osfinfo.obj
 0001:0005e1be       __get_osfhandle            0045f1be f   LIBC:osfinfo.obj
 0001:0005e1fb       ___getlocaleinfo           0045f1fb f   LIBC:inithelp.obj
 0001:0005e333       ___crtGetStringTypeW       0045f333 f   LIBC:w_str.obj
 0001:0005e4f8       ___crtGetStringTypeA       0045f4f8 f   LIBC:a_str.obj
 0001:0005e641       __itoa                     0045f641 f   LIBC:xtoa.obj
 0001:0005e6ca       _mbtowc                    0045f6ca f   LIBC:mbtowc.obj
 0001:0005e792       _isspace                   0045f792 f   LIBC:_ctype.obj
 0001:0005e7c0       __allshl                   0045f7c0 f   LIBC:llshl.obj
 0001:0005e7df       _ungetc                    0045f7df f   LIBC:ungetc.obj
 0001:0005e84d       ___crtLCMapStringA         0045f84d f   LIBC:a_map.obj
 0001:0005ea9c       _getenv                    0045fa9c f   LIBC:getenv.obj
 0001:0005eb19       __setmbcp                  0045fb19 f   LIBC:mbctype.obj
 0001:0005eedd       ___initmbctable            0045fedd f   LIBC:mbctype.obj
 0001:0005eef9       ___addl                    0045fef9 f   LIBC:mantold.obj
 0001:0005ef1a       ___add_12                  0045ff1a f   LIBC:mantold.obj
 0001:0005ef78       ___shl_12                  0045ff78 f   LIBC:mantold.obj
 0001:0005efa6       ___shr_12                  0045ffa6 f   LIBC:mantold.obj
 0001:0005efd3       ___mtold12                 0045ffd3 f   LIBC:mantold.obj
 0001:0005f09a       ___strgtold12              0046009a f   LIBC:strgtold.obj
 0001:0005f56b       _$I10_OUTPUT               0046056b f   LIBC:x10fout.obj
 0001:0005f7fe       _toupper                   004607fe f   LIBC:toupper.obj
 0001:0005f8ca       __chsize                   004608ca f   LIBC:chsize.obj
 0001:0005fa10       ___crtGetLocaleInfoW       00460a10 f   LIBC:w_loc.obj
 0001:0005fb23       ___crtGetLocaleInfoA       00460b23 f   LIBC:a_loc.obj
 0001:0005fc41       __mbsnbicoll               00460c41 f   LIBC:mbsnbico.obj
 0001:0005fc80       ___wtomb_environ           00460c80 f   LIBC:wtombenv.obj
 0001:0005fcee       ___ld12mul                 00460cee f   LIBC:tenpow.obj
 0001:0005ff0e       ___multtenpow12            00460f0e f   LIBC:tenpow.obj
 0001:0005ff8a       __setmode                  00460f8a f   LIBC:setmode.obj
 0001:00060000       ___crtCompareStringA       00461000 f   LIBC:a_cmp.obj
 0001:0006027d       ___crtsetenv               0046127d f   LIBC:setenv.obj
 0001:000604c3       __mbschr                   004614c3 f   LIBC:mbschr.obj
 0001:00060536       __strdup                   00461536 f   LIBC:strdup.obj
 0001:00060570       _RtlUnwind@16              00461570 f   kernel32:KERNEL32.dll
 0001:00060576       _ftime                     00461576 f   LIBC:ftime.obj
 0001:00060576       __ftime                    00461576 f   LIBC:ftime.obj
 0003:00000000       _sad16_sse2                00466000     libxvidcore:sad_sse2.obj
 0003:00000160       _sad16_sse3                00466160     libxvidcore:sad_sse2.obj
 0003:000002c0       _dev16_sse2                004662c0     libxvidcore:sad_sse2.obj
 0003:000004d0       _dev16_sse3                004664d0     libxvidcore:sad_sse2.obj
 0003:000006e0       _image_brightness_sse2     004666e0     libxvidcore:postprocessing_sse2.obj
 0003:000007a0       _idct_sse2_skal            004667a0     libxvidcore:fdct_sse2_skal.obj
 0003:00000da0       _fdct_sse2_skal            00466da0     libxvidcore:fdct_sse2_skal.obj
 0003:000012f0       _quant_h263_intra_mmx      004672f0     libxvidcore:quantize_h263_mmx.obj
 0003:00001410       _quant_h263_intra_sse2     00467410     libxvidcore:quantize_h263_mmx.obj
 0003:00001560       _quant_h263_inter_mmx      00467560     libxvidcore:quantize_h263_mmx.obj
 0003:00001670       _quant_h263_inter_sse2     00467670     libxvidcore:quantize_h263_mmx.obj
 0003:000017d0       _dequant_h263_intra_mmx    004677d0     libxvidcore:quantize_h263_mmx.obj
 0003:000018a0       _dequant_h263_intra_xmm    004678a0     libxvidcore:quantize_h263_mmx.obj
 0003:00001960       _dequant_h263_intra_sse2   00467960     libxvidcore:quantize_h263_mmx.obj
 0003:00001a50       _dequant_h263_inter_mmx    00467a50     libxvidcore:quantize_h263_mmx.obj
 0003:00001b00       _dequant_h263_inter_xmm    00467b00     libxvidcore:quantize_h263_mmx.obj
 0003:00001ba0       _dequant_h263_inter_sse2   00467ba0     libxvidcore:quantize_h263_mmx.obj
 0003:00001c70       _calc_cbp_sse2             00467c70     libxvidcore:cbp_sse2.obj
 0003:00001eb0       _sad16_3dne                00467eb0     libxvidcore:sad_3dne.obj
 0003:00002070       _sad8_3dne                 00468070     libxvidcore:sad_3dne.obj
 0003:000020f0       _sad16bi_3dne              004680f0     libxvidcore:sad_3dne.obj
 0003:00002390       _sad8bi_3dne               00468390     libxvidcore:sad_3dne.obj
 0003:00002450       _dev16_3dne                00468450     libxvidcore:sad_3dne.obj
 0003:00002720       _quant_h263_intra_3dne     00468720     libxvidcore:quantize_h263_3dne.obj
 0003:00002bf0       _quant_h263_inter_3dne     00468bf0     libxvidcore:quantize_h263_3dne.obj
 0003:00003100       _dequant_h263_intra_3dne   00469100     libxvidcore:quantize_h263_3dne.obj
 0003:000034a0       _dequant_h263_inter_3dne   004694a0     libxvidcore:quantize_h263_3dne.obj
 0003:00003840       _quant_mpeg_inter_xmm      00469840     libxvidcore:quantize_mpeg_xmm.obj
 0003:00003b30       _dequant_mpeg_intra_3dne   00469b30     libxvidcore:quantize_mpeg_xmm.obj
 0003:00003f40       _dequant_mpeg_inter_3dne   00469f40     libxvidcore:quantize_mpeg_xmm.obj
 0003:00004060       _interpolate8x8_halfpel_h_3dne 0046a060     libxvidcore:interpolate8x8_3dne.obj
 0003:000041e0       _interpolate8x8_halfpel_v_3dne 0046a1e0     libxvidcore:interpolate8x8_3dne.obj
 0003:00004330       _interpolate8x8_halfpel_hv_3dne 0046a330     libxvidcore:interpolate8x8_3dne.obj
 0003:00004640       _interpolate8x4_halfpel_h_3dne 0046a640     libxvidcore:interpolate8x8_3dne.obj
 0003:00004710       _interpolate8x4_halfpel_v_3dne 0046a710     libxvidcore:interpolate8x8_3dne.obj
 0003:000047e0       _interpolate8x4_halfpel_hv_3dne 0046a7e0     libxvidcore:interpolate8x8_3dne.obj
 0003:00004970       _transfer_8to16copy_3dne   0046a970     libxvidcore:mem_transfer_3dne.obj
 0003:00004a50       _transfer_16to8copy_3dne   0046aa50     libxvidcore:mem_transfer_3dne.obj
 0003:00004ad0       _transfer_8to16sub_3dne    0046aad0     libxvidcore:mem_transfer_3dne.obj
 0003:00004c80       _transfer_8to16subro_3dne  0046ac80     libxvidcore:mem_transfer_3dne.obj
 0003:00004e30       _transfer_8to16sub2_3dne   0046ae30     libxvidcore:mem_transfer_3dne.obj
 0003:00005010       _transfer_16to8add_3dne    0046b010     libxvidcore:mem_transfer_3dne.obj
 0003:00005130       _transfer8x8_copy_3dne     0046b130     libxvidcore:mem_transfer_3dne.obj
 0003:000051a0       _transfer8x4_copy_3dne     0046b1a0     libxvidcore:mem_transfer_3dne.obj
 0003:000051e0       _idct_3dne                 0046b1e0     libxvidcore:idct_3dne.obj
 0003:00005950       _interpolate8x8_halfpel_h_3dn 0046b950     libxvidcore:interpolate8x8_3dn.obj
 0003:00005ae0       _interpolate8x8_halfpel_v_3dn 0046bae0     libxvidcore:interpolate8x8_3dn.obj
 0003:00005c50       _interpolate8x8_halfpel_hv_3dn 0046bc50     libxvidcore:interpolate8x8_3dn.obj
 0003:00005f80       _interpolate8x4_halfpel_h_3dn 0046bf80     libxvidcore:interpolate8x8_3dn.obj
 0003:00006060       _interpolate8x4_halfpel_v_3dn 0046c060     libxvidcore:interpolate8x8_3dn.obj
 0003:00006130       _interpolate8x4_halfpel_hv_3dn 0046c130     libxvidcore:interpolate8x8_3dn.obj
 0003:000062e0       _sad16_xmm                 0046c2e0     libxvidcore:sad_xmm.obj
 0003:00006480       _sad8_xmm                  0046c480     libxvidcore:sad_xmm.obj
 0003:00006500       _sad16bi_xmm               0046c500     libxvidcore:sad_xmm.obj
 0003:00006790       _sad8bi_xmm                0046c790     libxvidcore:sad_xmm.obj
 0003:00006860       _dev16_xmm                 0046c860     libxvidcore:sad_xmm.obj
 0003:00006b60       _sad16v_xmm                0046cb60     libxvidcore:sad_xmm.obj
 0003:00006d20       _yuyv_to_yv12_mmx          0046cd20     libxvidcore:colorspace_yuyv_mmx.obj
 0003:00006e90       _yuyv_to_yv12_3dn          0046ce90     libxvidcore:colorspace_yuyv_mmx.obj
 0003:00006fd0       _yuyv_to_yv12_xmm          0046cfd0     libxvidcore:colorspace_yuyv_mmx.obj
 0003:00007110       _uyvy_to_yv12_mmx          0046d110     libxvidcore:colorspace_yuyv_mmx.obj
 0003:00007280       _uyvy_to_yv12_3dn          0046d280     libxvidcore:colorspace_yuyv_mmx.obj
 0003:000073d0       _uyvy_to_yv12_xmm          0046d3d0     libxvidcore:colorspace_yuyv_mmx.obj
 0003:00007520       _yv12_to_yuyv_mmx          0046d520     libxvidcore:colorspace_yuyv_mmx.obj
 0003:00007660       _yv12_to_uyvy_mmx          0046d660     libxvidcore:colorspace_yuyv_mmx.obj
 0003:000077b0       _yv12_to_yuyvi_mmx         0046d7b0     libxvidcore:colorspace_yuyv_mmx.obj
 0003:00007910       _yv12_to_uyvyi_mmx         0046d910     libxvidcore:colorspace_yuyv_mmx.obj
 0003:00007a80       _transfer_8to16copy_mmx    0046da80     libxvidcore:mem_transfer_mmx.obj
 0003:00007b40       _transfer_16to8copy_mmx    0046db40     libxvidcore:mem_transfer_mmx.obj
 0003:00007bd0       _transfer_8to16sub_mmx     0046dbd0     libxvidcore:mem_transfer_mmx.obj
 0003:00007d60       _transfer_8to16subro_mmx   0046dd60     libxvidcore:mem_transfer_mmx.obj
 0003:00007ed0       _transfer_8to16sub2_mmx    0046ded0     libxvidcore:mem_transfer_mmx.obj
 0003:00008210       _transfer_8to16sub2_xmm    0046e210     libxvidcore:mem_transfer_mmx.obj
 0003:000083c0       _transfer_8to16sub2ro_xmm  0046e3c0     libxvidcore:mem_transfer_mmx.obj
 0003:00008560       _transfer_16to8add_mmx     0046e560     libxvidcore:mem_transfer_mmx.obj
 0003:00008650       _transfer8x8_copy_mmx      0046e650     libxvidcore:mem_transfer_mmx.obj
 0003:000086b0       _transfer8x4_copy_mmx      0046e6b0     libxvidcore:mem_transfer_mmx.obj
 0003:000086f0       _interpolate8x8_halfpel_h_xmm 0046e6f0     libxvidcore:interpolate8x8_xmm.obj
 0003:00008870       _interpolate8x8_halfpel_v_xmm 0046e870     libxvidcore:interpolate8x8_xmm.obj
 0003:000089d0       _interpolate8x8_halfpel_hv_xmm 0046e9d0     libxvidcore:interpolate8x8_xmm.obj
 0003:00008ce0       _interpolate8x4_halfpel_h_xmm 0046ece0     libxvidcore:interpolate8x8_xmm.obj
 0003:00008db0       _interpolate8x4_halfpel_v_xmm 0046edb0     libxvidcore:interpolate8x8_xmm.obj
 0003:00008e70       _interpolate8x4_halfpel_hv_xmm 0046ee70     libxvidcore:interpolate8x8_xmm.obj
 0003:00009010       _interpolate8x8_halfpel_add_xmm 0046f010     libxvidcore:interpolate8x8_xmm.obj
 0003:00009090       _interpolate8x8_halfpel_h_add_xmm 0046f090     libxvidcore:interpolate8x8_xmm.obj
 0003:00009260       _interpolate8x8_halfpel_v_add_xmm 0046f260     libxvidcore:interpolate8x8_xmm.obj
 0003:00009400       _interpolate8x8_halfpel_hv_add_xmm 0046f400     libxvidcore:interpolate8x8_xmm.obj
 0003:00009740       _idct_mmx                  0046f740     libxvidcore:idct_mmx.obj
 0003:00009f90       _idct_xmm                  0046ff90     libxvidcore:idct_mmx.obj
 0003:0000a760       _fdct_mmx_skal             00470760     libxvidcore:fdct_mmx_skal.obj
 0003:0000af40       _fdct_xmm_skal             00470f40     libxvidcore:fdct_mmx_skal.obj
 0003:0000b6b0       _sad16bi_3dn               004716b0     libxvidcore:sad_3dn.obj
 0003:0000bc40       _sad8bi_3dn                00471c40     libxvidcore:sad_3dn.obj
 0003:0000bdd0       _check_cpu_features        00471dd0     libxvidcore:cpuid.obj
 0003:0000bef0       _sse_os_trigger            00471ef0     libxvidcore:cpuid.obj
 0003:0000bf00       _sse2_os_trigger           00471f00     libxvidcore:cpuid.obj
 0003:0000bf10       _emms_mmx                  00471f10     libxvidcore:cpuid.obj
 0003:0000bf20       _emms_3dn                  00471f20     libxvidcore:cpuid.obj
 0003:0000bf30       _sad16_mmx                 00471f30     libxvidcore:sad_mmx.obj
 0003:0000c400       _sad8_mmx                  00472400     libxvidcore:sad_mmx.obj
 0003:0000c550       _sad16v_mmx                00472550     libxvidcore:sad_mmx.obj
 0003:0000ca80       _sad16bi_mmx               00472a80     libxvidcore:sad_mmx.obj
 0003:0000d700       _sad8bi_mmx                00473700     libxvidcore:sad_mmx.obj
 0003:0000da50       _dev16_mmx                 00473a50     libxvidcore:sad_mmx.obj
 0003:0000e29f       _sse8_16bit_mmx            0047429f     libxvidcore:sad_mmx.obj
 0003:0000e3bc       _sse8_8bit_mmx             004743bc     libxvidcore:sad_mmx.obj
 0003:0000e560       _calc_cbp_mmx              00474560     libxvidcore:cbp_mmx.obj
 0003:0000e810       _bgr_to_yv12_mmx           00474810     libxvidcore:colorspace_rgb_mmx.obj
 0003:0000ea00       _bgra_to_yv12_mmx          00474a00     libxvidcore:colorspace_rgb_mmx.obj
 0003:0000ec00       _rgb_to_yv12_mmx           00474c00     libxvidcore:colorspace_rgb_mmx.obj
 0003:0000edf0       _rgba_to_yv12_mmx          00474df0     libxvidcore:colorspace_rgb_mmx.obj
 0003:0000eff0       _yv12_to_bgr_mmx           00474ff0     libxvidcore:colorspace_rgb_mmx.obj
 0003:0000f320       _yv12_to_bgra_mmx          00475320     libxvidcore:colorspace_rgb_mmx.obj
 0003:0000f5e0       _yv12_to_yv12_mmx          004755e0     libxvidcore:colorspace_yuv_mmx.obj
 0003:0000f980       _yv12_to_yv12_xmm          00475980     libxvidcore:colorspace_yuv_mmx.obj
 0003:0000fd40       _image_brightness_mmx      00475d40     libxvidcore:postprocessing_mmx.obj
 0003:0000fdb0       _interpolate8x8_halfpel_h_mmx 00475db0     libxvidcore:interpolate8x8_mmx.obj
 0003:0000ff90       _interpolate8x8_halfpel_v_mmx 00475f90     libxvidcore:interpolate8x8_mmx.obj
 0003:00010170       _interpolate8x8_halfpel_hv_mmx 00476170     libxvidcore:interpolate8x8_mmx.obj
 0003:00010480       _interpolate8x4_halfpel_h_mmx 00476480     libxvidcore:interpolate8x8_mmx.obj
 0003:00010580       _interpolate8x4_halfpel_v_mmx 00476580     libxvidcore:interpolate8x8_mmx.obj
 0003:00010680       _interpolate8x4_halfpel_hv_mmx 00476680     libxvidcore:interpolate8x8_mmx.obj
 0003:00010820       _interpolate8x8_avg2_mmx   00476820     libxvidcore:interpolate8x8_mmx.obj
 0003:00010d10       _interpolate8x8_avg4_mmx   00476d10     libxvidcore:interpolate8x8_mmx.obj
 0003:000116e0       _interpolate8x8_6tap_lowpass_h_mmx 004776e0     libxvidcore:interpolate8x8_mmx.obj
 0003:00011be0       _interpolate8x8_6tap_lowpass_v_mmx 00477be0     libxvidcore:interpolate8x8_mmx.obj
 0003:000120f0       _interpolate8x8_halfpel_add_mmx 004780f0     libxvidcore:interpolate8x8_mmx.obj
 0003:000122d0       _interpolate8x8_halfpel_h_add_mmx 004782d0     libxvidcore:interpolate8x8_mmx.obj
 0003:000125c0       _interpolate8x8_halfpel_v_add_mmx 004785c0     libxvidcore:interpolate8x8_mmx.obj
 0003:000128b0       _interpolate8x8_halfpel_hv_add_mmx 004788b0     libxvidcore:interpolate8x8_mmx.obj
 0003:00012c50       _MBFieldTest_mmx           00478c50     libxvidcore:interlacing_mmx.obj
 0003:00012f20       _quant_mpeg_intra_mmx      00478f20     libxvidcore:quantize_mpeg_mmx.obj
 0003:00013280       _quant_mpeg_inter_mmx      00479280     libxvidcore:quantize_mpeg_mmx.obj
 0003:000134a0       _dequant_mpeg_intra_mmx    004794a0     libxvidcore:quantize_mpeg_mmx.obj
 0003:00013590       _dequant_mpeg_inter_mmx    00479590     libxvidcore:quantize_mpeg_mmx.obj
 0003:000136b0       _xvid_H_Pass_16_mmx        004796b0     libxvidcore:qpel_mmx.obj
 0003:00013884       _xvid_H_Pass_Avrg_16_mmx   00479884     libxvidcore:qpel_mmx.obj
 0003:00013ac8       _xvid_H_Pass_Avrg_Up_16_mmx 00479ac8     libxvidcore:qpel_mmx.obj
 0003:00013d0d       _xvid_H_Pass_8_mmx         00479d0d     libxvidcore:qpel_mmx.obj
 0003:00013dfb       _xvid_H_Pass_Avrg_8_mmx    00479dfb     libxvidcore:qpel_mmx.obj
 0003:00013f26       _xvid_H_Pass_Avrg_Up_8_mmx 00479f26     libxvidcore:qpel_mmx.obj
 0003:00014052       _xvid_H_Pass_Add_16_mmx    0047a052     libxvidcore:qpel_mmx.obj
 0003:0001429e       _xvid_H_Pass_Avrg_Add_16_mmx 0047a29e     libxvidcore:qpel_mmx.obj
 0003:0001454f       _xvid_H_Pass_Avrg_Up_Add_16_mmx 0047a54f     libxvidcore:qpel_mmx.obj
 0003:00014801       _xvid_H_Pass_8_Add_mmx     0047a801     libxvidcore:qpel_mmx.obj
 0003:00014930       _xvid_H_Pass_Avrg_8_Add_mmx 0047a930     libxvidcore:qpel_mmx.obj
 0003:00014a91       _xvid_H_Pass_Avrg_Up_8_Add_mmx 0047aa91     libxvidcore:qpel_mmx.obj
 0003:00014bf3       _xvid_V_Pass_16_mmx        0047abf3     libxvidcore:qpel_mmx.obj
 0003:0001546d       _xvid_V_Pass_Avrg_16_mmx   0047b46d     libxvidcore:qpel_mmx.obj
 0003:00015ea5       _xvid_V_Pass_Avrg_Up_16_mmx 0047bea5     libxvidcore:qpel_mmx.obj
 0003:000168dd       _xvid_V_Pass_8_mmx         0047c8dd     libxvidcore:qpel_mmx.obj
 0003:00016cd3       _xvid_V_Pass_Avrg_8_mmx    0047ccd3     libxvidcore:qpel_mmx.obj
 0003:000171af       _xvid_V_Pass_Avrg_Up_8_mmx 0047d1af     libxvidcore:qpel_mmx.obj
 0003:0001768b       _xvid_V_Pass_Add_16_mmx    0047d68b     libxvidcore:qpel_mmx.obj
 0003:000180e0       _xvid_V_Pass_Avrg_Add_16_mmx 0047e0e0     libxvidcore:qpel_mmx.obj
 0003:00018ce8       _xvid_V_Pass_Avrg_Up_Add_16_mmx 0047ece8     libxvidcore:qpel_mmx.obj
 0003:000198f0       _xvid_V_Pass_8_Add_mmx     0047f8f0     libxvidcore:qpel_mmx.obj
 0003:00019dd9       _xvid_V_Pass_Avrg_8_Add_mmx 0047fdd9     libxvidcore:qpel_mmx.obj
 0003:0001a39d       _xvid_V_Pass_Avrg_Up_8_Add_mmx 0048039d     libxvidcore:qpel_mmx.obj
 0003:0001a970       _xvid_GMC_Core_Lin_8_mmx   00480970     libxvidcore:gmc_mmx.obj
 0003:0001aa70       _xvid_GMC_Core_Lin_8_sse2  00480a70     libxvidcore:gmc_mmx.obj
 0003:0001ab30       _xvid_GMC_Core_Lin_8_sse41 00480b30     libxvidcore:gmc_mmx.obj
 0003:0001abe0       _xvid_deinterlace_sse      00480be0     libxvidcore:deintl_sse.obj
 0004:00000000       ??_7AMRAudioRTPSink@@6B@   00481000     AMRAudioRTPSink.obj
 0004:0000005c       ??_7AMRAudioSource@@6B@    0048105c     AMRAudioSource.obj
 0004:000000b4       ??_7AudioRTPSink@@6B@      004810b4     AudioRTPSink.obj
 0004:00000110       ??_7BasicHashTable@@6B@    00481110     BasicHashTable.obj
 0004:00000124       ??_7Iterator@BasicHashTable@@6B@ 00481124     BasicHashTable.obj
 0004:0000012c       ??_7BasicTaskScheduler0@@6B@ 0048112c     BasicTaskScheduler0.obj
 0004:0000014c       ??_7AlarmHandler@@6B@      0048114c     BasicTaskScheduler0.obj
 0004:00000154       ??_7HandlerDescriptor@@6B@ 00481154     BasicTaskScheduler0.obj
 0004:00000158       ??_7HandlerSet@@6B@        00481158     BasicTaskScheduler0.obj
 0004:0000015c       ??_7HandlerIterator@@6B@   0048115c     BasicTaskScheduler0.obj
 0004:00000160       ??_7BasicTaskScheduler@@6B@ 00481160     BasicTaskScheduler.obj
 0004:00000180       ??_7BasicUDPSink@@6B@      00481180     BasicUDPSink.obj
 0004:000001b4       ??_7BasicUsageEnvironment0@@6B@ 004811b4     BasicUsageEnvironment0.obj
 0004:000001ec       ??_7BasicUsageEnvironment@@6B@ 004811ec     BasicUsageEnvironment.obj
 0004:00000224       ??_7DelayQueueEntry@@6B@   00481224     DelayQueue.obj
 0004:0000022c       ??_7DelayQueue@@6B@        0048122c     DelayQueue.obj
 0004:00000234       ??_7Authenticator@@6B@     00481234     DigestAuthentication.obj
 0004:00000238       ??_7EncoderMediaSubsession@@6B@ 00481238     EncoderMediaSubsession.obj
 0004:0000029c       ??_7StreamState@@6B@       0048129c     EncoderMediaSubsession.obj
 0004:000002a0       __real@8@00000000000000000000 004812a0     EncoderMediaSubsession.obj
 0004:000002a8       ??_7EncoderVideoSource@@6B@ 004812a8     EncoderSource.obj
 0004:00000300       ??_7EncoderAudioSource@@6B@ 00481300     EncoderSource.obj
 0004:00000358       ??_7FramedSource@@6B@      00481358     FramedSource.obj
 0004:000003b0       ??_7OutputSocket@@6B@      004813b0     Groupsock.obj
 0004:000003b8       ??_7destRecord@@6B@        004813b8     Groupsock.obj
 0004:000003bc       ??_7Groupsock@@6B@         004813bc     Groupsock.obj
 0004:000003c4       ??_7HashTable@@6B@         004813c4     HashTable.obj
 0004:000003d8       ??_7Iterator@HashTable@@6B@ 004813d8     HashTable.obj
 0004:000003e0       ??_7Locale@@6B@            004813e0     Locale.obj
 0004:000003e4       ??_7Medium@@6B@            004813e4     Media.obj
 0004:00000408       ??_7_Tables@@6B@           00481408     Media.obj
 0004:0000040c       ??_7MediaLookupTable@@6B@  0048140c     Media.obj
 0004:00000410       ??_7MediaSink@@6B@         00481410     MediaSink.obj
 0004:00000444       ??_7MediaSource@@6B@       00481444     MediaSource.obj
 0004:00000490       ??_7MPEG4ESVideoRTPSink@@6B@ 00481490     MPEG4ESVideoRTPSink.obj
 0004:000004f0       __real@8@4012f424000000000000 004814f0     MPEGVideoStreamFramer.obj
 0004:000004f8       __real@8@3fff8000000000000000 004814f8     MPEGVideoStreamFramer.obj
 0004:00000500       ??_7MultiFramedRTPSink@@6B@ 00481500     MultiFramedRTPSink.obj
 0004:0000055c       ??_7AddressPortLookupTable@@6B@ 0048155c     NetAddress.obj
 0004:00000560       ??_7Iterator@AddressPortLookupTable@@6B@ 00481560     NetAddress.obj
 0004:00000564       ??_7NetInterface@@6B@      00481564     NetInterface.obj
 0004:00000568       ??_7DirectedNetInterfaceSet@@6B@ 00481568     NetInterface.obj
 0004:0000056c       ??_7Iterator@DirectedNetInterfaceSet@@6B@ 0048156c     NetInterface.obj
 0004:00000570       ??_7Socket@@6B@            00481570     NetInterface.obj
 0004:00000590       ??_7RTCPMemberDatabase@@6B@ 00481590     RTCP.obj
 0004:00000594       ??_7RTCPInstance@@6B@      00481594     RTCP.obj
 0004:000005b8       __real@8@3feb8637bd05af6c6800 004815b8     RTCP.obj
 0004:000005c0       __real@8@3ffe8000000000000000 004815c0     RTCP.obj
 0004:000005c8       __real@8@40198000000000000000 004815c8     RTCP.obj
 0004:000005d0       __real@8@3ff18637bd05af6c6800 004815d0     RTCP.obj
 0004:000005d8       __real@8@4001ccccccccccccd000 004815d8     RTCP.obj
 0004:000005e0       __real@8@3fe18000000000000000 004815e0     RTCP.obj
 0004:000005e8       __real@8@3ffed221df92878b3000 004815e8     rtcp_from_spec.obj
 0004:000005f0       __real@8@3ffec000000000000000 004815f0     rtcp_from_spec.obj
 0004:000005f8       __real@8@3ffd8000000000000000 004815f8     rtcp_from_spec.obj
 0004:00000600       __real@8@4000a000000000000000 00481600     rtcp_from_spec.obj
 0004:00000608       __real@8@4001a000000000000000 00481608     rtcp_from_spec.obj
 0004:00000610       __real@8@3ffef000000000000000 00481610     rtcp_from_spec.obj
 0004:00000618       __real@8@3ffb8000000000000000 00481618     rtcp_from_spec.obj
 0004:00000620       ??_7RTPInterface@@6B@      00481620     RTPInterface.obj
 0004:00000624       ??_7SocketDescriptor@@6B@  00481624     RTPInterface.obj
 0004:00000628       ??_7tcpStreamRecord@@6B@   00481628     RTPInterface.obj
 0004:0000062c       ??_7RTPSink@@6B@           0048162c     RTPSink.obj
 0004:00000670       __real@8@bfea8637bd05af6c6800 00481670     RTPSink.obj
 0004:00000678       ??_7RTPTransmissionStatsDB@@6B@ 00481678     RTPSink.obj
 0004:0000067c       ??_7RTPTransmissionStats@@6B@ 0048167c     RTPSink.obj
 0004:00000680       ??_7Iterator@RTPReceptionStatsDB@@6B@ 00481680     RTPSource.obj
 0004:00000684       ??_7RTPReceptionStats@@6B@ 00481684     RTPSource.obj
 0004:00000688       __real@8@3fe58000000000000000 00481688     RTPSource.obj
 0004:00000690       __real@8@400cf424000000000000 00481690     RTPSource.obj
 0004:00000698       ??_7RTSPEncoderSession@RTSPServer@@6B@ 00481698     RTSPEncoderSession.obj
 0004:000006f8       ??_7RTSPServer@@6B@        004816f8     RTSPServer.obj
 0004:0000072c       ??_7RTSPClientSession@RTSPServer@@6B@ 0048172c     RTSPServer.obj
 0004:00000780       ??_7ServerMediaSession@@6B@ 00481780     ServerMediaSession.obj
 0004:000007a4       __real@4@3fff8000000000000000 004817a4     ServerMediaSession.obj
 0004:000007a8       ??_7ServerMediaSubsessionIterator@@6B@ 004817a8     ServerMediaSession.obj
 0004:000007ac       ??_7ServerMediaSubsession@@6B@ 004817ac     ServerMediaSession.obj
 0004:000007f4       __real@4@00000000000000000000 004817f4     ServerMediaSession.obj
 0004:000007f8       ??_7UsageEnvironment@@6B@  004817f8     UsageEnvironment.obj
 0004:00000830       ??_7TaskScheduler@@6B@     00481830     UsageEnvironment.obj
 0004:0000084c       ??_7VideoRTPSink@@6B@      0048184c     VideoRTPSink.obj
 0004:000008d8       __real@8@bfff8000000000000000 004818d8     libxvidcore:plugin_2pass2.obj
 0004:000008e0       __real@8@bff8a3d70a3d70a3d800 004818e0     libxvidcore:plugin_2pass2.obj
 0004:000008e8       __real@4@3ff8a3d70a3d70a3d800 004818e8     libxvidcore:plugin_2pass2.obj
 0004:000008f0       __real@8@3ff8a3d70a3d70a3d800 004818f0     libxvidcore:plugin_2pass2.obj
 0004:000008f8       __real@4@40028000000000000000 004818f8     libxvidcore:plugin_2pass2.obj
 0004:000008fc       __real@4@4000c000000000000000 004818fc     libxvidcore:plugin_2pass2.obj
 0004:00000900       __real@4@3ffc8000000000000000 00481900     libxvidcore:plugin_2pass2.obj
 0004:00000904       __real@4@3ff58000000000000000 00481904     libxvidcore:plugin_2pass2.obj
 0004:00000908       __real@8@3ffee666666666666800 00481908     libxvidcore:plugin_2pass2.obj
 0004:00000910       __real@4@3ffbcccccd0000000000 00481910     libxvidcore:plugin_2pass2.obj
 0004:00000918       __real@8@40008000000000000000 00481918     libxvidcore:plugin_single.obj
 0004:00000920       __real@8@3ffb84230fcf80dc3000 00481920     libxvidcore:plugin_single.obj
 0004:00000928       __real@8@3ffbccccccccccccd000 00481928     libxvidcore:plugin_single.obj
 0004:00000ed0       __real@8@4000c000000000000000 00481ed0     libxvidcore:postprocessing.obj
 0004:00001ae8       _coeff_tab                 00482ae8     libxvidcore:mbcoding.obj
 0004:00002478       _max_level                 00483478     libxvidcore:mbcoding.obj
 0004:00002578       _max_run                   00483578     libxvidcore:mbcoding.obj
 0004:00002678       _xvid_cbpy_tab             00483678     libxvidcore:mbcoding.obj
 0004:000026f8       _dcy_tab                   004836f8     libxvidcore:mbcoding.obj
 0004:000036f0       _dcc_tab                   004846f0     libxvidcore:mbcoding.obj
 0004:000046e8       _mb_motion_table           004856e8     libxvidcore:mbcoding.obj
 0004:000048f0       _mcbpc_intra_table         004858f0     libxvidcore:mbcoding.obj
 0004:00004af0       _mcbpc_inter_table         00485af0     libxvidcore:mbcoding.obj
 0004:000052f8       _cbpy_table                004862f8     libxvidcore:mbcoding.obj
 0004:000054f8       _TMNMVtab0                 004864f8     libxvidcore:mbcoding.obj
 0004:00005568       _TMNMVtab1                 00486568     libxvidcore:mbcoding.obj
 0004:00005868       _TMNMVtab2                 00486868     libxvidcore:mbcoding.obj
 0004:00005c48       _dc_threshold              00486c48     libxvidcore:mbcoding.obj
 0004:00005cc8       _dc_lum_tab                00486cc8     libxvidcore:mbcoding.obj
 0004:00005d58       __real@4@40058000000000000000 00486d58     libxvidcore:encoder.obj
 0004:00005d5c       __real@4@3ff78080808080808000 00486d5c     libxvidcore:encoder.obj
 0004:00005d60       __real@8@40018000000000000000 00486d60     libxvidcore:encoder.obj
 0004:000068ac       _roundtab                  004878ac     libxvidcore:estimation_common.obj
 0004:000068ec       _roundtab_76               004878ec     libxvidcore:estimation_common.obj
 0004:0000692c       _roundtab_78               0048792c     libxvidcore:estimation_common.obj
 0004:0000694c       _roundtab_79               0048794c     libxvidcore:estimation_common.obj
 0004:0000695c       _xvid_me_lambda_vec16      0048795c     libxvidcore:estimation_common.obj
 0004:0000759c       ??_C@_07PCLE@LC_TIME?$AA@  0048859c     LIBC:setlocal.obj
 0004:000075a4       ??_C@_0L@NKG@LC_NUMERIC?$AA@ 004885a4     LIBC:setlocal.obj
 0004:000075b0       ??_C@_0M@CBIH@LC_MONETARY?$AA@ 004885b0     LIBC:setlocal.obj
 0004:000075bc       ??_C@_08LFGE@LC_CTYPE?$AA@ 004885bc     LIBC:setlocal.obj
 0004:000075c8       ??_C@_0L@CFLC@LC_COLLATE?$AA@ 004885c8     LIBC:setlocal.obj
 0004:000075d4       ??_C@_06GCPK@LC_ALL?$AA@   004885d4     LIBC:setlocal.obj
 0004:000075dc       ??_C@_01FAJB@?$DL?$AA@     004885dc     LIBC:setlocal.obj
 0004:000075e0       ??_C@_02BGDO@?$DN?$DL?$AA@ 004885e0     LIBC:setlocal.obj
 0004:000075e4       ??_C@_03DBOJ@_?4?0?$AA@    004885e4     LIBC:setlocal.obj
 0004:000075e8       ??_C@_01PJCK@?4?$AA@       004885e8     LIBC:setlocal.obj
 0004:000075ec       ??_C@_01NON@_?$AA@         004885ec     LIBC:setlocal.obj
 0004:000075f0       ??_C@_07CJME@H?3mm?3ss?$AA@ 004885f0     LIBC:strftime.obj
 0004:000075f8       ??_C@_0BE@MHI@dddd?0?5MMMM?5dd?0?5yyyy?$AA@ 004885f8     LIBC:strftime.obj
 0004:0000760c       ??_C@_06HCAD@M?1d?1yy?$AA@ 0048860c     LIBC:strftime.obj
 0004:00007614       ??_C@_02DBLP@PM?$AA@       00488614     LIBC:strftime.obj
 0004:00007618       ??_C@_02ENLM@AM?$AA@       00488618     LIBC:strftime.obj
 0004:0000761c       ??_C@_08LIDF@December?$AA@ 0048861c     LIBC:strftime.obj
 0004:00007628       ??_C@_08NJLI@November?$AA@ 00488628     LIBC:strftime.obj
 0004:00007634       ??_C@_07IAMM@October?$AA@  00488634     LIBC:strftime.obj
 0004:0000763c       ??_C@_09MKGD@September?$AA@ 0048863c     LIBC:strftime.obj
 0004:00007648       ??_C@_06PADP@August?$AA@   00488648     LIBC:strftime.obj
 0004:00007650       ??_C@_04PIJO@July?$AA@     00488650     LIBC:strftime.obj
 0004:00007658       ??_C@_04ICFP@June?$AA@     00488658     LIBC:strftime.obj
 0004:00007660       ??_C@_05JFGC@April?$AA@    00488660     LIBC:strftime.obj
 0004:00007668       ??_C@_05FGPD@March?$AA@    00488668     LIBC:strftime.obj
 0004:00007670       ??_C@_08PGBA@February?$AA@ 00488670     LIBC:strftime.obj
 0004:0000767c       ??_C@_07BPKJ@January?$AA@  0048867c     LIBC:strftime.obj
 0004:00007684       ??_C@_03PGJO@Dec?$AA@      00488684     LIBC:strftime.obj
 0004:00007688       ??_C@_03PDLM@Nov?$AA@      00488688     LIBC:strftime.obj
 0004:0000768c       ??_C@_03BLHK@Oct?$AA@      0048868c     LIBC:strftime.obj
 0004:00007690       ??_C@_03DPFM@Sep?$AA@      00488690     LIBC:strftime.obj
 0004:00007694       ??_C@_03CMCH@Aug?$AA@      00488694     LIBC:strftime.obj
 0004:00007698       ??_C@_03OBKI@Jul?$AA@      00488698     LIBC:strftime.obj
 0004:0000769c       ??_C@_03LEIG@Jun?$AA@      0048869c     LIBC:strftime.obj
 0004:000076a0       ??_C@_03MGHB@May?$AA@      004886a0     LIBC:strftime.obj
 0004:000076a4       ??_C@_03MJJM@Apr?$AA@      004886a4     LIBC:strftime.obj
 0004:000076a8       ??_C@_03GNHA@Mar?$AA@      004886a8     LIBC:strftime.obj
 0004:000076ac       ??_C@_03PICE@Feb?$AA@      004886ac     LIBC:strftime.obj
 0004:000076b0       ??_C@_03IEIF@Jan?$AA@      004886b0     LIBC:strftime.obj
 0004:000076b4       ??_C@_08FAKH@Saturday?$AA@ 004886b4     LIBC:strftime.obj
 0004:000076c0       ??_C@_06ONCK@Friday?$AA@   004886c0     LIBC:strftime.obj
 0004:000076c8       ??_C@_08CCFO@Thursday?$AA@ 004886c8     LIBC:strftime.obj
 0004:000076d4       ??_C@_09PBIN@Wednesday?$AA@ 004886d4     LIBC:strftime.obj
 0004:000076e0       ??_C@_07BMBC@Tuesday?$AA@  004886e0     LIBC:strftime.obj
 0004:000076e8       ??_C@_06CHLK@Monday?$AA@   004886e8     LIBC:strftime.obj
 0004:000076f0       ??_C@_06OOEM@Sunday?$AA@   004886f0     LIBC:strftime.obj
 0004:000076f8       ??_C@_03MPKK@Sat?$AA@      004886f8     LIBC:strftime.obj
 0004:000076fc       ??_C@_03FINJ@Fri?$AA@      004886fc     LIBC:strftime.obj
 0004:00007700       ??_C@_03HIKC@Thu?$AA@      00488700     LIBC:strftime.obj
 0004:00007704       ??_C@_03HECK@Wed?$AA@      00488704     LIBC:strftime.obj
 0004:00007708       ??_C@_03ECCP@Tue?$AA@      00488708     LIBC:strftime.obj
 0004:0000770c       ??_C@_03PIEP@Mon?$AA@      0048870c     LIBC:strftime.obj
 0004:00007710       ??_C@_03FHEP@Sun?$AA@      00488710     LIBC:strftime.obj
 0004:00007714       ??_C@_03MKGK@a?1p?$AA@     00488714     LIBC:strftime.obj
 0004:00007718       ??_C@_05BDJK@am?1pm?$AA@   00488718     LIBC:strftime.obj
 0004:000077c8       ___lookuptable             004887c8     LIBC:output.obj
 0004:00007824       ??_C@_1O@POHA@?$AA?$CI?$AAn?$AAu?$AAl?$AAl?$AA?$CJ?$AA?$AA@ 00488824     LIBC:output.obj
 0004:00007834       ??_C@_06ONKE@?$CInull?$CJ?$AA@ 00488834     LIBC:output.obj
 0004:0000783c       ??_C@_0P@GGKG@runtime?5error?5?$AA@ 0048883c     LIBC:crt0msg.obj
 0004:0000784c       ??_C@_0O@DELO@TLOSS?5error?$AN?6?$AA@ 0048884c     LIBC:crt0msg.obj
 0004:0000785c       ??_C@_0N@OMLL@SING?5error?$AN?6?$AA@ 0048885c     LIBC:crt0msg.obj
 0004:0000786c       ??_C@_0P@OJAK@DOMAIN?5error?$AN?6?$AA@ 0048886c     LIBC:crt0msg.obj
 0004:0000787c       ??_C@_0CF@EANP@R6028?$AN?6?9?5unable?5to?5initialize?5he@ 0048887c     LIBC:crt0msg.obj
 0004:000078a4       ??_C@_0DF@ECGN@R6027?$AN?6?9?5not?5enough?5space?5for?5lo@ 004888a4     LIBC:crt0msg.obj
 0004:000078dc       ??_C@_0DF@FKAC@R6026?$AN?6?9?5not?5enough?5space?5for?5st@ 004888dc     LIBC:crt0msg.obj
 0004:00007914       ??_C@_0CG@DPMN@R6025?$AN?6?9?5pure?5virtual?5function?5c@ 00488914     LIBC:crt0msg.obj
 0004:0000793c       ??_C@_0DF@CKIP@R6024?$AN?6?9?5not?5enough?5space?5for?5_o@ 0048893c     LIBC:crt0msg.obj
 0004:00007974       ??_C@_0CJ@GGOE@R6019?$AN?6?9?5unable?5to?5open?5console?5@ 00488974     LIBC:crt0msg.obj
 0004:000079a0       ??_C@_0CB@LBOB@R6018?$AN?6?9?5unexpected?5heap?5error?$AN?6@ 004889a0     LIBC:crt0msg.obj
 0004:000079c4       ??_C@_0CN@FPEG@R6017?$AN?6?9?5unexpected?5multithread?5@ 004889c4     LIBC:crt0msg.obj
 0004:000079f4       ??_C@_0CM@OBIC@R6016?$AN?6?9?5not?5enough?5space?5for?5th@ 004889f4     LIBC:crt0msg.obj
 0004:00007a20       ??_C@_0CB@HPAL@?$AN?6abnormal?5program?5termination?$AN?6@ 00488a20     LIBC:crt0msg.obj
 0004:00007a44       ??_C@_0CM@JOOB@R6009?$AN?6?9?5not?5enough?5space?5for?5en@ 00488a44     LIBC:crt0msg.obj
 0004:00007a70       ??_C@_0CK@OIBL@R6008?$AN?6?9?5not?5enough?5space?5for?5ar@ 00488a70     LIBC:crt0msg.obj
 0004:00007a9c       ??_C@_0CF@LKPB@R6002?$AN?6?9?5floating?5point?5not?5load@ 00488a9c     LIBC:crt0msg.obj
 0004:00007ac4       ??_C@_0CF@JPDF@Microsoft?5Visual?5C?$CL?$CL?5Runtime?5Lib@ 00488ac4     LIBC:crt0msg.obj
 0004:00007aec       ??_C@_02JJJH@?6?6?$AA@     00488aec     LIBC:crt0msg.obj
 0004:00007af0       ??_C@_0BK@DEOK@Runtime?5Error?$CB?6?6Program?3?5?$AA@ 00488af0     LIBC:crt0msg.obj
 0004:00007b0c       ??_C@_03NAME@?4?4?4?$AA@   00488b0c     LIBC:crt0msg.obj
 0004:00007b10       ??_C@_0BH@NNCD@?$DMprogram?5name?5unknown?$DO?$AA@ 00488b10     LIBC:crt0msg.obj
 0004:00007b28       ??_C@_0BG@JPLP@Illegal?5byte?5sequence?$AA@ 00488b28     LIBC:syserr.obj
 0004:00007b40       ??_C@_0BE@FLBN@Directory?5not?5empty?$AA@ 00488b40     LIBC:syserr.obj
 0004:00007b54       ??_C@_0BJ@KAFL@Function?5not?5implemented?$AA@ 00488b54     LIBC:syserr.obj
 0004:00007b70       ??_C@_0BD@CEML@No?5locks?5available?$AA@ 00488b70     LIBC:syserr.obj
 0004:00007b84       ??_C@_0BC@GADJ@Filename?5too?5long?$AA@ 00488b84     LIBC:syserr.obj
 0004:00007b98       ??_C@_0BK@FNFN@Resource?5deadlock?5avoided?$AA@ 00488b98     LIBC:syserr.obj
 0004:00007bb4       ??_C@_0BB@EALI@Result?5too?5large?$AA@ 00488bb4     LIBC:syserr.obj
 0004:00007bc8       ??_C@_0N@FIAN@Domain?5error?$AA@ 00488bc8     LIBC:syserr.obj
 0004:00007bd8       ??_C@_0M@CLKF@Broken?5pipe?$AA@ 00488bd8     LIBC:syserr.obj
 0004:00007be4       ??_C@_0P@OFDM@Too?5many?5links?$AA@ 00488be4     LIBC:syserr.obj
 0004:00007bf4       ??_C@_0BG@OHDM@Read?9only?5file?5system?$AA@ 00488bf4     LIBC:syserr.obj
 0004:00007c0c       ??_C@_0N@NGPA@Invalid?5seek?$AA@ 00488c0c     LIBC:syserr.obj
 0004:00007c1c       ??_C@_0BI@DMFE@No?5space?5left?5on?5device?$AA@ 00488c1c     LIBC:syserr.obj
 0004:00007c34       ??_C@_0P@OPNK@File?5too?5large?$AA@ 00488c34     LIBC:syserr.obj
 0004:00007c44       ??_C@_0CE@BADJ@Inappropriate?5I?1O?5control?5operat@ 00488c44     LIBC:syserr.obj
 0004:00007c68       ??_C@_0BE@COOK@Too?5many?5open?5files?$AA@ 00488c68     LIBC:syserr.obj
 0004:00007c7c       ??_C@_0BO@ELHF@Too?5many?5open?5files?5in?5system?$AA@ 00488c7c     LIBC:syserr.obj
 0004:00007c9c       ??_C@_0BB@IHAB@Invalid?5argument?$AA@ 00488c9c     LIBC:syserr.obj
 0004:00007cb0       ??_C@_0P@NDNC@Is?5a?5directory?$AA@ 00488cb0     LIBC:syserr.obj
 0004:00007cc0       ??_C@_0BA@JMMO@Not?5a?5directory?$AA@ 00488cc0     LIBC:syserr.obj
 0004:00007cd0       ??_C@_0P@GFAI@No?5such?5device?$AA@ 00488cd0     LIBC:syserr.obj
 0004:00007ce0       ??_C@_0O@KHHM@Improper?5link?$AA@ 00488ce0     LIBC:syserr.obj
 0004:00007cf0       ??_C@_0M@EPHJ@File?5exists?$AA@ 00488cf0     LIBC:syserr.obj
 0004:00007cfc       ??_C@_0BA@LPOH@Resource?5device?$AA@ 00488cfc     LIBC:syserr.obj
 0004:00007d0c       ??_C@_0O@NOFB@Unknown?5error?$AA@ 00488d0c     LIBC:syserr.obj
 0004:00007d1c       ??_C@_0M@MLJM@Bad?5address?$AA@ 00488d1c     LIBC:syserr.obj
 0004:00007d28       ??_C@_0BC@DJON@Permission?5denied?$AA@ 00488d28     LIBC:syserr.obj
 0004:00007d3c       ??_C@_0BB@KDDC@Not?5enough?5space?$AA@ 00488d3c     LIBC:syserr.obj
 0004:00007d50       ??_C@_0CB@BBBH@Resource?5temporarily?5unavailable@ 00488d50     LIBC:syserr.obj
 0004:00007d74       ??_C@_0BD@ODIH@No?5child?5processes?$AA@ 00488d74     LIBC:syserr.obj
 0004:00007d88       ??_C@_0BE@CDDH@Bad?5file?5descriptor?$AA@ 00488d88     LIBC:syserr.obj
 0004:00007d9c       ??_C@_0BC@BICL@Exec?5format?5error?$AA@ 00488d9c     LIBC:syserr.obj
 0004:00007db0       ??_C@_0BC@IGMC@Arg?5list?5too?5long?$AA@ 00488db0     LIBC:syserr.obj
 0004:00007dc4       ??_C@_0BK@HLB@No?5such?5device?5or?5address?$AA@ 00488dc4     LIBC:syserr.obj
 0004:00007de0       ??_C@_0BD@MPKK@Input?1output?5error?$AA@ 00488de0     LIBC:syserr.obj
 0004:00007df4       ??_C@_0BK@ODCM@Interrupted?5function?5call?$AA@ 00488df4     LIBC:syserr.obj
 0004:00007e10       ??_C@_0BA@BPKN@No?5such?5process?$AA@ 00488e10     LIBC:syserr.obj
 0004:00007e20       ??_C@_0BK@IEMO@No?5such?5file?5or?5directory?$AA@ 00488e20     LIBC:syserr.obj
 0004:00007e3c       ??_C@_0BI@IIAE@Operation?5not?5permitted?$AA@ 00488e3c     LIBC:syserr.obj
 0004:00007e54       ??_C@_08KKBH@No?5error?$AA@ 00488e54     LIBC:syserr.obj
 0004:00007e60       __real@8@4015800bf60000000000 00488e60     LIBC:testfdiv.obj
 0004:00007e68       __real@8@4014bffffc0000000000 00488e68     LIBC:testfdiv.obj
 0004:00007e70       ??_C@_0BK@JEGK@IsProcessorFeaturePresent?$AA@ 00488e70     LIBC:testfdiv.obj
 0004:00007e8c       ??_C@_08OBID@KERNEL32?$AA@ 00488e8c     LIBC:testfdiv.obj
 0004:00007e98       ??_C@_05OFLO@e?$CL000?$AA@ 00488e98     LIBC:cvt.obj
 0004:00007ea0       ??_C@_0BH@PHHF@__GLOBAL_HEAP_SELECTED?$AA@ 00488ea0     LIBC:heapinit.obj
 0004:00007eb8       ??_C@_0BF@BBGL@__MSVCRT_HEAP_SELECT?$AA@ 00488eb8     LIBC:heapinit.obj
 0004:00007ed0       ??_C@_08OBJD@Paraguay?$AA@ 00488ed0     LIBC:getqloc.obj
 0004:00007edc       ??_C@_07GLKH@Uruguay?$AA@  00488edc     LIBC:getqloc.obj
 0004:00007ee4       ??_C@_05FPFC@Chile?$AA@    00488ee4     LIBC:getqloc.obj
 0004:00007eec       ??_C@_07IIGF@Ecuador?$AA@  00488eec     LIBC:getqloc.obj
 0004:00007ef4       ??_C@_09PKAL@Argentina?$AA@ 00488ef4     LIBC:getqloc.obj
 0004:00007f00       ??_C@_04LKAH@Peru?$AA@     00488f00     LIBC:getqloc.obj
 0004:00007f08       ??_C@_08NEEM@Colombia?$AA@ 00488f08     LIBC:getqloc.obj
 0004:00007f14       ??_C@_09ODEB@Venezuela?$AA@ 00488f14     LIBC:getqloc.obj
 0004:00007f20       ??_C@_0BD@CLEL@Dominican?5Republic?$AA@ 00488f20     LIBC:getqloc.obj
 0004:00007f34       ??_C@_0N@MDGL@South?5Africa?$AA@ 00488f34     LIBC:getqloc.obj
 0004:00007f44       ??_C@_06NKBG@Panama?$AA@   00488f44     LIBC:getqloc.obj
 0004:00007f4c       ??_C@_0L@BMHO@Luxembourg?$AA@ 00488f4c     LIBC:getqloc.obj
 0004:00007f58       ??_C@_0L@IMDK@Costa?5Rica?$AA@ 00488f58     LIBC:getqloc.obj
 0004:00007f64       ??_C@_0M@BLJF@Switzerland?$AA@ 00488f64     LIBC:getqloc.obj
 0004:00007f70       ??_C@_09KBOL@Guatemala?$AA@ 00488f70     LIBC:getqloc.obj
 0004:00007f7c       ??_C@_06JNAK@Canada?$AA@   00488f7c     LIBC:getqloc.obj
 0004:00007f84       ??_C@_0BG@OLLP@Spanish?5?9?5Modern?5Sort?$AA@ 00488f84     LIBC:getqloc.obj
 0004:00007f9c       ??_C@_09IDKE@Australia?$AA@ 00488f9c     LIBC:getqloc.obj
 0004:00007fa8       ??_C@_07JJJJ@English?$AA@  00488fa8     LIBC:getqloc.obj
 0004:00007fb0       ??_C@_07NMDO@Austria?$AA@  00488fb0     LIBC:getqloc.obj
 0004:00007fb8       ??_C@_06DEFE@German?$AA@   00488fb8     LIBC:getqloc.obj
 0004:00007fc0       ??_C@_07JAIH@Belgium?$AA@  00488fc0     LIBC:getqloc.obj
 0004:00007fc8       ??_C@_06BNLJ@Mexico?$AA@   00488fc8     LIBC:getqloc.obj
 0004:00007fd0       ??_C@_07JHAG@Spanish?$AA@  00488fd0     LIBC:getqloc.obj
 0004:00007fd8       ??_C@_06DADE@Basque?$AA@   00488fd8     LIBC:getqloc.obj
 0004:00007fe0       ??_C@_06ENFP@Sweden?$AA@   00488fe0     LIBC:getqloc.obj
 0004:00007fe8       ??_C@_07JPMH@Swedish?$AA@  00488fe8     LIBC:getqloc.obj
 0004:00007ff0       ??_C@_07IEKF@Iceland?$AA@  00488ff0     LIBC:getqloc.obj
 0004:00007ff8       ??_C@_09KNEA@Icelandic?$AA@ 00488ff8     LIBC:getqloc.obj
 0004:00008004       ??_C@_06IJOD@France?$AA@   00489004     LIBC:getqloc.obj
 0004:0000800c       ??_C@_06EINI@French?$AA@   0048900c     LIBC:getqloc.obj
 0004:00008014       ??_C@_07FOOE@Finland?$AA@  00489014     LIBC:getqloc.obj
 0004:0000801c       ??_C@_07OJOM@Finnish?$AA@  0048901c     LIBC:getqloc.obj
 0004:00008024       ??_C@_05FFAC@Spain?$AA@    00489024     LIBC:getqloc.obj
 0004:0000802c       ??_C@_0BL@BIHM@Spanish?5?9?5Traditional?5Sort?$AA@ 0048902c     LIBC:getqloc.obj
 0004:00008048       ??_C@_0O@GLHB@united?9states?$AA@ 00489048     LIBC:getqloc.obj
 0004:00008058       ??_C@_0P@IIKK@united?9kingdom?$AA@ 00489058     LIBC:getqloc.obj
 0004:00008068       ??_C@_0BC@FHBO@trinidad?5?$CG?5tobago?$AA@ 00489068     LIBC:getqloc.obj
 0004:0000807c       ??_C@_0M@BDFM@south?9korea?$AA@ 0048907c     LIBC:getqloc.obj
 0004:00008088       ??_C@_0N@CKFA@south?9africa?$AA@ 00489088     LIBC:getqloc.obj
 0004:00008098       ??_C@_0M@HNHN@south?5korea?$AA@ 00489098     LIBC:getqloc.obj
 0004:000080a4       ??_C@_0N@MKDO@south?5africa?$AA@ 004890a4     LIBC:getqloc.obj
 0004:000080b4       ??_C@_06KFFJ@slovak?$AA@   004890b4     LIBC:getqloc.obj
 0004:000080bc       ??_C@_0M@NMAC@puerto?9rico?$AA@ 004890bc     LIBC:getqloc.obj
 0004:000080c8       ??_C@_08EJOH@pr?9china?$AA@ 004890c8     LIBC:getqloc.obj
 0004:000080d4       ??_C@_08CHMG@pr?5china?$AA@ 004890d4     LIBC:getqloc.obj
 0004:000080e0       ??_C@_02OCJK@nz?$AA@       004890e0     LIBC:getqloc.obj
 0004:000080e4       ??_C@_0M@MMKA@new?9zealand?$AA@ 004890e4     LIBC:getqloc.obj
 0004:000080f0       ??_C@_09MGEH@hong?9kong?$AA@ 004890f0     LIBC:getqloc.obj
 0004:000080fc       ??_C@_07CCAK@holland?$AA@  004890fc     LIBC:getqloc.obj
 0004:00008104       ??_C@_0O@MEPL@great?5britain?$AA@ 00489104     LIBC:getqloc.obj
 0004:00008114       ??_C@_07LGIB@england?$AA@  00489114     LIBC:getqloc.obj
 0004:0000811c       ??_C@_05BMOA@czech?$AA@    0048911c     LIBC:getqloc.obj
 0004:00008124       ??_C@_05NMPB@china?$AA@    00489124     LIBC:getqloc.obj
 0004:0000812c       ??_C@_07GN@britain?$AA@    0048912c     LIBC:getqloc.obj
 0004:00008134       ??_C@_07DLAK@america?$AA@  00489134     LIBC:getqloc.obj
 0004:0000813c       ??_C@_03IPEP@usa?$AA@      0048913c     LIBC:getqloc.obj
 0004:00008140       ??_C@_02PILH@us?$AA@       00489140     LIBC:getqloc.obj
 0004:00008144       ??_C@_02FHP@uk?$AA@        00489144     LIBC:getqloc.obj
 0004:00008148       ??_C@_05DEAI@swiss?$AA@    00489148     LIBC:getqloc.obj
 0004:00008150       ??_C@_0BA@LIAF@swedish?9finland?$AA@ 00489150     LIBC:getqloc.obj
 0004:00008160       ??_C@_0BC@FMEG@spanish?9venezuela?$AA@ 00489160     LIBC:getqloc.obj
 0004:00008174       ??_C@_0BA@BNMG@spanish?9uruguay?$AA@ 00489174     LIBC:getqloc.obj
 0004:00008184       ??_C@_0BE@BKDJ@spanish?9puerto?5rico?$AA@ 00489184     LIBC:getqloc.obj
 0004:00008198       ??_C@_0N@JIBL@spanish?9peru?$AA@ 00489198     LIBC:getqloc.obj
 0004:000081a8       ??_C@_0BB@OGOF@spanish?9paraguay?$AA@ 004891a8     LIBC:getqloc.obj
 0004:000081bc       ??_C@_0P@LLFA@spanish?9panama?$AA@ 004891bc     LIBC:getqloc.obj
 0004:000081cc       ??_C@_0BC@BBJM@spanish?9nicaragua?$AA@ 004891cc     LIBC:getqloc.obj
 0004:000081e0       ??_C@_0P@NJBN@spanish?9modern?$AA@ 004891e0     LIBC:getqloc.obj
 0004:000081f0       ??_C@_0BA@NHDN@spanish?9mexican?$AA@ 004891f0     LIBC:getqloc.obj
 0004:00008200       ??_C@_0BB@JHOJ@spanish?9honduras?$AA@ 00489200     LIBC:getqloc.obj
 0004:00008214       ??_C@_0BC@BOOM@spanish?9guatemala?$AA@ 00489214     LIBC:getqloc.obj
 0004:00008228       ??_C@_0BE@EELI@spanish?9el?5salvador?$AA@ 00489228     LIBC:getqloc.obj
 0004:0000823c       ??_C@_0BA@POAE@spanish?9ecuador?$AA@ 0048923c     LIBC:getqloc.obj
 0004:0000824c       ??_C@_0BL@LDKN@spanish?9dominican?5republic?$AA@ 0048924c     LIBC:getqloc.obj
 0004:00008268       ??_C@_0BD@HPMH@spanish?9costa?5rica?$AA@ 00489268     LIBC:getqloc.obj
 0004:0000827c       ??_C@_0BB@NDDK@spanish?9colombia?$AA@ 0048927c     LIBC:getqloc.obj
 0004:00008290       ??_C@_0O@BJHA@spanish?9chile?$AA@ 00489290     LIBC:getqloc.obj
 0004:000082a0       ??_C@_0BA@OBNG@spanish?9bolivia?$AA@ 004892a0     LIBC:getqloc.obj
 0004:000082b0       ??_C@_0BC@EFAM@spanish?9argentina?$AA@ 004892b0     LIBC:getqloc.obj
 0004:000082c4       ??_C@_0BF@KMMM@portuguese?9brazilian?$AA@ 004892c4     LIBC:getqloc.obj
 0004:000082dc       ??_C@_0BC@BAAE@norwegian?9nynorsk?$AA@ 004892dc     LIBC:getqloc.obj
 0004:000082f0       ??_C@_0BB@PBHK@norwegian?9bokmal?$AA@ 004892f0     LIBC:getqloc.obj
 0004:00008304       ??_C@_09EHKL@norwegian?$AA@ 00489304     LIBC:getqloc.obj
 0004:00008310       ??_C@_0O@BEAN@italian?9swiss?$AA@ 00489310     LIBC:getqloc.obj
 0004:00008320       ??_C@_0O@OIFK@irish?9english?$AA@ 00489320     LIBC:getqloc.obj
 0004:00008330       ??_C@_0N@NBPL@german?9swiss?$AA@ 00489330     LIBC:getqloc.obj
 0004:00008340       ??_C@_0BC@ICFJ@german?9luxembourg?$AA@ 00489340     LIBC:getqloc.obj
 0004:00008354       ??_C@_0BE@GGPC@german?9lichtenstein?$AA@ 00489354     LIBC:getqloc.obj
 0004:00008368       ??_C@_0BA@MKDC@german?9austrian?$AA@ 00489368     LIBC:getqloc.obj
 0004:00008378       ??_C@_0N@ODNB@french?9swiss?$AA@ 00489378     LIBC:getqloc.obj
 0004:00008388       ??_C@_0BC@MGCM@french?9luxembourg?$AA@ 00489388     LIBC:getqloc.obj
 0004:0000839c       ??_C@_0BA@NABK@french?9canadian?$AA@ 0048939c     LIBC:getqloc.obj
 0004:000083ac       ??_C@_0P@CJNO@french?9belgian?$AA@ 004893ac     LIBC:getqloc.obj
 0004:000083bc       ??_C@_0M@LJOL@english?9usa?$AA@ 004893bc     LIBC:getqloc.obj
 0004:000083c8       ??_C@_0L@FMNC@english?9us?$AA@ 004893c8     LIBC:getqloc.obj
 0004:000083d4       ??_C@_0L@KBBK@english?9uk?$AA@ 004893d4     LIBC:getqloc.obj
 0004:000083e0       ??_C@_0BK@NDDE@english?9trinidad?5y?5tobago?$AA@ 004893e0     LIBC:getqloc.obj
 0004:000083fc       ??_C@_0BF@LKML@english?9south?5africa?$AA@ 004893fc     LIBC:getqloc.obj
 0004:00008414       ??_C@_0L@EGPP@english?9nz?$AA@ 00489414     LIBC:getqloc.obj
 0004:00008420       ??_C@_0BA@HLH@english?9jamaica?$AA@ 00489420     LIBC:getqloc.obj
 0004:00008430       ??_C@_0M@PMJI@english?9ire?$AA@ 00489430     LIBC:getqloc.obj
 0004:0000843c       ??_C@_0BC@HINE@english?9caribbean?$AA@ 0048943c     LIBC:getqloc.obj
 0004:00008450       ??_C@_0M@DCFH@english?9can?$AA@ 00489450     LIBC:getqloc.obj
 0004:0000845c       ??_C@_0P@DGHK@english?9belize?$AA@ 0048945c     LIBC:getqloc.obj
 0004:0000846c       ??_C@_0M@FLHK@english?9aus?$AA@ 0048946c     LIBC:getqloc.obj
 0004:00008478       ??_C@_0BB@HNCK@english?9american?$AA@ 00489478     LIBC:getqloc.obj
 0004:0000848c       ??_C@_0O@PAMI@dutch?9belgian?$AA@ 0048948c     LIBC:getqloc.obj
 0004:0000849c       ??_C@_0BE@FPEJ@chinese?9traditional?$AA@ 0048949c     LIBC:getqloc.obj
 0004:000084b0       ??_C@_0BC@CHFL@chinese?9singapore?$AA@ 004894b0     LIBC:getqloc.obj
 0004:000084c4       ??_C@_0BD@DCMH@chinese?9simplified?$AA@ 004894c4     LIBC:getqloc.obj
 0004:000084d8       ??_C@_0BB@JMOE@chinese?9hongkong?$AA@ 004894d8     LIBC:getqloc.obj
 0004:000084ec       ??_C@_07NGFN@chinese?$AA@  004894ec     LIBC:getqloc.obj
 0004:000084f4       ??_C@_03PCOI@chi?$AA@      004894f4     LIBC:getqloc.obj
 0004:000084f8       ??_C@_03FIHP@chh?$AA@      004894f8     LIBC:getqloc.obj
 0004:000084fc       ??_C@_08HFLO@canadian?$AA@ 004894fc     LIBC:getqloc.obj
 0004:00008508       ??_C@_07INIJ@belgian?$AA@  00489508     LIBC:getqloc.obj
 0004:00008510       ??_C@_0L@LCCA@australian?$AA@ 00489510     LIBC:getqloc.obj
 0004:0000851c       ??_C@_0BB@BJIO@american?9english?$AA@ 0048951c     LIBC:getqloc.obj
 0004:00008530       ??_C@_0BB@DAGO@american?5english?$AA@ 00489530     LIBC:getqloc.obj
 0004:00008544       ??_C@_08HENB@american?$AA@ 00489544     LIBC:getqloc.obj
 0004:00008550       ??_C@_03DGJE@OCP?$AA@      00489550     LIBC:getqloc.obj
 0004:00008554       ??_C@_03EKFG@ACP?$AA@      00489554     LIBC:getqloc.obj
 0004:00008558       ___dnames                  00489558     LIBC:timeset.obj
 0004:00008570       ___mnames                  00489570     LIBC:timeset.obj
 0004:00008598       ??_C@_02JHIA@TZ?$AA@       00489598     LIBC:tzset.obj
 0004:0000859c       ??_C@_0BD@NJFP@GetLastActivePopup?$AA@ 0048959c     LIBC:crtmbox.obj
 0004:000085b0       ??_C@_0BA@GILI@GetActiveWindow?$AA@ 004895b0     LIBC:crtmbox.obj
 0004:000085c0       ??_C@_0M@PKCK@MessageBoxA?$AA@ 004895c0     LIBC:crtmbox.obj
 0004:000085cc       ??_C@_0L@HKL@user32?4dll?$AA@ 004895cc     LIBC:crtmbox.obj
 0004:000085d8       ??_C@_01A@?$AA?$AA@        004895d8     LIBC:w_str.obj
 0004:000085dc       ??_C@_13A@?$AA?$AA?$AA?$AA@ 004895dc     LIBC:w_str.obj
 0004:00008620       ??_C@_06PAPI@1?$CDQNAN?$AA@ 00489620     LIBC:x10fout.obj
 0004:00008628       ??_C@_05BGNL@1?$CDINF?$AA@ 00489628     LIBC:x10fout.obj
 0004:00008630       ??_C@_05EDPF@1?$CDIND?$AA@ 00489630     LIBC:x10fout.obj
 0004:00008638       ??_C@_06LKFM@1?$CDSNAN?$AA@ 00489638     LIBC:x10fout.obj
 0005:00000000       ___xc_a                    0048b000     LIBC:crt0init.obj
 0005:00000084       ___xc_z                    0048b084     LIBC:crt0init.obj
 0005:00000088       ___xi_a                    0048b088     LIBC:crt0init.obj
 0005:0000009c       ___xi_z                    0048b09c     LIBC:crt0init.obj
 0005:000000a0       ___xp_a                    0048b0a0     LIBC:crt0init.obj
 0005:000000a8       ___xp_z                    0048b0a8     LIBC:crt0init.obj
 0005:000000ac       ___xt_a                    0048b0ac     LIBC:crt0init.obj
 0005:000000b4       ___xt_z                    0048b0b4     LIBC:crt0init.obj
 0005:000000c0       ??_C@_03NNND@AMR?$AA@      0048b0c0     AMRAudioRTPSink.obj
 0005:000000c4       ??_C@_06HPM@AMR?9WB?$AA@   0048b0c4     AMRAudioRTPSink.obj
 0005:000000cc       ??_C@_0HG@BLMM@?5audio?5channels?4?5?5In?5the?5current@ 0048b0cc     AMRAudioRTPSink.obj
 0005:00000144       ??_C@_0CM@FAC@AMRAudioRTPSink?3?5Warning?3?5Input?5@ 0048b144     AMRAudioRTPSink.obj
 0005:00000170       ??_C@_0BK@LNCI@a?$DNfmtp?3?$CFd?5octet?9align?$DN1?$AN?6?$AA@ 0048b170     AMRAudioRTPSink.obj
 0005:0000018c       ??_C@_05BDHG@audio?$AA@    0048b18c     AudioRTPSink.obj
 0005:00000194       ??_C@_0DB@PLEG@BasicTaskScheduler?3?3SingleStep?$CI?$CJ@ 0048b194     BasicTaskScheduler.obj
 0005:000001c8       ??_C@_0CG@FKJD@?5bytes?5of?5trailing?5data?5was?5drop@ 0048b1c8     BasicUDPSink.obj
 0005:000001f0       ??_C@_04BMCF@?$CJ?4?5?5?$AA@ 0048b1f0     BasicUDPSink.obj
 0005:000001f8       ??_C@_0GP@HAEK@BasicUDPSink?3?3afterGettingFrame1@ 0048b1f8     BasicUDPSink.obj
 0005:00000268       ??_C@_0CB@MEBP@Failed?5to?5initialize?5?8winsock?8?3?5@ 0048b268     BasicUsageEnvironment.obj
 0005:0000028c       ??_C@_02DILL@?$CFs?$AA@    0048b28c     BasicUsageEnvironment.obj
 0005:00000290       ??_C@_06NEML@?$CINULL?$CJ?$AA@ 0048b290     BasicUsageEnvironment.obj
 0005:00000298       ??_C@_02MECO@?$CFd?$AA@    0048b298     BasicUsageEnvironment.obj
 0005:0000029c       ??_C@_02MHMJ@?$CFu?$AA@    0048b29c     BasicUsageEnvironment.obj
 0005:000002a0       ??_C@_02JBAA@?$CFf?$AA@    0048b2a0     BasicUsageEnvironment.obj
 0005:000002a4       ??_C@_02MHAC@?$CFp?$AA@    0048b2a4     BasicUsageEnvironment.obj
 0005:000002a8       ??_C@_05IPJG@?$CFs?3?$CFs?$AA@ 0048b2a8     DigestAuthentication.obj
 0005:000002b0       ??_C@_08GHKP@?$CFs?3?$CFs?3?$CFs?$AA@ 0048b2b0     DigestAuthentication.obj
 0005:000002bc       ??_C@_04PAPL@Menu?$AA@     0048b2bc     DvrWnd.obj
 0005:000002c4       ??_C@_06GPAH@AnyWnd?$AA@   0048b2c4     DvrWnd.obj
 0005:000002cc       ??_C@_09FKFD@OnDvrMsg?6?$AA@ 0048b2cc     DvrWnd.obj
 0005:000002d8       ??_C@_0BJ@OJNA@WM_DVR_MSG?0?5lParam?5?$DN?5?$CFd?6?$AA@ 0048b2d8     DvrWnd.obj
 0005:000002f4       ??_C@_0DC@MJI@m?$DN?$CFs?5?$CFu?5RTP?1AVP?5?$CFd?$AN?6b?$DNAS?3?$CFu?$AN?6?$CFs?$CF@ 0048b2f4     EncoderMediaSubsession.obj
 0005:00000328       ??_C@_05PHCB@store?$AA@    0048b328     EncoderMediaSubsession.obj
 0005:00000338       ??_C@_06IFP@mobile?$AA@    0048b338     EncoderSource.obj
 0005:00000340       ??_C@_0BF@KNDK@e?3?2media?2tempete?4cif?$AA@ 0048b340     EncoderSource.obj
 0005:00000358       ??_C@_02JKAF@rb?$AA@       0048b358     EncoderSource.obj
 0005:0000035c       ??_C@_06LFJL@livehd?$AA@   0048b35c     EncoderSource.obj
 0005:00000364       ??_C@_04NBIJ@live?$AA@     0048b364     EncoderSource.obj
 0005:0000036c       ??_C@_0BB@PBKM@e?3?2media?2qlx?4pcm?$AA@ 0048b36c     EncoderSource.obj
 0005:00000380       ??_C@_0EI@KMHK@?$FN?3?3getNextFrame?$CI?$CJ?3?5attempting?5to@ 0048b380     FramedSource.obj
 0005:000003c8       ??_C@_0O@FDAM@FramedSource?$FL?$AA@ 0048b3c8     FramedSource.obj
 0005:000003d8       ??_C@_05NAJL@nokey?$AA@    0048b3d8     GroupEId.obj
 0005:000003e0       ??_C@_01BJG@?6?$AA@        0048b3e0     Groupsock.obj
 0005:000003e4       ??_C@_0BO@HPPM@?3?5failed?5to?5get?5source?5port?3?5?$AA@ 0048b3e4     Groupsock.obj
 0005:00000404       ??_C@_0L@EMPH@?3?5created?6?$AA@ 0048b404     Groupsock.obj
 0005:00000410       ??_C@_0CJ@CJCM@Unable?5to?5determine?5our?5source?5a@ 0048b410     Groupsock.obj
 0005:0000043c       ??_C@_0BJ@OPHA@?3?5failed?5to?5join?5group?3?5?$AA@ 0048b43c     Groupsock.obj
 0005:00000458       ??_C@_0M@EIFJ@?3?5deleting?6?$AA@ 0048b458     Groupsock.obj
 0005:00000464       ??_C@_08FBJL@?5members?$AA@ 0048b464     Groupsock.obj
 0005:00000470       ??_C@_0O@OEMF@?$DL?5relayed?5to?5?$AA@ 0048b470     Groupsock.obj
 0005:00000480       ??_C@_0N@PLDJ@?5bytes?0?5ttl?5?$AA@ 0048b480     Groupsock.obj
 0005:00000490       ??_C@_08EEJJ@?3?5wrote?5?$AA@ 0048b490     Groupsock.obj
 0005:0000049c       ??_C@_0BJ@GABE@Groupsock?5write?5failed?3?5?$AA@ 0048b49c     Groupsock.obj
 0005:000004b8       ??_C@_0N@EHJB@?5bytes?5from?5?$AA@ 0048b4b8     Groupsock.obj
 0005:000004c8       ??_C@_07EFIE@?3?5read?5?$AA@ 0048b4c8     Groupsock.obj
 0005:000004d0       ??_C@_0BI@MGBI@Groupsock?5read?5failed?3?5?$AA@ 0048b4d0     Groupsock.obj
 0005:000004e8       ??_C@_01KMMP@?$CJ?$AA@     0048b4e8     Groupsock.obj
 0005:000004ec       ??_C@_0N@PMEE@SSM?5source?3?5?$AA@ 0048b4ec     Groupsock.obj
 0005:000004fc       ??_C@_02GIEM@?0?5?$AA@     0048b4fc     Groupsock.obj
 0005:00000500       ??_C@_02HFBK@?3?5?$AA@     0048b500     Groupsock.obj
 0005:00000504       ??_C@_0M@EJNE@?5Groupsock?$CI?$AA@ 0048b504     Groupsock.obj
 0005:00000514       ?loopbackWorks@@3IA        0048b514     GroupsockHelper.obj
 0005:0000051c       ??_C@_0CN@FOLA@error?5setting?5outgoing?5multicast@ 0048b51c     GroupsockHelper.obj
 0005:0000054c       ??_C@_0CB@FMDG@bind?$CI?$CJ?5error?5?$CIport?5number?3?5?$CFd?$CJ?3?5@ 0048b54c     GroupsockHelper.obj
 0005:00000570       ??_C@_0CB@CALN@setsockopt?$CISO_REUSEADDR?$CJ?5error?3?5@ 0048b570     GroupsockHelper.obj
 0005:00000594       ??_C@_0CD@HPD@unable?5to?5create?5datagram?5socket@ 0048b594     GroupsockHelper.obj
 0005:000005b8       ??_C@_0BO@BHJN@failed?5to?5make?5non?9blocking?3?5?$AA@ 0048b5b8     GroupsockHelper.obj
 0005:000005d8       ??_C@_0CB@GOGB@unable?5to?5create?5stream?5socket?3?5@ 0048b5d8     GroupsockHelper.obj
 0005:000005fc       ??_C@_0BD@DMPA@recvfrom?$CI?$CJ?5error?3?5?$AA@ 0048b5fc     GroupsockHelper.obj
 0005:00000610       ??_C@_0BL@GMBA@select?$CI?$CJ?5error?5?9?5?$CBFD_ISSET?$AA@ 0048b610     GroupsockHelper.obj
 0005:0000062c       ??_C@_0BB@HOPC@select?$CI?$CJ?5error?3?5?$AA@ 0048b62c     GroupsockHelper.obj
 0005:00000640       ??_C@_0EA@IIMJ@writeSocket?$CI?$CFd?$CJ?0?5sendTo?$CI?$CJ?5error?3@ 0048b640     GroupsockHelper.obj
 0005:00000680       ??_C@_0CF@GIJN@setsockopt?$CIIP_MULTICAST_TTL?$CJ?5err@ 0048b680     GroupsockHelper.obj
 0005:000006a8       ??_C@_0BI@BDJN@getBufferSize?$CI?$CJ?5error?3?5?$AA@ 0048b6a8     GroupsockHelper.obj
 0005:000006c0       ??_C@_0CG@KIOK@setsockopt?$CIIP_ADD_MEMBERSHIP?$CJ?5er@ 0048b6c0     GroupsockHelper.obj
 0005:000006e8       ??_C@_0BG@IEOG@getsockname?$CI?$CJ?5error?3?5?$AA@ 0048b6e8     GroupsockHelper.obj
 0005:00000700       ??_C@_0CO@MFKF@This?5computer?5has?5an?5invalid?5IP?5@ 0048b700     GroupsockHelper.obj
 0005:00000730       ??_C@_0BP@JBAG@initial?5gethostbyname?$CI?$CJ?5failed?$AA@ 0048b730     GroupsockHelper.obj
 0005:00000750       ??_C@_0BN@BELH@initial?5gethostname?$CI?$CJ?5failed?$AA@ 0048b750     GroupsockHelper.obj
 0005:00000770       ??_C@_0L@DILH@no?5address?$AA@ 0048b770     GroupsockHelper.obj
 0005:0000077c       ??_C@_0L@MOPC@hostIdTest?$AA@ 0048b77c     GroupsockHelper.obj
 0005:00000788       ??_C@_0N@PMEJ@228?467?443?491?$AA@ 0048b788     GroupsockHelper.obj
 0005:00000798       ??_C@_0BD@IJD@malloc?5is?5failed?4?6?$AA@ 0048b798     HikData.obj
 0005:000007ac       ??_C@_0CB@PLLO@node?9?$DOframe?9?$DObuf?5malloc?5failed?4?6@ 0048b7ac     HikData.obj
 0005:000007d0       ??_C@_0BM@MKMJ@node?9?$DOframe?5malloc?5failed?4?6?$AA@ 0048b7d0     HikData.obj
 0005:000007ec       ??_C@_0BF@NMLL@node?5malloc?5failed?4?6?$AA@ 0048b7ec     HikData.obj
 0005:00000804       ??_C@_0BC@KBLL@get?5QCIf?5Stream?4?6?$AA@ 0048b804     HikData.obj
 0005:00000818       ??_C@_04DCMN@?$CFs?$CFs?$AA@ 0048b818     HikData.obj
 0005:00000820       ??_C@_07KKHP@?$CFlu?4bmp?$AA@ 0048b820     HikData.obj
 0005:00000828       ??_C@_05LDB@admin?$AA@     0048b828     HikData.obj
 0005:00000830       ??_C@_09FCOK@127?40?40?41?$AA@ 0048b830     HikData.obj
 0005:0000083c       ??_C@_07OFP@Medium?5?$AA@  0048b83c     Media.obj
 0005:00000844       ??_C@_0BA@BAKH@?5does?5not?5exist?$AA@ 0048b844     Media.obj
 0005:00000854       ??_C@_0M@JGJP@liveMedia?$CFd?$AA@ 0048b854     Media.obj
 0005:00000860       ?maxSize@OutPacketBuffer@@2IA 0048b860     MediaSink.obj
 0005:00000864       ??_C@_0DF@BELK@MediaSink?3?3startPlaying?$CI?$CJ?3?5sourc@ 0048b864     MediaSink.obj
 0005:0000089c       ??_C@_0CC@CCFF@This?5sink?5is?5already?5being?5playe@ 0048b89c     MediaSink.obj
 0005:000008c0       ??_C@_0BJ@PKOK@application?1OCTET?9STREAM?$AA@ 0048b8c0     MediaSource.obj
 0005:000008dc       ??_C@_07PCKP@MP4V?9ES?$AA@ 0048b8dc     MPEG4ESVideoRTPSink.obj
 0005:000008e4       ??_C@_02PIMC@?$AN?6?$AA@   0048b8e4     MPEG4ESVideoRTPSink.obj
 0005:000008e8       ??_C@_04LDEB@?$CF02X?$AA@  0048b8e8     MPEG4ESVideoRTPSink.obj
 0005:000008f0       ??_C@_0CG@OLDM@a?$DNfmtp?3?$CFd?5profile?9level?9id?$DN?$CFd?$DLco@ 0048b8f0     MPEG4ESVideoRTPSink.obj
 0005:00000918       ??_C@_03EJCN@?4?$CJ?6?$AA@ 0048b918     MultiFramedRTPSink.obj
 0005:0000091c       ??_C@_0DI@PNHJ@?0?5?$CKbefore?$CK?5creating?5this?5?8RTPSin@ 0048b91c     MultiFramedRTPSink.obj
 0005:00000954       ??_C@_0GJ@HGDF@?5bytes?5of?5trailing?5data?5was?5drop@ 0048b954     MultiFramedRTPSink.obj
 0005:000009c0       ??_C@_0GD@FBHL@MultiFramedRTPSink?3?3afterGetting@ 0048b9c0     MultiFramedRTPSink.obj
 0005:00000a24       ?DebugLevel@Socket@@2HA    0048ba24     NetInterface.obj
 0005:00000a28       ??_C@_08GBJN@?5Socket?$CI?$AA@ 0048ba28     NetInterface.obj
 0005:00000a74       ??_C@_0EO@HEFK@RTCPInstance?3?3RTCPInstance?5error@ 0048ba74     RTCP.obj
 0005:00000ac4       ??_C@_03NMFM@?$DP?$DP?$DP?$AA@ 0048bac4     RTPSink.obj
 0005:00000ac8       ??_C@_04OMKF@data?$AA@     0048bac8     RTPSink.obj
 0005:00000ad0       ??_C@_0BG@GFCG@a?$DNrtpmap?3?$CFd?5?$CFs?1?$CFd?$CFs?$AN?6?$AA@ 0048bad0     RTPSink.obj
 0005:00000ae8       ??_C@_03KICP@?1?$CFd?$AA@  0048bae8     RTPSink.obj
 0005:00000aec       ??_C@_09HFHN@Challenge?$AA@ 0048baec     RTSPCommon.obj
 0005:00000af8       ??_C@_0P@MJAN@Content?9Length?$AA@ 0048baf8     RTSPCommon.obj
 0005:00000b08       ??_C@_0P@HNAJ@Content?9length?$AA@ 0048bb08     RTSPCommon.obj
 0005:00000b18       ??_C@_0N@HKBC@Content?9Type?$AA@ 0048bb18     RTSPCommon.obj
 0005:00000b28       ??_C@_0N@NAFA@Content?9type?$AA@ 0048bb28     RTSPCommon.obj
 0005:00000b38       ??_C@_08MPDD@RTSP?11?40?$AA@ 0048bb38     RTSPCommon.obj
 0005:00000b44       ??_C@_0P@NENO@Cache?9Control?3?$AA@ 0048bb44     RTSPCommon.obj
 0005:00000b54       ??_C@_07JGAC@Pragma?3?$AA@ 0048bb54     RTSPCommon.obj
 0005:00000b5c       ??_C@_0BB@IGJB@x?9sessioncookie?3?$AA@ 0048bb5c     RTSPCommon.obj
 0005:00000b70       ??_C@_0O@CHM@Content?9Type?3?$AA@ 0048bb70     RTSPCommon.obj
 0005:00000b80       ??_C@_04PHMF@POST?$AA@     0048bb80     RTSPCommon.obj
 0005:00000b88       ??_C@_07BJLL@Accept?3?$AA@ 0048bb88     RTSPCommon.obj
 0005:00000b90       ??_C@_03HLIC@GET?$AA@      0048bb90     RTSPCommon.obj
 0005:00000b94       ??_C@_0M@CMJP@npt?5?$DN?5?$CFlf?5?9?$AA@ 0048bb94     RTSPCommon.obj
 0005:00000ba0       ??_C@_0BA@HGAA@npt?5?$DN?5?$CFlf?5?9?5?$CFlf?$AA@ 0048bba0     RTSPCommon.obj
 0005:00000bb0       ??_C@_01FKHJ@C?$AA@        0048bbb0     RTSPCommon.obj
 0005:00000bb4       ??_C@_07DIOP@Range?3?5?$AA@ 0048bbb4     RTSPCommon.obj
 0005:00000bbc       ??_C@_0BC@DJOH@interleaved?$DN?$CFu?9?$CFu?$AA@ 0048bbbc     RTSPCommon.obj
 0005:00000bd0       ??_C@_0BA@KDJP@client_port?$DN?$CFhu?$AA@ 0048bbd0     RTSPCommon.obj
 0005:00000be0       ??_C@_0BE@LIOH@client_port?$DN?$CFhu?9?$CFhu?$AA@ 0048bbe0     RTSPCommon.obj
 0005:00000bf4       ??_C@_05GJMJ@ttl?$CFu?$AA@ 0048bbf4     RTSPCommon.obj
 0005:00000bfc       ??_C@_0N@HPFG@destination?$DN?$AA@ 0048bbfc     RTSPCommon.obj
 0005:00000c0c       ??_C@_0P@OAEB@MP2T?1H2221?1UDP?$AA@ 0048bc0c     RTSPCommon.obj
 0005:00000c1c       ??_C@_0M@FLEJ@RAW?1RAW?1UDP?$AA@ 0048bc1c     RTSPCommon.obj
 0005:00000c28       ??_C@_0M@CDGB@RTP?1AVP?1TCP?$AA@ 0048bc28     RTSPCommon.obj
 0005:00000c34       ??_C@_05NBEJ@?$CF?$FL?$FO?$DL?$FN?$AA@ 0048bc34     RTSPCommon.obj
 0005:00000c3c       ??_C@_0M@JBOE@Transport?3?5?$AA@ 0048bc3c     RTSPCommon.obj
 0005:00000c48       ??_C@_0L@OCO@x?9playNow?3?$AA@ 0048bc48     RTSPCommon.obj
 0005:00000c58       ??_C@_01PKAG@?3?$AA@       0048bc58     RTSPEncoderSession.obj
 0005:00000c5c       ??_C@_01KPOD@?$DN?$AA@     0048bc5c     RTSPEncoderSession.obj
 0005:00000c60       ??_C@_04FGNA@?$AN?6?$AN?6?$AA@ 0048bc60     RTSPEncoderSession.obj
 0005:00000c68       ??_C@_0O@OEGL@SET_PARAMETER?$AA@ 0048bc68     RTSPEncoderSession.obj
 0005:00000c78       ??_C@_0O@LHAC@GET_PARAMETER?$AA@ 0048bc78     RTSPEncoderSession.obj
 0005:00000c88       ??_C@_05JKKC@PAUSE?$AA@    0048bc88     RTSPEncoderSession.obj
 0005:00000c90       ??_C@_04BCHB@PLAY?$AA@     0048bc90     RTSPEncoderSession.obj
 0005:00000c98       ??_C@_08OLFP@TEARDOWN?$AA@ 0048bc98     RTSPEncoderSession.obj
 0005:00000ca4       ??_C@_05GDNH@SETUP?$AA@    0048bca4     RTSPEncoderSession.obj
 0005:00000cac       ??_C@_08FBJG@DESCRIBE?$AA@ 0048bcac     RTSPEncoderSession.obj
 0005:00000cb8       ??_C@_07MKIM@OPTIONS?$AA@  0048bcb8     RTSPEncoderSession.obj
 0005:00000cc0       ??_C@_0M@JLNC@Bad?5Request?$AA@ 0048bcc0     RTSPEncoderSession.obj
 0005:00000ccc       ??_C@_03GPIO@400?$AA@      0048bccc     RTSPEncoderSession.obj
 0005:00000cd0       ??_C@_0N@CADL@Unauthorized?$AA@ 0048bcd0     RTSPEncoderSession.obj
 0005:00000ce0       ??_C@_03MFBJ@401?$AA@      0048bce0     RTSPEncoderSession.obj
 0005:00000ce4       ??_C@_09PIMA@See?5Other?$AA@ 0048bce4     RTSPEncoderSession.obj
 0005:00000cf0       ??_C@_03COFG@303?$AA@      0048bcf0     RTSPEncoderSession.obj
 0005:00000cf4       ??_C@_0BD@LCGG@application?1serial?$AA@ 0048bcf4     RTSPEncoderSession.obj
 0005:00000d08       ??_C@_03IDPJ@200?$AA@      0048bd08     RTSPEncoderSession.obj
 0005:00000d0c       ??_C@_01FBAH@1?$AA@        0048bd0c     RTSPEncoderSession.obj
 0005:00000d10       ??_C@_04IAHG@Key?3?$AA@    0048bd10     RTSPEncoderSession.obj
 0005:00000d18       ??_C@_09KDKF@Location?3?$AA@ 0048bd18     RTSPEncoderSession.obj
 0005:00000d24       ??_C@_0EE@EFCA@RTSP?11?40?5404?5File?5Not?5Found?0?5Or?5@ 0048bd24     RTSPEncoderSession.obj
 0005:00000d68       ??_C@_0GI@JODP@RTSP?11?40?5200?5OK?$AN?6CSeq?3?5?$CFs?$AN?6?$CFsCon@ 0048bd68     RTSPEncoderSession.obj
 0005:00000dd0       ??_C@_0GL@BHLP@RTSP?11?40?5200?5OK?$AN?6CSeq?3?5?$CFs?$AN?6?$CFsCon@ 0048bdd0     RTSPEncoderSession.obj
 0005:00000e3c       ??_C@_0II@HHAL@RTSP?11?40?5200?5OK?$AN?6CSeq?3?5?$CFs?$AN?6?$CFsTra@ 0048be3c     RTSPEncoderSession.obj
 0005:00000ec4       ??_C@_0HK@CODH@RTSP?11?40?5200?5OK?$AN?6CSeq?3?5?$CFs?$AN?6?$CFsTra@ 0048bec4     RTSPEncoderSession.obj
 0005:00000f40       ??_C@_0HN@HGBB@RTSP?11?40?5200?5OK?$AN?6CSeq?3?5?$CFs?$AN?6?$CFsTra@ 0048bf40     RTSPEncoderSession.obj
 0005:00000fc0       ??_C@_0HI@HFAO@RTSP?11?40?5200?5OK?$AN?6CSeq?3?5?$CFs?$AN?6?$CFsTra@ 0048bfc0     RTSPEncoderSession.obj
 0005:00001038       ??_C@_0HA@DJNO@RTSP?11?40?5200?5OK?$AN?6CSeq?3?5?$CFs?$AN?6?$CFsTra@ 0048c038     RTSPEncoderSession.obj
 0005:000010a8       ??_C@_0CA@HBNE@RTSP?11?40?5200?5OK?$AN?6CSeq?3?5?$CFs?$AN?6?$CFs?$AN?6?$AA@ 0048c0a8     RTSPEncoderSession.obj
 0005:000010c8       ??_C@_0DF@CEEJ@RTSP?11?40?5200?5OK?$AN?6CSeq?3?5?$CFs?$AN?6?$CFs?$CFs?$CF@ 0048c0c8     RTSPEncoderSession.obj
 0005:00001100       ??_C@_01KMAE@?0?$AA@       0048c100     RTSPEncoderSession.obj
 0005:00001104       ??_C@_0L@DGDE@RTP?9Info?3?5?$AA@ 0048c104     RTSPEncoderSession.obj
 0005:00001110       ??_C@_0CA@KHCH@?$CFs?$CFsurl?$DN?$CFs?1?$CFs?$DLseq?$DN?$CFd?$DLrtptime?$DN?$CFu?$AA@ 0048c110     RTSPEncoderSession.obj
 0005:00001130       ??_C@_0BH@MDCK@Range?3?5npt?$DN?$CF?43f?9?$CF?43f?$AN?6?$AA@ 0048c130     RTSPEncoderSession.obj
 0005:00001148       ??_C@_0BD@HCAP@Range?3?5npt?$DN?$CF?43f?9?$AN?6?$AA@ 0048c148     RTSPEncoderSession.obj
 0005:0000115c       ??_C@_0M@JMJO@Scale?3?5?$CFf?$AN?6?$AA@ 0048c15c     RTSPEncoderSession.obj
 0005:00001168       ??_C@_06KPLO@clock?$DN?$AA@ 0048c168     RTSPEncoderSession.obj
 0005:00001170       ??_C@_06KAFM@magic?3?$AA@  0048c170     RTSPEncoderSession.obj
 0005:00001178       ??_C@_0CP@JIKK@RTSP?11?40?5200?5OK?$AN?6CSeq?3?5?$CFs?$AN?6?$CFsSes@ 0048c178     RTSPEncoderSession.obj
 0005:000011a8       ??_C@_0IN@PCNH@RTSP?11?40?5200?5OK?$AN?6CSeq?3?5?$CFs?$AN?6Conte@ 0048c1a8     RTSPEncoderSession.obj
 0005:00001238       ??_C@_04PCLE@?$CFs?$AN?6?$AA@ 0048c238     RTSPEncoderSession.obj
 0005:00001240       ??_C@_06JBPC@index?$DN?$AA@ 0048c240     RTSPEncoderSession.obj
 0005:00001248       ??_C@_09EIJE@pagesize?$DN?$AA@ 0048c248     RTSPEncoderSession.obj
 0005:00001254       ??_C@_0M@BEEO@List?9Param?3?$AA@ 0048c254     RTSPEncoderSession.obj
 0005:00001260       ??_C@_08DKPP@Session?3?$AA@ 0048c260     RTSPEncoderSession.obj
 0005:0000126c       ??_C@_0M@MBEF@User?9Agent?3?$AA@ 0048c26c     RTSPEncoderSession.obj
 0005:00001278       ??_C@_0IO@GDPN@RTSP?11?40?5200?5OK?$AN?6CSeq?3?5?$CFs?$AN?6Conte@ 0048c278     RTSPEncoderSession.obj
 0005:00001308       ??_C@_0BF@EBIC@application?1listfile?$AA@ 0048c308     RTSPEncoderSession.obj
 0005:00001320       ??_C@_0BE@MPJA@application?1listdir?$AA@ 0048c320     RTSPEncoderSession.obj
 0005:00001334       ??_C@_04JPPJ@stop?$AA@     0048c334     RTSPEncoderSession.obj
 0005:0000133c       ??_C@_04JOEF@auto?$AA@     0048c33c     RTSPEncoderSession.obj
 0005:00001344       ??_C@_04KKMF@down?$AA@     0048c344     RTSPEncoderSession.obj
 0005:0000134c       ??_C@_02HAO@up?$AA@        0048c34c     RTSPEncoderSession.obj
 0005:00001350       ??_C@_05PJFF@right?$AA@    0048c350     RTSPEncoderSession.obj
 0005:00001358       ??_C@_04GACI@left?$AA@     0048c358     RTSPEncoderSession.obj
 0005:00001360       ??_C@_08KNLL@lightoff?$AA@ 0048c360     RTSPEncoderSession.obj
 0005:0000136c       ??_C@_07LNIL@lighton?$AA@  0048c36c     RTSPEncoderSession.obj
 0005:00001374       ??_C@_08PKEB@wiperoff?$AA@ 0048c374     RTSPEncoderSession.obj
 0005:00001380       ??_C@_07EHJA@wiperon?$AA@  0048c380     RTSPEncoderSession.obj
 0005:00001388       ??_C@_0P@FIDI@irisclose?5stop?$AA@ 0048c388     RTSPEncoderSession.obj
 0005:00001398       ??_C@_0O@DIKD@irisopen?5stop?$AA@ 0048c398     RTSPEncoderSession.obj
 0005:000013a8       ??_C@_0O@OLOI@zoomwide?5stop?$AA@ 0048c3a8     RTSPEncoderSession.obj
 0005:000013b8       ??_C@_0O@LIFD@zoomtele?5stop?$AA@ 0048c3b8     RTSPEncoderSession.obj
 0005:000013c8       ??_C@_0P@NGEB@focusnear?5stop?$AA@ 0048c3c8     RTSPEncoderSession.obj
 0005:000013d8       ??_C@_0O@NJKF@focusfar?5stop?$AA@ 0048c3d8     RTSPEncoderSession.obj
 0005:000013e8       ??_C@_08GPEE@autostop?$AA@ 0048c3e8     RTSPEncoderSession.obj
 0005:000013f4       ??_C@_09KFBF@down?5stop?$AA@ 0048c3f4     RTSPEncoderSession.obj
 0005:00001400       ??_C@_07BHBJ@up?5stop?$AA@ 0048c400     RTSPEncoderSession.obj
 0005:00001408       ??_C@_0L@FOGP@right?5stop?$AA@ 0048c408     RTSPEncoderSession.obj
 0005:00001414       ??_C@_09HNPB@left?5stop?$AA@ 0048c414     RTSPEncoderSession.obj
 0005:00001420       ??_C@_06MPPF@Speed?3?$AA@  0048c420     RTSPEncoderSession.obj
 0005:00001428       ??_C@_07OLGO@action?3?$AA@ 0048c428     RTSPEncoderSession.obj
 0005:00001430       ??_C@_03ODB@arm?$AA@       0048c430     RTSPEncoderSession.obj
 0005:00001434       ??_C@_0L@IDIJ@stop?9alarm?$AA@ 0048c434     RTSPEncoderSession.obj
 0005:00001440       ??_C@_0N@EAMH@active?9alarm?$AA@ 0048c440     RTSPEncoderSession.obj
 0005:00001450       ??_C@_08IIFF@zone?9arm?$AA@ 0048c450     RTSPEncoderSession.obj
 0005:0000145c       ??_C@_06OMFN@disarm?$AA@   0048c45c     RTSPEncoderSession.obj
 0005:00001464       ??_C@_06OJOP@scene?3?$AA@  0048c464     RTSPEncoderSession.obj
 0005:0000146c       ??_C@_0EM@FKIH@RTSP?11?40?5200?5OK?$AN?6CSeq?3?5?$CFs?$AN?6Conte@ 0048c46c     RTSPEncoderSession.obj
 0005:000014b8       ??_C@_0BL@PLAA@application?1upgrade?9status?$AA@ 0048c4b8     RTSPEncoderSession.obj
 0005:000014d4       ??_C@_0N@BAHJ@stop_recode?3?$AA@ 0048c4d4     RTSPEncoderSession.obj
 0005:000014e4       ??_C@_0O@FBNC@start_recode?3?$AA@ 0048c4e4     RTSPEncoderSession.obj
 0005:000014f4       ??_C@_0BA@MPAF@application?1ptz?$AA@ 0048c4f4     RTSPEncoderSession.obj
 0005:00001504       ??_C@_07POBF@camera?3?$AA@ 0048c504     RTSPEncoderSession.obj
 0005:0000150c       ??_C@_0P@JAED@text?1parameter?$AA@ 0048c50c     RTSPEncoderSession.obj
 0005:0000151c       ??_C@_05NGOJ@reset?$AA@    0048c51c     RTSPEncoderSession.obj
 0005:00001524       ??_C@_0BE@LLEN@application?1command?$AA@ 0048c524     RTSPEncoderSession.obj
 0005:00001538       ??_C@_0BJ@PPDC@Challenge?9Response?3?5?$CFs?$AN?6?$AA@ 0048c538     RTSPEncoderSession.obj
 0005:00001554       ??_C@_0BF@BJIB@Content?9length?3?5?$CFd?$AN?6?$AA@ 0048c554     RTSPEncoderSession.obj
 0005:0000156c       ??_C@_0CA@MFAI@Content?9type?3?5application?1sdp?$AN?6?$AA@ 0048c56c     RTSPEncoderSession.obj
 0005:0000158c       ??_C@_0BB@BFLE@User?9Agent?3?5?$CFs?$AN?6?$AA@ 0048c58c     RTSPEncoderSession.obj
 0005:000015a0       ??_C@_0L@EHCH@CSeq?3?5?$CFd?$AN?6?$AA@ 0048c5a0     RTSPEncoderSession.obj
 0005:000015ac       ??_C@_0BH@GJB@ANNOUNCE?5?$CFs?5RTSP?11?40?$AN?6?$AA@ 0048c5ac     RTSPEncoderSession.obj
 0005:000015c4       ??_C@_0BJ@KDCA@rtsp?3?1?1?$CFs?3?$CFd?1?$CFs?1?$CFd?1?$CFs?1?$CFs?$AA@ 0048c5c4     RTSPEncoderSession.obj
 0005:000015e0       ??_C@_0DB@JNMF@rtsp?3?1?1?$CFs?3?$CFd?1?$CFs?1?$CFd?1MAC?$DN?$CFs?1?$CFs?1ver@ 0048c5e0     RTSPEncoderSession.obj
 0005:00001614       ??_C@_03HHFH@1?41?$AA@     0048c614     RTSPEncoderSession.obj
 0005:00001618       ??_C@_08DJHO@?$CFd?9?$CFd?9?$CFd?$AA@ 0048c618     RTSPEncoderSession.obj
 0005:00001624       ??_C@_0DP@BPNM@abcdefghijklmnopqrstuvwxyzABCDEF@ 0048c624     RTSPEncoderSession.obj
 0005:00001668       ??_C@_08HDL@GET?0?5PUT?$AA@ 0048c668     RTSPOverHTTPServer.obj
 0005:00001674       ??_C@_0BC@EJDM@listen?$CI?$CJ?5failed?3?5?$AA@ 0048c674     RTSPOverHTTPServer.obj
 0005:00001688       ??_C@_0BC@GGGL@accept?$CI?$CJ?5failed?3?5?$AA@ 0048c688     RTSPOverHTTPServer.obj
 0005:0000169c       ?temp_key@@3PADA           0048c69c     RTSPSdk.obj
 0005:000017a0       ??_C@_0O@LHDM@219?4235?4235?43?$AA@ 0048c7a0     RTSPSdk.obj
 0005:000017b0       ??_C@_0N@EBB@000102030455?$AA@ 0048c7b0     RTSPSdk.obj
 0005:000017c0       ??_C@_0P@LAFF@192?4168?410?4121?$AA@ 0048c7c0     RTSPSdk.obj
 0005:000017d0       ??_C@_0O@OCNJ@219?4235?4235?44?$AA@ 0048c7d0     RTSPSdk.obj
 0005:000017e0       ??_C@_0BH@FBDE@STARVALLEY?9PCSIMU1?50?41?$AA@ 0048c7e0     RTSPSdk.obj
 0005:000017f8       ??_C@_0BN@MPBL@?$AA?$AA?$AB?$LA?$AB?$AA?$AA?$AB?$LF?7?$AA?$AA?$AB?$AB?$AA?$AA?$AB?5?$AA?$IE?$EA?z?$CI?$LE?$CC?$EA?$KD?$BP?$AA@ 0048c7f8     RTSPSdk.obj
 0005:00001818       ??_C@_0BN@IOAF@?$AA?$AA?$AB?$LA?$AI?$AA?$AA?$AB?$LF?7?$AA?$AA?$AB?$AA?$AA?$AA?$AB?5?$AA?$IE?$EA?$AGh?0?5?$JA?$KD?$BP?$AA@ 0048c818     RTSPSdk.obj
 0005:00001838       ??_C@_0BO@NNFE@?$AA?$AA?$AB?$LA?$AI?$AA?$AA?$AB?$LF?7?$AA?$AA?$AB?$AA?$AA?$AA?$AB?5?$AA?$IE?$EA?$HN2?$JM?0?$BA?$JAQ?$IP?$AA@ 0048c838     RTSPSdk.obj
 0005:00001858       ??_C@_06GKFE@?$CFs?$CFs?$AN?6?$AA@ 0048c858     RTSPSdk.obj
 0005:00001860       ??_C@_0M@LDGO@LanWebURL?3?5?$AA@ 0048c860     RTSPSdk.obj
 0005:0000186c       ??_C@_0BJ@EKDI@http?3?1?1192?4168?410?4103?380?$AA@ 0048c86c     RTSPSdk.obj
 0005:00001888       ??_C@_0M@HAHM@WanWebURL?3?5?$AA@ 0048c888     RTSPSdk.obj
 0005:00001894       ??_C@_0BC@GADB@http?3?1?1?$FLWANIP?$FN?380?$AA@ 0048c894     RTSPSdk.obj
 0005:000018a8       ??_C@_0M@NBGM@P2PLanURL?3?5?$AA@ 0048c8a8     RTSPSdk.obj
 0005:000018b4       ??_C@_0CA@CIGJ@rtsp?3?1?1192?4168?410?4103?38554?1live?$AA@ 0048c8b4     RTSPSdk.obj
 0005:000018d4       ??_C@_0M@MKIC@P2PWanURL?3?5?$AA@ 0048c8d4     RTSPSdk.obj
 0005:000018e0       ??_C@_0CD@CJAM@rtsp?3?1?1?$FLWANIP?$FN?38150?1live_video?4s@ 0048c8e0     RTSPSdk.obj
 0005:00001904       ??_C@_0M@MPCE@LanFtpURL?3?5?$AA@ 0048c904     RTSPSdk.obj
 0005:00001910       ??_C@_0BI@PBCB@ftp?3?1?1192?4168?410?4103?321?$AA@ 0048c910     RTSPSdk.obj
 0005:00001928       ??_C@_0M@MDG@WanFtpURL?3?5?$AA@ 0048c928     RTSPSdk.obj
 0005:00001934       ??_C@_0BK@FAKA@ftp?3?1?1192?4168?410?4102?33011?$AA@ 0048c934     RTSPSdk.obj
 0005:00001950       ??_C@_0P@MLDP@LanVoiceAddr?3?5?$AA@ 0048c950     RTSPSdk.obj
 0005:00001960       ??_C@_0BE@PGHM@192?4168?410?4103?38000?$AA@ 0048c960     RTSPSdk.obj
 0005:00001974       ??_C@_0P@CMFB@WanVoiceAddr?3?5?$AA@ 0048c974     RTSPSdk.obj
 0005:00001984       ??_C@_0BF@LALM@192?4168?410?4102?315400?$AA@ 0048c984     RTSPSdk.obj
 0005:0000199c       ??_C@_0O@OJDD@LanDataAddr?3?5?$AA@ 0048c99c     RTSPSdk.obj
 0005:000019ac       ??_C@_0O@IHDE@WanDataAddr?3?5?$AA@ 0048c9ac     RTSPSdk.obj
 0005:000019bc       ??_C@_0BF@BKCL@192?4168?410?4102?315401?$AA@ 0048c9bc     RTSPSdk.obj
 0005:000019d4       ??_C@_05LELA@?$CFs?1?$CFs?$AA@ 0048c9d4     RTSPSdk.obj
 0005:000019dc       ??_C@_0P@HKJO@?4?4?1?4?4?1IPCamera?$AA@ 0048c9dc     RTSPSdk.obj
 0005:000019ec       ??_C@_03EKEN@?4d1?$AA@     0048c9ec     RTSPSdk.obj
 0005:000019f0       ??_C@_04LKCB@?4cif?$AA@    0048c9f0     RTSPSdk.obj
 0005:000019f8       ??_C@_04KHGH@?4qcf?$AA@    0048c9f8     RTSPSdk.obj
 0005:00001a04       ??_C@_0EO@JALN@OPTIONS?0?5DESCRIBE?0?5SETUP?0?5TEARDO@ 0048ca04     RTSPServer.obj
 0005:00001a54       ??_C@_0BG@LEHH@?5is?5not?5a?5RTSP?5server?$AA@ 0048ca54     RTSPServer.obj
 0005:00001a6c       ??_C@_0P@DIKD@rtsp?3?1?1?$CFs?3?$CFhu?1?$AA@ 0048ca6c     RTSPServer.obj
 0005:00001a7c       ??_C@_0L@IFGI@rtsp?3?1?1?$CFs?1?$AA@ 0048ca7c     RTSPServer.obj
 0005:00001a88       ??_C@_0GM@ICJA@parseRTSPRequestString?$CI?$CJ?5returne@ 0048ca88     RTSPServer.obj
 0005:00001af4       ??_C@_0GF@EFPD@HTTP?11?40?5200?5OK?$AN?6Server?3?5?$CFs?$AN?6Con@ 0048caf4     RTSPServer.obj
 0005:00001b5c       ??_C@_0BN@KOIE@application?1x?9rtsp?9tunnelled?$AA@ 0048cb5c     RTSPServer.obj
 0005:00001b7c       ??_C@_0CC@LLHD@Date?3?5?$CFa?0?5?$CFb?5?$CFd?5?$CFY?5?$CFH?3?$CFM?3?$CFS?5GMT?$AN@ 0048cb7c     RTSPServer.obj
 0005:00001ba0       ??_C@_0CK@EDG@RTSP?11?40?5400?5Bad?5Request?$AN?6?$CFsAllo@ 0048cba0     RTSPServer.obj
 0005:00001bcc       ??_C@_0DL@MEON@RTSP?11?40?5405?5Method?5Not?5Allowed?$AN@ 0048cbcc     RTSPServer.obj
 0005:00001c08       ??_C@_0CO@HNEK@RTSP?11?40?5404?5Stream?5Not?5Found?$AN?6C@ 0048cc08     RTSPServer.obj
 0005:00001c38       ??_C@_0DD@LGFN@RTSP?11?40?5461?5Unsupported?5Transpo@ 0048cc38     RTSPServer.obj
 0005:00001c6c       ??_C@_0CM@NFPF@RTSP?11?40?5200?5OK?$AN?6CSeq?3?5?$CFs?$AN?6?$CFsPub@ 0048cc6c     RTSPServer.obj
 0005:00001c98       ??_C@_0BF@KOLI@server?5media?5session?$AA@ 0048cc98     RTSPServer.obj
 0005:00001cb0       ??_C@_07BJIM@Scale?3?5?$AA@ 0048ccb0     RTSPServer.obj
 0005:00001cb8       ??_C@_0FL@DABF@RTSP?11?40?5401?5Unauthorized?$AN?6CSeq?3@ 0048ccb8     RTSPServer.obj
 0005:00001d14       ??_C@_0CK@GLML@RTSP?11?40?5401?5Unauthorized?$AN?6CSeq?3@ 0048cd14     RTSPServer.obj
 0005:00001d40       ??_C@_08IEIG@response?$AA@ 0048cd40     RTSPServer.obj
 0005:00001d4c       ??_C@_03MNFN@uri?$AA@      0048cd4c     RTSPServer.obj
 0005:00001d50       ??_C@_05OKLM@nonce?$AA@    0048cd50     RTSPServer.obj
 0005:00001d58       ??_C@_05KHAP@realm?$AA@    0048cd58     RTSPServer.obj
 0005:00001d60       ??_C@_08LGGE@username?$AA@ 0048cd60     RTSPServer.obj
 0005:00001d6c       ??_C@_08GOGJ@?$CF?$FL?$FO?$DN?$FN?$DN?$CC?$CC?$AA@ 0048cd6c     RTSPServer.obj
 0005:00001d78       ??_C@_0O@FBND@?$CF?$FL?$FO?$DN?$FN?$DN?$CC?$CF?$FL?$FO?$CC?$FN?$CC?$AA@ 0048cd78     RTSPServer.obj
 0005:00001d88       ??_C@_0BH@KGGI@Authorization?3?5Digest?5?$AA@ 0048cd88     RTSPServer.obj
 0005:00001da0       ??_C@_0L@GNA@2010?405?429?$AA@ 0048cda0     ServerMediaSession.obj
 0005:00001dac       ??_C@_0BK@LKBA@LIVE555?5Streaming?5Media?5v?$AA@ 0048cdac     ServerMediaSession.obj
 0005:00001dc8       ??_C@_0EF@LNOC@v?$DN0?$AN?6o?$DN?9?5?$CFld?$CF06ld?5?$CFd?5IN?5IP4?5?$CFs?$AN?6@ 0048cdc8     ServerMediaSession.obj
 0005:00001e10       ??_C@_0BF@GCOG@a?$DNrange?3npt?$DN0?9?$CF?43f?$AN?6?$AA@ 0048ce10     ServerMediaSession.obj
 0005:00001e28       ??_C@_0BB@PEH@a?$DNrange?3npt?$DN0?9?$AN?6?$AA@ 0048ce28     ServerMediaSession.obj
 0005:00001e3c       ??_C@_0EA@OKOH@a?$DNsource?9filter?3?5incl?5IN?5IP4?5?$CK?5?$CF@ 0048ce3c     ServerMediaSession.obj
 0005:00001e7c       ??_C@_0L@HJMD@trackID?$DN?$CFd?$AA@ 0048ce7c     ServerMediaSession.obj
 0005:00001e88       ??_C@_0BA@GEJK@write?5is?5error?6?$AA@ 0048ce88     testlive555.obj
 0005:00001e98       ??_C@_0BC@HPPN@connect?5is?5error?6?$AA@ 0048ce98     testlive555.obj
 0005:00001eac       ??_C@_0BB@HGBB@socket?5is?5failed?$AA@ 0048ceac     testlive555.obj
 0005:00001ec0       ??_C@_0BC@LDGK@Connection?3?$CFs?$AN?6?$AN?6?$AA@ 0048cec0     testlive555.obj
 0005:00001ed4       ??_C@_0L@FEBI@Keep?9Alive?$AA@ 0048ced4     testlive555.obj
 0005:00001ee0       ??_C@_0M@NBPF@Accept?3?$CFs?$AN?6?$AA@ 0048cee0     testlive555.obj
 0005:00001eec       ??_C@_03CEGI@?$CK?1?$CK?$AA@ 0048ceec     testlive555.obj
 0005:00001ef0       ??_C@_0BA@FIOK@User?9Agent?3?$CFs?$AN?6?$AA@ 0048cef0     testlive555.obj
 0005:00001f00       ??_C@_05ECME@wayde?$AA@    0048cf00     testlive555.obj
 0005:00001f08       ??_C@_09LPBM@Host?3?$CFs?$AN?6?$AA@ 0048cf08     testlive555.obj
 0005:00001f14       ??_C@_08NOAE@HTTP?11?41?$AA@ 0048cf14     testlive555.obj
 0005:00001f20       ??_C@_07HCLP@mac?$DN?$CFs?5?$AA@ 0048cf20     testlive555.obj
 0005:00001f28       ??_C@_0BG@GNDL@?1com?1devfy?1devfy?4php?$DP?$AA@ 0048cf28     testlive555.obj
 0005:00001f40       ??_C@_07PCOP@http?3?1?1?$AA@ 0048cf40     testlive555.obj
 0005:00001f48       ??_C@_03CENI@?$CFs?5?$AA@  0048cf48     testlive555.obj
 0005:00001f4c       ??_C@_02PJJB@?$CC?6?$AA@   0048cf4c     testlive555.obj
 0005:00001f50       ??_C@_0CB@LDFM@Play?5this?5stream?5using?5the?5URL?5?$CC@ 0048cf50     testlive555.obj
 0005:00001f74       ??_C@_0BA@KGNC@host_name?5?$DN?5?$CFs?6?$AA@ 0048cf74     testlive555.obj
 0005:00001f84       ??_C@_0BG@EFKI@unknown?5address?5type?6?$AA@ 0048cf84     testlive555.obj
 0005:00001f9c       ??_C@_0CC@OAPK@?5gethostbyname?5error?5for?5host?3?$CFs@ 0048cf9c     testlive555.obj
 0005:00001fc0       ??_C@_0N@NKEH@RTSP?5session?$AA@ 0048cfc0     testlive555.obj
 0005:00001fd0       ??_C@_0BP@LLCI@Failed?5to?5create?5RTSP?5server?3?5?$AA@ 0048cfd0     testlive555.obj
 0005:00001ff0       ??_C@_05HENO@video?$AA@    0048cff0     VideoRTPSink.obj
 0005:0000200c       ??_C@_0L@GPGC@xvid?91?42?42?$AA@ 0048d00c     libxvidcore:xvid.obj
 0005:00002018       ??_C@_0CD@BEKF@?$CD?5Please?5do?5not?5modify?5this?5file@ 0048d018     libxvidcore:plugin_2pass1.obj
 0005:0000203c       ??_C@_0DA@ECPA@?$CD?5XviD?52pass?5stat?5file?5?$CIcore?5ver@ 0048d03c     libxvidcore:plugin_2pass1.obj
 0005:0000206c       ??_C@_03KBID@w?$CLb?$AA@   0048d06c     libxvidcore:plugin_2pass1.obj
 0005:00002070       ??_C@_0BO@BHLG@Error?5closing?5stats?5file?5?$CI?$CFs?$CJ?$AA@ 0048d070     libxvidcore:plugin_2pass1.obj
 0005:00002090       ??_C@_0BG@HMHC@?$CFc?5?$CFd?5?$CFd?5?$CFd?5?$CFd?5?$CFd?5?$CFd?6?$AA@ 0048d090     libxvidcore:plugin_2pass1.obj
 0005:000020a8       ??_C@_0DD@HHNE@?$FLxvid?5rc?$FN?5VBV?5compliant?5curve?5sc@ 0048d0a8     libxvidcore:plugin_2pass2.obj
 0005:000020dc       ??_C@_0CN@MMN@?$FLxvid?5rc?$FN?5VBV?5compliant?5curve?5sc@ 0048d0dc     libxvidcore:plugin_2pass2.obj
 0005:0000210c       ??_C@_0DO@KIOP@?$FLxvid?5rc?$FN?5Underflow?5detected?5?9?5S@ 0048d10c     libxvidcore:plugin_2pass2.obj
 0005:0000214c       ??_C@_0EF@MEAD@?$FLxvid?5rc?$FN?5?9?9?5New?5target?5filesize@ 0048d14c     libxvidcore:plugin_2pass2.obj
 0005:00002194       ??_C@_0CL@BPIN@?$FLxvid?5rc?$FN?5?9?9?5Container?5Frame?5ove@ 0048d194     libxvidcore:plugin_2pass2.obj
 0005:000021c0       ??_C@_0CE@DME@?$FLxvid?5rc?$FN?5?9?9?5Target?5filesize?3?5?$CFl@ 0048d1c0     libxvidcore:plugin_2pass2.obj
 0005:000021e4       ??_C@_0CC@MIPP@?$FLxvid?5rc?$FN?5?9?9?5Target?5bitrate?3?5?$CFld@ 0048d1e4     libxvidcore:plugin_2pass2.obj
 0005:00002208       ??_C@_0CD@EBBJ@?$FLxvid?5rc?$FN?5?9?9?5Number?5of?5frames?3?5?$CF@ 0048d208     libxvidcore:plugin_2pass2.obj
 0005:0000222c       ??_C@_0CI@HEPI@?$FLxvid?5rc?$FN?5?9?9?5Frame?5rate?3?5?$CFd?1?$CFd?5?$CI@ 0048d22c     libxvidcore:plugin_2pass2.obj
 0005:00002254       ??_C@_0CF@CBNF@?$FLxvid?5rc?$FN?5?9?9?5ERROR?3?5fopen?5?$CFs?5fai@ 0048d254     libxvidcore:plugin_2pass2.obj
 0005:0000227c       ??_C@_0EO@GJNK@?$FLxvid?5rc?$FN?5?9?9?5frame?3?$CFd?5p?1b?9frame?5@ 0048d27c     libxvidcore:plugin_2pass2.obj
 0005:000022cc       ??_C@_0EN@GOJB@?$FLxvid?5rc?$FN?5?9?9?5frame?5?$CFd?5p?1b?9frame?5@ 0048d2cc     libxvidcore:plugin_2pass2.obj
 0005:0000231c       ??_C@_0DM@FONB@?$FLxvid?5rc?$FN?5?9?9?5stats?5file?5too?5shor@ 0048d31c     libxvidcore:plugin_2pass2.obj
 0005:00002358       ??_C@_0GH@JIDO@?$FLxvid?5rc?$FN?5?9?9?5frame?3?$CFd?5type?3?$CFc?5qu@ 0048d358     libxvidcore:plugin_2pass2.obj
 0005:000023c0       ??_C@_0DJ@MDKA@?$FLxvid?5rc?$FN?5?9?9?5WARNING?3?5L?$CFd?5misses@ 0048d3c0     libxvidcore:plugin_2pass2.obj
 0005:000023fc       ??_C@_0DJ@GIFB@?$FLxvid?5rc?$FN?5?9?9?5WARNING?3?5L?$CFd?5unknow@ 0048d3fc     libxvidcore:plugin_2pass2.obj
 0005:00002438       ??_C@_02JBML@?$CFc?$AA@    0048d438     libxvidcore:plugin_2pass2.obj
 0005:0000243c       ??_C@_0BJ@MJAO@?$CFc?5?$CFd?5?$CFd?5?$CFd?5?$CFd?5?$CFd?5?$CFd?5?$CFd?6?$AA@ 0048d43c     libxvidcore:plugin_2pass2.obj
 0005:00002458       ??_C@_0CN@GLMN@?$FLxvid?5rc?$FN?5?9?9?5Min?51st?5pass?5BFrame@ 0048d458     libxvidcore:plugin_2pass2.obj
 0005:00002488       ??_C@_0CN@BPGH@?$FLxvid?5rc?$FN?5?9?9?5Min?51st?5pass?5PFrame@ 0048d488     libxvidcore:plugin_2pass2.obj
 0005:000024b8       ??_C@_0CN@PKHA@?$FLxvid?5rc?$FN?5?9?9?5Min?51st?5pass?5IFrame@ 0048d4b8     libxvidcore:plugin_2pass2.obj
 0005:000024e8       ??_C@_0CI@IMLL@?$FLxvid?5rc?$FN?5?9?9?5Assymetric?5tax?5rati@ 0048d4e8     libxvidcore:plugin_2pass2.obj
 0005:00002510       ??_C@_0CK@PJJI@?$FLxvid?5rc?$FN?5?9?9?5IFrame?5boost?5tax?5ra@ 0048d510     libxvidcore:plugin_2pass2.obj
 0005:0000253c       ??_C@_0CJ@FDNP@?$FLxvid?5rc?$FN?5Minimum?5buffer?5fill?3?5?$CF@ 0048d53c     libxvidcore:plugin_2pass2.obj
 0005:00002568       ??_C@_0CE@ELMK@?$FLxvid?5rc?$FN?5Everything?5underflowin@ 0048d568     libxvidcore:plugin_2pass2.obj
 0005:0000258c       ??_C@_0EN@IFPI@?$FLxvid?5rc?$FN?5Moving?5?$CF?40f?5kB?5to?5avoi@ 0048d58c     libxvidcore:plugin_2pass2.obj
 0005:000025dc       ??_C@_0DB@KDMC@?$FLxvid?5rc?$FN?5Scene?5?$CFd?5?$CIFrames?5?$CFd?9?$CFd@ 0048d5dc     libxvidcore:plugin_2pass2.obj
 0005:00002610       ??_C@_0BG@IMKN@target_framesize?3?5?$CFf?6?$AA@ 0048d610     libxvidcore:plugin_single.obj
 0005:00002628       ??_C@_0BD@BNFP@frame?5rate?5?5?5?3?5?$CFf?6?$AA@ 0048d628     libxvidcore:plugin_single.obj
 0005:0000263c       ??_C@_0BD@JMI@bytes_per_sec?3?5?$CFi?6?$AA@ 0048d63c     libxvidcore:plugin_single.obj
 0005:00002650       _xvid_QP_Funcs_C_ref       0048d650     libxvidcore:qpel.obj
 0005:00002680       _xvid_QP_Add_Funcs_C_ref   0048d680     libxvidcore:qpel.obj
 0005:000026b0       _xvid_QP_Funcs_C           0048d6b0     libxvidcore:qpel.obj
 0005:000026e0       _xvid_QP_Add_Funcs_C       0048d6e0     libxvidcore:qpel.obj
 0005:00002710       _xvid_QP_Funcs_mmx         0048d710     libxvidcore:qpel.obj
 0005:00002740       _xvid_QP_Add_Funcs_mmx     0048d740     libxvidcore:qpel.obj
 0005:00002770       _sprite_trajectory_len     0048d770     libxvidcore:mbcoding.obj
 0005:000027e8       _mcbpc_intra_tab           0048d7e8     libxvidcore:mbcoding.obj
 0005:00002860       _mcbpc_inter_tab           0048d860     libxvidcore:mbcoding.obj
 0005:00002948       ??_C@_0BH@MCIJ@codep?3?5field_pred?3?5?$CFi?6?$AA@ 0048d948     libxvidcore:mbcoding.obj
 0005:00002960       ??_C@_0BG@BNDD@codep?3?5field_dct?3?5?$CFi?6?$AA@ 0048d960     libxvidcore:mbcoding.obj
 0005:00002978       ??_C@_0CB@BPLL@chroma_optimized_pixels?5?$DN?5?$CFi?1?$CFi?6@ 0048d978     libxvidcore:image.obj
 0005:0000299c       ??_C@_08PFEI@?$CK?$CK?$CK?5END?6?$AA@ 0048d99c     libxvidcore:encoder.obj
 0005:000029a8       ??_C@_0EB@FNCC@?$CK?$CK?$CK?5FINISH?5bf?3?5head?$DN?$CFi?5tail?$DN?$CFi?5?5@ 0048d9a8     libxvidcore:encoder.obj
 0005:000029ec       ??_C@_0EA@IIJD@?$CK?$CK?$CK?5EMPTY?5bf?3?5head?$DN?$CFi?5tail?$DN?$CFi?5?5?5@ 0048d9ec     libxvidcore:encoder.obj
 0005:00002a2c       ??_C@_0EJ@IKPF@?$CK?$CK?$CK?5BFRAME?5?$CIflush?$CJ?5bf?3?5head?$DN?$CFi?5t@ 0048da2c     libxvidcore:encoder.obj
 0005:00002a78       ??_C@_04GBOE@IVOP?$AA@     0048da78     libxvidcore:encoder.obj
 0005:00002a80       ??_C@_0EB@JALC@?$CK?$CK?$CK?5IFRAME?5bf?3?5head?$DN?$CFi?5tail?$DN?$CFi?5?5@ 0048da80     libxvidcore:encoder.obj
 0005:00002ac4       ??_C@_04DLAH@PVOP?$AA@     0048dac4     libxvidcore:encoder.obj
 0005:00002acc       ??_C@_0EB@PEMP@?$CK?$CK?$CK?5PFRAME?5bf?3?5head?$DN?$CFi?5tail?$DN?$CFi?5?5@ 0048dacc     libxvidcore:encoder.obj
 0005:00002b10       ??_C@_0BG@LJAC@CLOSED?5GOP?5BVOP?9?$DOPVOP?$AA@ 0048db10     libxvidcore:encoder.obj
 0005:00002b28       ??_C@_0EB@NIGE@?$CK?$CK?$CK?5XXXXXX?5bf?3?5head?$DN?$CFi?5tail?$DN?$CFi?5?5@ 0048db28     libxvidcore:encoder.obj
 0005:00002b6c       ??_C@_0FD@OFBH@?$CK?$CK?$CK?5BFRAME?5?$CIstore?$CJ?5bf?3?5head?$DN?$CFi?5t@ 0048db6c     libxvidcore:encoder.obj
 0005:00002bc0       ??_C@_04CEIC@BVOP?$AA@     0048dbc0     libxvidcore:encoder.obj
 0005:00002bc8       ??_C@_0BD@LDN@?$CFd?5?5st?3?$CFlld?5?5if?3?$CFd?$AA@ 0048dbc8     libxvidcore:encoder.obj
 0005:00002be0       _xvid_Expand_mmx           0048dbe0     libxvidcore:qpel_mmx.obj
 0005:000033e0       _xvid_FIR_1_0_0_0          0048e3e0     libxvidcore:qpel_mmx.obj
 0005:00003be0       _xvid_FIR_3_1_0_0          0048ebe0     libxvidcore:qpel_mmx.obj
 0005:000043e0       _xvid_FIR_6_3_1_0          0048f3e0     libxvidcore:qpel_mmx.obj
 0005:00004be0       _xvid_FIR_14_3_2_1         0048fbe0     libxvidcore:qpel_mmx.obj
 0005:000053e0       _xvid_FIR_20_6_3_1         004903e0     libxvidcore:qpel_mmx.obj
 0005:00005be0       _xvid_FIR_20_20_6_3        00490be0     libxvidcore:qpel_mmx.obj
 0005:000063e0       _xvid_FIR_23_19_6_3        004913e0     libxvidcore:qpel_mmx.obj
 0005:00006be0       _xvid_FIR_7_20_20_6        00491be0     libxvidcore:qpel_mmx.obj
 0005:000073e0       _xvid_FIR_6_20_20_6        004923e0     libxvidcore:qpel_mmx.obj
 0005:00007be0       _xvid_FIR_6_20_20_7        00492be0     libxvidcore:qpel_mmx.obj
 0005:000083e0       _xvid_FIR_3_6_20_20        004933e0     libxvidcore:qpel_mmx.obj
 0005:00008be0       _xvid_FIR_3_6_19_23        00493be0     libxvidcore:qpel_mmx.obj
 0005:000093e0       _xvid_FIR_1_3_6_20         004943e0     libxvidcore:qpel_mmx.obj
 0005:00009be0       _xvid_FIR_1_2_3_14         00494be0     libxvidcore:qpel_mmx.obj
 0005:0000a3e0       _xvid_FIR_0_1_3_6          004953e0     libxvidcore:qpel_mmx.obj
 0005:0000abe0       _xvid_FIR_0_0_1_3          00495be0     libxvidcore:qpel_mmx.obj
 0005:0000b3e0       _xvid_FIR_0_0_0_1          004963e0     libxvidcore:qpel_mmx.obj
 0005:0000bbe0       ??_C@_0CF@EMIJ@sprite_warping_point?$FL?$CFi?$FN?5xy?$DN?$CI?$CFi?0@ 00496be0     libxvidcore:bitstream.obj
 0005:0000bc08       ??_C@_0BE@ELND@pParam?9?$DOfbase?5?$DN?5?$CFd?6?$AA@ 00496c08     libxvidcore:bitstream.obj
 0005:0000bc1c       ??_C@_0CM@IPMM@sprite_warping_point?$FL?$CFi?$FN?5xy?$DN?$CI?$CFi?0@ 00496c1c     libxvidcore:bitstream.obj
 0005:0000bc48       __NLG_Destination          00496c48     LIBC:exsup.obj
 0005:0000bc60       __iob                      00496c60     LIBC:_file.obj
 0005:0000bee0       __fltused                  00496ee0     LIBC:fpinit.obj
 0005:0000bee4       __ldused                   00496ee4     LIBC:fpinit.obj
 0005:0000bee8       __FPinit                   00496ee8     LIBC:fpinit.obj
 0005:0000beec       __FPmtinit                 00496eec     LIBC:fpinit.obj
 0005:0000bef0       __FPmtterm                 00496ef0     LIBC:fpinit.obj
 0005:0000c010       ___lc_category             00497010     LIBC:setlocal.obj
 0005:0000c060       ___lc_time_curr            00497060     LIBC:strftime.obj
 0005:0000c068       ___lc_time_c               00497068     LIBC:strftime.obj
 0005:0000c114       ?__pMyUnhandledExceptionFilter@@3PAXA 00497114     LIBC:throw.obj
 0005:0000c118       __aexit_rtn                00497118     LIBC:crt0.obj
 0005:0000c11c       ___app_type                0049711c     LIBC:crt0.obj
 0005:0000c130       ?__pUnexpected@@3P6AXXZA   00497130     LIBC:hooks.obj
 0005:0000c134       ?__pInconsistency@@3P6AXXZA 00497134     LIBC:hooks.obj
 0005:0000c138       ___nullstring              00497138     LIBC:output.obj
 0005:0000c13c       ___wnullstring             0049713c     LIBC:output.obj
 0005:0000c1d0       __sys_errlist              004971d0     LIBC:syserr.obj
 0005:0000c280       __sys_nerr                 00497280     LIBC:syserr.obj
 0005:0000c290       ___badioinfo               00497290     LIBC:ioinit.obj
 0005:0000c298       __cfltcvt_tab              00497298     LIBC:cmiscdat.obj
 0005:0000c2b0       __amblksiz                 004972b0     LIBC:heapinit.obj
 0005:0000c2b8       ___old_small_block_heap    004972b8     LIBC:sbheap.obj
 0005:0000e2dc       ___old_sbh_threshold       004992dc     LIBC:sbheap.obj
 0005:0000e2e0       ___rgLocInfo               004992e0     LIBC:getqloc.obj
 0005:0000e784       ___rglangidNotDefault      00499784     LIBC:getqloc.obj
 0005:0000e798       ___rg_country              00499798     LIBC:getqloc.obj
 0005:0000e850       ___rg_language             00499850     LIBC:getqloc.obj
 0005:0000ea58       __pctype                   00499a58     LIBC:ctype.obj
 0005:0000ea5c       __pwctype                  00499a5c     LIBC:ctype.obj
 0005:0000ea60       __ctype                    00499a60     LIBC:ctype.obj
 0005:0000ec64       ___mb_cur_max              00499c64     LIBC:nlsdata1.obj
 0005:0000ec68       ___decimal_point           00499c68     LIBC:nlsdata1.obj
 0005:0000ec6c       ___decimal_point_length    00499c6c     LIBC:nlsdata1.obj
 0005:0000ec80       __timezone                 00499c80     LIBC:timeset.obj
 0005:0000ec84       __daylight                 00499c84     LIBC:timeset.obj
 0005:0000ec88       __dstbias                  00499c88     LIBC:timeset.obj
 0005:0000ed0c       __tzname                   00499d0c     LIBC:timeset.obj
 0005:0000ed40       __lpdays                   00499d40     LIBC:days.obj
 0005:0000ed74       __days                     00499d74     LIBC:days.obj
 0005:0000eda8       __XcptActTab               00499da8     LIBC:winxfltr.obj
 0005:0000ee20       __First_FPE_Indx           00499e20     LIBC:winxfltr.obj
 0005:0000ee24       __Num_FPE                  00499e24     LIBC:winxfltr.obj
 0005:0000ee28       __XcptActTabCount          00499e28     LIBC:winxfltr.obj
 0005:0000ee2c       __fpecode                  00499e2c     LIBC:winxfltr.obj
 0005:0000efd0       ___lconv_static_decimal    00499fd0     LIBC:lconv.obj
 0005:0000efd8       ___lconv_c                 00499fd8     LIBC:lconv.obj
 0005:0000f008       ___lconv                   0049a008     LIBC:lconv.obj
 0005:0000f108       __pow10pos                 0049a108     LIBC:constpow.obj
 0005:0000f268       __pow10neg                 0049a268     LIBC:constpow.obj
 0005:0000f438       ?THE_END_OF_TIME@@3VEventTime@@B 0049a438     DelayQueue.obj
 0005:0000f448       ?DELAY_ZERO@@3VDelayInterval@@B 0049a448     DelayQueue.obj
 0005:0000f458       ?DELAY_SECOND@@3VDelayInterval@@B 0049a458     DelayQueue.obj
 0005:0000f460       ?tokenCounter@DelayQueueEntry@@0JA 0049a460     DelayQueue.obj
 0005:0000f468       ?hookInst@@3PAUHINSTANCE__@@A 0049a468     DvrWnd.obj
 0005:0000f470       ??_C@_00A@?$AA@            0049a470     DvrWnd.obj
 0005:0000f480       ?statsRelayedOutgoing@Groupsock@@2VNetInterfaceTrafficStats@@A 0049a480     Groupsock.obj
 0005:0000f488       ?statsRelayedIncoming@Groupsock@@2VNetInterfaceTrafficStats@@A 0049a488     Groupsock.obj
 0005:0000f490       ?statsIncoming@Groupsock@@2VNetInterfaceTrafficStats@@A 0049a490     Groupsock.obj
 0005:0000f498       ?statsOutgoing@Groupsock@@2VNetInterfaceTrafficStats@@A 0049a498     Groupsock.obj
 0005:0000f4bc       ?SendingInterfaceAddr@@3IA 0049a4bc     GroupsockHelper.obj
 0005:0000f4c0       ?ReceivingInterfaceAddr@@3IA 0049a4c0     GroupsockHelper.obj
 0005:00040f04       ?DefaultUsageEnvironment@NetInterface@@2PAVUsageEnvironment@@A 004cbf04     NetInterface.obj
 0005:00040f28       ?http@@3V?$vector@PAVRTSPClientSession@RTSPServer@@V?$allocator@PAVRTSPClientSession@RTSPServer@@@std@@@std@@A 004cbf28     RTSPServer.obj
 0005:00040f40       ?iter@@3PAPAVRTSPClientSession@RTSPServer@@A 004cbf40     RTSPServer.obj
 0005:00041020       ?env@@3PAVUsageEnvironment@@A 004cc020     testlive555.obj
 0005:00041030       ?videoSink@@3PAVMPEG4ESVideoRTPSink@@A 004cc030     testlive555.obj
 0005:00041040       ?rc2pass2@@3Uxvid_plugin_2pass2_t@@A 004cc040     xvid_interface.obj
 0005:00041080       ?rc2pass1@@3Uxvid_plugin_2pass1_t@@A 004cc080     xvid_interface.obj
 0005:00041088       ?single@@3Uxvid_plugin_single_t@@A 004cc088     xvid_interface.obj
 0005:0004150c       _xvid_QP_Funcs             004cc50c     libxvidcore:qpel.obj
 0005:00041510       _xvid_QP_Add_Funcs         004cc510     libxvidcore:qpel.obj
 0005:0006b154       __cflush                   004f6154     LIBC:_file.obj
 0005:0006b158       ___fastflag                004f6158     LIBC:fpinit.obj
 0005:0006b15c       __adjust_fdiv              004f615c     LIBC:fpinit.obj
 0005:0006b16c       _errno                     004f616c     LIBC:crt0dat.obj
 0005:0006b170       __doserrno                 004f6170     LIBC:crt0dat.obj
 0005:0006b174       __umaskval                 004f6174     LIBC:crt0dat.obj
 0005:0006b178       __osver                    004f6178     LIBC:crt0dat.obj
 0005:0006b17c       __winver                   004f617c     LIBC:crt0dat.obj
 0005:0006b180       __winmajor                 004f6180     LIBC:crt0dat.obj
 0005:0006b184       __winminor                 004f6184     LIBC:crt0dat.obj
 0005:0006b188       ___argc                    004f6188     LIBC:crt0dat.obj
 0005:0006b18c       ___argv                    004f618c     LIBC:crt0dat.obj
 0005:0006b190       ___wargv                   004f6190     LIBC:crt0dat.obj
 0005:0006b194       __environ                  004f6194     LIBC:crt0dat.obj
 0005:0006b198       ___initenv                 004f6198     LIBC:crt0dat.obj
 0005:0006b19c       __wenviron                 004f619c     LIBC:crt0dat.obj
 0005:0006b1a0       ___winitenv                004f61a0     LIBC:crt0dat.obj
 0005:0006b1a4       __pgmptr                   004f61a4     LIBC:crt0dat.obj
 0005:0006b1a8       __wpgmptr                  004f61a8     LIBC:crt0dat.obj
 0005:0006b1ac       __exitflag                 004f61ac     LIBC:crt0dat.obj
 0005:0006b1b0       __C_Termination_Done       004f61b0     LIBC:crt0dat.obj
 0005:0006b1b4       __C_Exit_Done              004f61b4     LIBC:crt0dat.obj
 0005:0006b1f4       __aenvptr                  004f61f4     LIBC:crt0.obj
 0005:0006b1f8       __wenvptr                  004f61f8     LIBC:crt0.obj
 0005:0006b1fc       ___error_mode              004f61fc     LIBC:crt0.obj
 0005:0006b200       ?_pCurrentException@@3PAUEHExceptionRecord@@A 004f6200     LIBC:frame.obj
 0005:0006b204       ?_pCurrentExContext@@3PAU_CONTEXT@@A 004f6204     LIBC:frame.obj
 0005:0006b208       ?__pSETranslator@@3P6AXIPAU_EXCEPTION_POINTERS@@@ZA 004f6208     LIBC:hooks.obj
 0005:0006b20c       ?__pTerminate@@3P6AXXZA    004f620c     LIBC:hooks.obj
 0005:0006b224       __adbgmsg                  004f6224     LIBC:crt0msg.obj
 0005:0006b228       __stdbuf                   004f6228     LIBC:_sftbuf.obj
 0005:0006b260       ?_pnhHeap@@3P6AHI@ZA       004f6260     LIBC:handler.obj
 0005:0006b264       __newmode                  004f6264     LIBC:_newmode.obj
 0005:0006b268       ___lc_time_intl            004f6268     LIBC:inittime.obj
 0005:0006b284       ___lc_handle               004f6284     LIBC:nlsdata2.obj
 0005:0006b29c       ___lc_codepage             004f629c     LIBC:nlsdata2.obj
 0005:0006b2a0       ___lc_collate_cp           004f62a0     LIBC:nlsdata2.obj
 0005:0006b2a4       ___lc_id                   004f62a4     LIBC:nlsdata3.obj
 0005:0006b3b0       __pxcptinfoptrs            004f63b0     LIBC:winxfltr.obj
 0005:0006b4f8       __commode                  004f64f8     LIBC:ncommode.obj
 0005:0006b504       ___lconv_static_null       004f6504     LIBC:lconv.obj
 0005:0006b518       __fmode                    004f6518     LIBC:txtmode.obj
 0005:0006b52c       ??_B?1???id@?$ctype@G@std@@$D@@9@51 004f652c     <common>
 0005:0006b540       _sprite_trajectory_code    004f6540     <common>
 0005:000ab540       _fdct                      00536540     <common>
 0005:000ab544       _idct                      00536544     <common>
 0005:000ab548       _emms                      00536548     <common>
 0005:000ab54c       _dequant_h263_intra        0053654c     <common>
 0005:000ab550       _quant_h263_inter          00536550     <common>
 0005:000ab554       _quant_h263_intra          00536554     <common>
 0005:000ab558       _dequant_h263_inter        00536558     <common>
 0005:000ab55c       _dequant_mpeg_inter        0053655c     <common>
 0005:000ab560       _dequant_mpeg_intra        00536560     <common>
 0005:000ab564       _quant_mpeg_inter          00536564     <common>
 0005:000ab568       _quant_mpeg_intra          00536568     <common>
 0005:000ab56c       _transfer_8to16sub         0053656c     <common>
 0005:000ab570       _transfer8x8_copy          00536570     <common>
 0005:000ab574       _transfer_8to16sub2ro      00536574     <common>
 0005:000ab578       _transfer_8to16subro       00536578     <common>
 0005:000ab57c       _transfer_8to16sub2        0053657c     <common>
 0005:000ab580       _transfer_8to16copy        00536580     <common>
 0005:000ab584       _transfer_16to8add         00536584     <common>
 0005:000ab588       _transfer_16to8copy        00536588     <common>
 0005:000ab58c       _transfer8x4_copy          0053658c     <common>
 0005:000ab590       _MBFieldTest               00536590     <common>
 0005:000ab594       _interpolate8x8_avg4       00536594     <common>
 0005:000ab598       _interpolate8x4_halfpel_v  00536598     <common>
 0005:000ab59c       _interpolate8x8_avg2       0053659c     <common>
 0005:000ab5a0       _interpolate8x8_halfpel_v_add 005365a0     <common>
 0005:000ab5a4       _interpolate8x4_halfpel_h  005365a4     <common>
 0005:000ab5a8       _interpolate16x16_lowpass_h 005365a8     <common>
 0005:000ab5ac       _interpolate8x8_halfpel_hv_add 005365ac     <common>
 0005:000ab5b0       _interpolate16x16_lowpass_v 005365b0     <common>
 0005:000ab5b4       _interpolate8x8_halfpel_h  005365b4     <common>
 0005:000ab5b8       _interpolate8x8_halfpel_v  005365b8     <common>
 0005:000ab5bc       _interpolate8x8_halfpel_h_add 005365bc     <common>
 0005:000ab5c0       _interpolate8x8_halfpel_hv 005365c0     <common>
 0005:000ab5c4       _interpolate16x16_lowpass_hv 005365c4     <common>
 0005:000ab5c8       _interpolate8x4_halfpel_hv 005365c8     <common>
 0005:000ab5cc       _interpolate8x8_lowpass_v  005365cc     <common>
 0005:000ab5d0       _interpolate8x8_lowpass_h  005365d0     <common>
 0005:000ab5d4       _interpolate8x8_lowpass_hv 005365d4     <common>
 0005:000ab5d8       _interpolate8x8_6tap_lowpass_v 005365d8     <common>
 0005:000ab5dc       _interpolate8x8_6tap_lowpass_h 005365dc     <common>
 0005:000ab5e0       _interpolate8x8_halfpel_add 005365e0     <common>
 0005:000ab5e4       _image_brightness          005365e4     <common>
 0005:000ab5e8       _rgb565i_to_yv12           005365e8     <common>
 0005:000ab5ec       _yv12_to_rgb565            005365ec     <common>
 0005:000ab5f0       _yv12_to_rgb555i           005365f0     <common>
 0005:000ab5f4       _yv12_to_rgb555            005365f4     <common>
 0005:000ab5f8       _rgb555_to_yv12            005365f8     <common>
 0005:000ab5fc       _yv12_to_uyvy              005365fc     <common>
 0005:000ab600       _yv12_to_rgb               00536600     <common>
 0005:000ab604       _yv12_to_rgb565i           00536604     <common>
 0005:000ab608       _yv12_to_bgr               00536608     <common>
 0005:000ab60c       _yv12_to_yv12              0053660c     <common>
 0005:000ab610       _rgb565_to_yv12            00536610     <common>
 0005:000ab614       _rgbai_to_yv12             00536614     <common>
 0005:000ab618       _yv12_to_uyvyi             00536618     <common>
 0005:000ab61c       _yv12_to_yuyvi             0053661c     <common>
 0005:000ab620       _rgbi_to_yv12              00536620     <common>
 0005:000ab624       _argb_to_yv12              00536624     <common>
 0005:000ab628       _rgb_to_yv12               00536628     <common>
 0005:000ab62c       _yv12_to_argbi             0053662c     <common>
 0005:000ab630       _rgba_to_yv12              00536630     <common>
 0005:000ab634       _bgrai_to_yv12             00536634     <common>
 0005:000ab638       _yv12_to_abgri             00536638     <common>
 0005:000ab63c       _yv12_to_rgba              0053663c     <common>
 0005:000ab640       _yv12_to_bgra              00536640     <common>
 0005:000ab644       _yuyv_to_yv12              00536644     <common>
 0005:000ab648       _yv12_to_rgbi              00536648     <common>
 0005:000ab64c       _bgra_to_yv12              0053664c     <common>
 0005:000ab650       _abgri_to_yv12             00536650     <common>
 0005:000ab654       _bgr_to_yv12               00536654     <common>
 0005:000ab658       _rgb555i_to_yv12           00536658     <common>
 0005:000ab65c       _yv12_to_argb              0053665c     <common>
 0005:000ab660       _uyvy_to_yv12              00536660     <common>
 0005:000ab664       _yv12_to_bgri              00536664     <common>
 0005:000ab668       _yuyvi_to_yv12             00536668     <common>
 0005:000ab66c       _uyvyi_to_yv12             0053666c     <common>
 0005:000ab670       _yv12_to_rgbai             00536670     <common>
 0005:000ab674       _yv12_to_abgr              00536674     <common>
 0005:000ab678       _abgr_to_yv12              00536678     <common>
 0005:000ab67c       _yv12_to_bgrai             0053667c     <common>
 0005:000ab680       _bgri_to_yv12              00536680     <common>
 0005:000ab684       _argbi_to_yv12             00536684     <common>
 0005:000ab688       _yv12_to_yuyv              00536688     <common>
 0005:000ab68c       _calc_cbp                  0053668c     <common>
 0005:000ab690       _sadInit                   00536690     <common>
 0005:000ab694       _sse8_16bit                00536694     <common>
 0005:000ab698       _dev16                     00536698     <common>
 0005:000ab69c       _sad16bi                   0053669c     <common>
 0005:000ab6a0       _sad8                      005366a0     <common>
 0005:000ab6a4       _sad16v                    005366a4     <common>
 0005:000ab6a8       _sse8_8bit                 005366a8     <common>
 0005:000ab6ac       _sad16                     005366ac     <common>
 0005:000ab6b0       _sad8bi                    005366b0     <common>
 0005:000ab6b4       ___mbcodepage              005366b4     <common>
 0005:000ab6c0       ___mbulinfo                005366c0     <common>
 0005:000ab6cc       ___ismbcodepage            005366cc     <common>
 0005:000ab6e0       __mbcasemap                005366e0     <common>
 0005:000ab7e0       __mbctype                  005367e0     <common>
 0005:000ab8e4       ___mblcid                  005368e4     <common>
 0005:000ab8e8       ___sbh_sizeHeaderList      005368e8     <common>
 0005:000ab8ec       ___sbh_indGroupDefer       005368ec     <common>
 0005:000ab8f0       ___sbh_pHeaderScan         005368f0     <common>
 0005:000ab8f4       ___sbh_pHeaderDefer        005368f4     <common>
 0005:000ab8f8       ___sbh_cntHeaderList       005368f8     <common>
 0005:000ab8fc       ___sbh_pHeaderList         005368fc     <common>
 0005:000ab900       ___sbh_threshold           00536900     <common>
 0005:000ab904       __crtheap                  00536904     <common>
 0005:000ab908       ___active_heap             00536908     <common>
 0005:000ab920       ___pioinfo                 00536920     <common>
 0005:000aba20       __nhandle                  00536a20     <common>
 0005:000aba24       __acmdln                   00536a24     <common>
 0005:000aba28       ___alternate_form          00536a28     <common>
 0005:000aba2c       ___no_lead_zeros           00536a2c     <common>
 0005:000aba30       ___env_initialized         00536a30     <common>
 0005:000aba34       ___mbctype_initialized     00536a34     <common>
 0005:000aba38       ___onexitend               00536a38     <common>
 0005:000aba3c       ___onexitbegin             00536a3c     <common>
 0005:000aba40       ___piob                    00536a40     <common>
 0005:000aba60       __bufin                    00536a60     <common>
 0005:000aca60       __nstream                  00537a60     <common>
 0006:00000000       __IMPORT_DESCRIPTOR_KERNEL32 00538000     kernel32:KERNEL32.dll
 0006:00000014       __IMPORT_DESCRIPTOR_USER32 00538014     user32:USER32.dll
 0006:00000028       __IMPORT_DESCRIPTOR_WSOCK32 00538028     wsock32:WSOCK32.dll
 0006:0000003c       __IMPORT_DESCRIPTOR_LIBEAY32 0053803c     libeay32:LIBEAY32.dll
 0006:00000050       __IMPORT_DESCRIPTOR_XClientDLL 00538050     XClientDLL:XClientDLL.dll
 0006:00000064       __NULL_IMPORT_DESCRIPTOR   00538064     kernel32:KERNEL32.dll
 0006:00000268       __imp__GetLastError@0      00538268     kernel32:KERNEL32.dll
 0006:0000026c       __imp__OutputDebugStringA@4 0053826c     kernel32:KERNEL32.dll
 0006:00000270       __imp__QueryPerformanceFrequency@4 00538270     kernel32:KERNEL32.dll
 0006:00000274       __imp__QueryPerformanceCounter@4 00538274     kernel32:KERNEL32.dll
 0006:00000278       __imp__LeaveCriticalSection@4 00538278     kernel32:KERNEL32.dll
 0006:0000027c       __imp__EnterCriticalSection@4 0053827c     kernel32:KERNEL32.dll
 0006:00000280       __imp__Sleep@4             00538280     kernel32:KERNEL32.dll
 0006:00000284       __imp__GetTickCount@0      00538284     kernel32:KERNEL32.dll
 0006:00000288       __imp__CreateThread@24     00538288     kernel32:KERNEL32.dll
 0006:0000028c       __imp__InitializeCriticalSection@4 0053828c     kernel32:KERNEL32.dll
 0006:00000290       __imp__SetEnvironmentVariableA@8 00538290     kernel32:KERNEL32.dll
 0006:00000294       __imp__CompareStringW@24   00538294     kernel32:KERNEL32.dll
 0006:00000298       __imp__CompareStringA@24   00538298     kernel32:KERNEL32.dll
 0006:0000029c       __imp__GetLocaleInfoW@16   0053829c     kernel32:KERNEL32.dll
 0006:000002a0       __imp__SetEndOfFile@4      005382a0     kernel32:KERNEL32.dll
 0006:000002a4       __imp__GetOEMCP@0          005382a4     kernel32:KERNEL32.dll
 0006:000002a8       __imp__GetACP@0            005382a8     kernel32:KERNEL32.dll
 0006:000002ac       __imp__LCMapStringW@24     005382ac     kernel32:KERNEL32.dll
 0006:000002b0       __imp__LCMapStringA@24     005382b0     kernel32:KERNEL32.dll
 0006:000002b4       __imp__MultiByteToWideChar@24 005382b4     kernel32:KERNEL32.dll
 0006:000002b8       __imp__GetStringTypeW@16   005382b8     kernel32:KERNEL32.dll
 0006:000002bc       __imp__GetStringTypeA@20   005382bc     kernel32:KERNEL32.dll
 0006:000002c0       __imp__SetStdHandle@8      005382c0     kernel32:KERNEL32.dll
 0006:000002c4       __imp__CreateFileA@28      005382c4     kernel32:KERNEL32.dll
 0006:000002c8       __imp__LoadLibraryA@4      005382c8     kernel32:KERNEL32.dll
 0006:000002cc       __imp__IsBadCodePtr@4      005382cc     kernel32:KERNEL32.dll
 0006:000002d0       __imp__IsBadReadPtr@8      005382d0     kernel32:KERNEL32.dll
 0006:000002d4       __imp__GetEnvironmentStringsW@0 005382d4     kernel32:KERNEL32.dll
 0006:000002d8       __imp__GetEnvironmentStrings@0 005382d8     kernel32:KERNEL32.dll
 0006:000002dc       __imp__FreeEnvironmentStringsW@4 005382dc     kernel32:KERNEL32.dll
 0006:000002e0       __imp__FreeEnvironmentStringsA@4 005382e0     kernel32:KERNEL32.dll
 0006:000002e4       __imp__UnhandledExceptionFilter@4 005382e4     kernel32:KERNEL32.dll
 0006:000002e8       __imp__SetUnhandledExceptionFilter@4 005382e8     kernel32:KERNEL32.dll
 0006:000002ec       __imp__SetFilePointer@16   005382ec     kernel32:KERNEL32.dll
 0006:000002f0       __imp__WideCharToMultiByte@32 005382f0     kernel32:KERNEL32.dll
 0006:000002f4       __imp__FlushFileBuffers@4  005382f4     kernel32:KERNEL32.dll
 0006:000002f8       __imp__ReadFile@20         005382f8     kernel32:KERNEL32.dll
 0006:000002fc       __imp__GetUserDefaultLCID@0 005382fc     kernel32:KERNEL32.dll
 0006:00000300       __imp__EnumSystemLocalesA@8 00538300     kernel32:KERNEL32.dll
 0006:00000304       __imp__GetLocaleInfoA@16   00538304     kernel32:KERNEL32.dll
 0006:00000308       __imp__IsValidCodePage@4   00538308     kernel32:KERNEL32.dll
 0006:0000030c       __imp__IsValidLocale@8     0053830c     kernel32:KERNEL32.dll
 0006:00000310       __imp__GetCPInfo@8         00538310     kernel32:KERNEL32.dll
 0006:00000314       __imp__HeapSize@12         00538314     kernel32:KERNEL32.dll
 0006:00000318       __imp__IsBadWritePtr@8     00538318     kernel32:KERNEL32.dll
 0006:0000031c       __imp__VirtualAlloc@16     0053831c     kernel32:KERNEL32.dll
 0006:00000320       __imp__VirtualFree@12      00538320     kernel32:KERNEL32.dll
 0006:00000324       __imp__HeapCreate@12       00538324     kernel32:KERNEL32.dll
 0006:00000328       __imp__HeapDestroy@4       00538328     kernel32:KERNEL32.dll
 0006:0000032c       __imp__GetVersionExA@4     0053832c     kernel32:KERNEL32.dll
 0006:00000330       __imp__GetEnvironmentVariableA@12 00538330     kernel32:KERNEL32.dll
 0006:00000334       __imp__GetModuleHandleA@4  00538334     kernel32:KERNEL32.dll
 0006:00000338       __imp__GetProcAddress@8    00538338     kernel32:KERNEL32.dll
 0006:0000033c       __imp__GetStartupInfoA@4   0053833c     kernel32:KERNEL32.dll
 0006:00000340       __imp__GetFileType@4       00538340     kernel32:KERNEL32.dll
 0006:00000344       __imp__SetHandleCount@4    00538344     kernel32:KERNEL32.dll
 0006:00000348       __imp__GetModuleFileNameA@12 00538348     kernel32:KERNEL32.dll
 0006:0000034c       __imp__GetStdHandle@4      0053834c     kernel32:KERNEL32.dll
 0006:00000350       __imp__WriteFile@20        00538350     kernel32:KERNEL32.dll
 0006:00000354       __imp__GetSystemInfo@4     00538354     kernel32:KERNEL32.dll
 0006:00000358       __imp__CloseHandle@4       00538358     kernel32:KERNEL32.dll
 0006:0000035c       __imp__WaitForSingleObject@8 0053835c     kernel32:KERNEL32.dll
 0006:00000360       __imp__RtlUnwind@16        00538360     kernel32:KERNEL32.dll
 0006:00000364       __imp__HeapFree@12         00538364     kernel32:KERNEL32.dll
 0006:00000368       __imp__HeapAlloc@12        00538368     kernel32:KERNEL32.dll
 0006:0000036c       __imp__ExitProcess@4       0053836c     kernel32:KERNEL32.dll
 0006:00000370       __imp__TerminateProcess@8  00538370     kernel32:KERNEL32.dll
 0006:00000374       __imp__GetCurrentProcess@0 00538374     kernel32:KERNEL32.dll
 0006:00000378       __imp__GetTimeZoneInformation@4 00538378     kernel32:KERNEL32.dll
 0006:0000037c       __imp__GetSystemTime@4     0053837c     kernel32:KERNEL32.dll
 0006:00000380       __imp__GetLocalTime@4      00538380     kernel32:KERNEL32.dll
 0006:00000384       __imp__GetCommandLineA@0   00538384     kernel32:KERNEL32.dll
 0006:00000388       __imp__GetVersion@0        00538388     kernel32:KERNEL32.dll
 0006:0000038c       __imp__HeapReAlloc@16      0053838c     kernel32:KERNEL32.dll
 0006:00000390       __imp__GetSystemTimeAsFileTime@4 00538390     kernel32:KERNEL32.dll
 0006:00000394       \177KERNEL32_NULL_THUNK_DATA 00538394     kernel32:KERNEL32.dll
 0006:00000398       __imp__RSA_new             00538398     libeay32:LIBEAY32.dll
 0006:0000039c       __imp__ERR_error_string    0053839c     libeay32:LIBEAY32.dll
 0006:000003a0       __imp__ERR_get_error       005383a0     libeay32:LIBEAY32.dll
 0006:000003a4       __imp__RSA_free            005383a4     libeay32:LIBEAY32.dll
 0006:000003a8       __imp__RSA_public_encrypt  005383a8     libeay32:LIBEAY32.dll
 0006:000003ac       __imp__BN_bin2bn           005383ac     libeay32:LIBEAY32.dll
 0006:000003b0       \177LIBEAY32_NULL_THUNK_DATA 005383b0     libeay32:LIBEAY32.dll
 0006:000003b4       __imp__DestroyWindow@4     005383b4     user32:USER32.dll
 0006:000003b8       __imp__CreateWindowExA@48  005383b8     user32:USER32.dll
 0006:000003bc       __imp__RegisterClassExA@4  005383bc     user32:USER32.dll
 0006:000003c0       __imp__LoadCursorA@8       005383c0     user32:USER32.dll
 0006:000003c4       __imp__DispatchMessageA@4  005383c4     user32:USER32.dll
 0006:000003c8       __imp__TranslateMessage@4  005383c8     user32:USER32.dll
 0006:000003cc       __imp__GetMessageA@16      005383cc     user32:USER32.dll
 0006:000003d0       __imp__LoadIconA@8         005383d0     user32:USER32.dll
 0006:000003d4       \177USER32_NULL_THUNK_DATA 005383d4     user32:USER32.dll
 0006:000003d8       __imp__WSAStartup@8        005383d8     wsock32:WSOCK32.dll
 0006:000003dc       __imp__WSACleanup@0        005383dc     wsock32:WSOCK32.dll
 0006:000003e0       __imp__inet_ntoa@4         005383e0     wsock32:WSOCK32.dll
 0006:000003e4       __imp__inet_addr@4         005383e4     wsock32:WSOCK32.dll
 0006:000003e8       __imp__htons@4             005383e8     wsock32:WSOCK32.dll
 0006:000003ec       __imp__gethostbyname@4     005383ec     wsock32:WSOCK32.dll
 0006:000003f0       __imp__ntohl@4             005383f0     wsock32:WSOCK32.dll
 0006:000003f4       __imp__getsockname@12      005383f4     wsock32:WSOCK32.dll
 0006:000003f8       __imp__getsockopt@20       005383f8     wsock32:WSOCK32.dll
 0006:000003fc       __imp__sendto@24           005383fc     wsock32:WSOCK32.dll
 0006:00000400       __imp__recvfrom@24         00538400     wsock32:WSOCK32.dll
 0006:00000404       __imp__ioctlsocket@12      00538404     wsock32:WSOCK32.dll
 0006:00000408       __imp__setsockopt@20       00538408     wsock32:WSOCK32.dll
 0006:0000040c       __imp__bind@12             0053840c     wsock32:WSOCK32.dll
 0006:00000410       __imp__ntohs@4             00538410     wsock32:WSOCK32.dll
 0006:00000414       __imp__closesocket@4       00538414     wsock32:WSOCK32.dll
 0006:00000418       __imp__gethostname@8       00538418     wsock32:WSOCK32.dll
 0006:0000041c       __imp__select@20           0053841c     wsock32:WSOCK32.dll
 0006:00000420       __imp__WSAGetLastError@0   00538420     wsock32:WSOCK32.dll
 0006:00000424       __imp__socket@12           00538424     wsock32:WSOCK32.dll
 0006:00000428       __imp____WSAFDIsSet@8      00538428     wsock32:WSOCK32.dll
 0006:0000042c       __imp__send@16             0053842c     wsock32:WSOCK32.dll
 0006:00000430       __imp__connect@12          00538430     wsock32:WSOCK32.dll
 0006:00000434       __imp__listen@8            00538434     wsock32:WSOCK32.dll
 0006:00000438       __imp__accept@12           00538438     wsock32:WSOCK32.dll
 0006:0000043c       __imp__recv@16             0053843c     wsock32:WSOCK32.dll
 0006:00000440       __imp__htonl@4             00538440     wsock32:WSOCK32.dll
 0006:00000444       \177WSOCK32_NULL_THUNK_DATA 00538444     wsock32:WSOCK32.dll
 0006:00000448       __imp__X_ClientStart@12    00538448     XClientDLL:XClientDLL.dll
 0006:0000044c       __imp__X_ClientInit@8      0053844c     XClientDLL:XClientDLL.dll
 0006:00000450       __imp__X_ClientSetCapPicCallBack@4 00538450     XClientDLL:XClientDLL.dll
 0006:00000454       \177XClientDLL_NULL_THUNK_DATA 00538454     XClientDLL:XClientDLL.dll

 entry point at        0001:00055b6a

 Static symbols

 0001:00015a80       _$E2                       00416a80 f   testlive555.obj
 0001:00015a90       _$E1                       00416a90 f   testlive555.obj
 0001:00015ac0       _$E5                       00416ac0 f   testlive555.obj
 0001:00015ad0       _$E4                       00416ad0 f   testlive555.obj
 0001:00015b00       _$E8                       00416b00 f   testlive555.obj
 0001:00015b10       _$E7                       00416b10 f   testlive555.obj
 0001:00011180       _$E22                      00412180 f   RTSPServer.obj
 0001:00011190       _$E19                      00412190 f   RTSPServer.obj
 0001:000111b0       _$E21                      004121b0 f   RTSPServer.obj
 0001:000111c0       _$E20                      004121c0 f   RTSPServer.obj
 0001:000129a0       _$E8                       004139a0 f   RTSPServer.obj
 0001:000129b0       _$E7                       004139b0 f   RTSPServer.obj
 0001:000129e0       _$E11                      004139e0 f   RTSPServer.obj
 0001:000129f0       _$E10                      004139f0 f   RTSPServer.obj
 0001:00012a20       _$E14                      00413a20 f   RTSPServer.obj
 0001:00012a30       _$E13                      00413a30 f   RTSPServer.obj
 0001:00014370       ?parseAuthorizationHeader@@YAIPBDAAPBD1111@Z 00415370 f   RTSPServer.obj
 0001:0000b050       ?deregisterSocket@@YAXAAVUsageEnvironment@@HE@Z 0040c050 f   RTPInterface.obj
 0001:0000b080       ?lookupSocketDescriptor@@YAPAVSocketDescriptor@@AAVUsageEnvironment@@HI@Z 0040c080 f   RTPInterface.obj
 0001:0000b110       ?socketHashTable@@YAPAVHashTable@@AAVUsageEnvironment@@@Z 0040c110 f   RTPInterface.obj
 0001:0000b390       ?sendRTPOverTCP@@YAHPAEIHE@Z 0040c390 f   RTPInterface.obj
 0001:0000b5a0       ?removeSocketDescription@@YAXAAVUsageEnvironment@@H@Z 0040c5a0 f   RTPInterface.obj
 0001:00009ab0       ?dTimeNow@@YANXZ           0040aab0 f   RTCP.obj
 0001:00008aa0       _MD5Transform              00409aa0 f   our_md5.obj
 0001:000093e0       _Decode                    0040a3e0 f   our_md5.obj
 0001:000094a0       _Encode                    0040a4a0 f   our_md5.obj
 0001:00008980       _$E21                      00409980 f   NetInterface.obj
 0001:000089a0       _$E20                      004099a0 f   NetInterface.obj
 0001:00005c80       ?socketErr@@YAXAAVUsageEnvironment@@PBD@Z 00406c80 f   GroupsockHelper.obj
 0001:00005ea0       ?blockUntilReadable@@YAHAAVUsageEnvironment@@HPAUtimeval@@@Z 00406ea0 f   GroupsockHelper.obj
 0001:000060b0       ?getBufferSize@@YAIAAVUsageEnvironment@@HH@Z 004070b0 f   GroupsockHelper.obj
 0001:00006120       ?increaseBufferTo@@YAIAAVUsageEnvironment@@HHI@Z 00407120 f   GroupsockHelper.obj
 0001:00006350       ?getSourcePort0@@YAIHAAG@Z 00407350 f   GroupsockHelper.obj
 0001:000065e0       ?badAddress@@YAII@Z        004075e0 f   GroupsockHelper.obj
 0001:00005090       _$E21                      00406090 f   Groupsock.obj
 0001:000050a0       _$E20                      004060a0 f   Groupsock.obj
 0001:000050b0       _$E24                      004060b0 f   Groupsock.obj
 0001:000050c0       _$E23                      004060c0 f   Groupsock.obj
 0001:000050d0       _$E27                      004060d0 f   Groupsock.obj
 0001:000050e0       _$E26                      004060e0 f   Groupsock.obj
 0001:000050f0       _$E30                      004060f0 f   Groupsock.obj
 0001:00005100       _$E29                      00406100 f   Groupsock.obj
 0001:00005ae0       _$E37                      00406ae0 f   Groupsock.obj
 0001:00005b00       _$E36                      00406b00 f   Groupsock.obj
 0001:00003b00       ?afterPlayingStreamState@@YAXPAX@Z 00404b00 f   EncoderMediaSubsession.obj
 0001:00002bc0       ?WndProc@@YGJPAUHWND__@@IIJ@Z 00403bc0 f   DvrWnd.obj
 0001:000021f0       _$E12                      004031f0 f   DelayQueue.obj
 0001:00002200       _$E11                      00403200 f   DelayQueue.obj
 0001:00002210       _$E15                      00403210 f   DelayQueue.obj
 0001:00002220       _$E14                      00403220 f   DelayQueue.obj
 0001:00002240       _$E18                      00403240 f   DelayQueue.obj
 0001:00002250       _$E17                      00403250 f   DelayQueue.obj
 0001:00002570       _$E2                       00403570 f   DelayQueue.obj
 0001:00002580       _$E1                       00403580 f   DelayQueue.obj
 0001:00002680       _$E5                       00403680 f   DelayQueue.obj
 0001:00002690       _$E4                       00403690 f   DelayQueue.obj
 0001:000026c0       _$E8                       004036c0 f   DelayQueue.obj
 0001:000026d0       _$E7                       004036d0 f   DelayQueue.obj
 0001:00002730       _$E21                      00403730 f   DelayQueue.obj
 0001:00002740       _$E20                      00403740 f   DelayQueue.obj
 0001:00001fd0       _$E2                       00402fd0 f   BasicUsageEnvironment.obj
 0001:00001fe0       _$E1                       00402fe0 f   BasicUsageEnvironment.obj
 0001:00002010       _$E5                       00403010 f   BasicUsageEnvironment.obj
 0001:00002020       _$E4                       00403020 f   BasicUsageEnvironment.obj
 0001:00002050       _$E8                       00403050 f   BasicUsageEnvironment.obj
 0001:00002060       _$E7                       00403060 f   BasicUsageEnvironment.obj
 0001:00001d40       _$E2                       00402d40 f   BasicUsageEnvironment0.obj
 0001:00001d50       _$E1                       00402d50 f   BasicUsageEnvironment0.obj
 0001:00001d80       _$E5                       00402d80 f   BasicUsageEnvironment0.obj
 0001:00001d90       _$E4                       00402d90 f   BasicUsageEnvironment0.obj
 0001:00001dc0       _$E8                       00402dc0 f   BasicUsageEnvironment0.obj
 0001:00001dd0       _$E7                       00402dd0 f   BasicUsageEnvironment0.obj
 0001:000017d0       _$E2                       004027d0 f   BasicTaskScheduler.obj
 0001:000017e0       _$E1                       004027e0 f   BasicTaskScheduler.obj
 0001:00001810       _$E5                       00402810 f   BasicTaskScheduler.obj
 0001:00001820       _$E4                       00402820 f   BasicTaskScheduler.obj
 0001:00001850       _$E8                       00402850 f   BasicTaskScheduler.obj
 0001:00001860       _$E7                       00402860 f   BasicTaskScheduler.obj
 0001:00000fb0       _$E2                       00401fb0 f   BasicTaskScheduler0.obj
 0001:00000fc0       _$E1                       00401fc0 f   BasicTaskScheduler0.obj
 0001:00000ff0       _$E5                       00401ff0 f   BasicTaskScheduler0.obj
 0001:00001000       _$E4                       00402000 f   BasicTaskScheduler0.obj
 0001:00001030       _$E8                       00402030 f   BasicTaskScheduler0.obj
 0001:00001040       _$E7                       00402040 f   BasicTaskScheduler0.obj
 0001:00051590       _SearchInterpolate_RD      00452590 f   libxvidcore:estimation_rd_based_bvop.obj
 0001:00051660       _CheckCandidateRDInt       00452660 f   libxvidcore:estimation_rd_based_bvop.obj
 0001:00052020       _SearchDirect_RD           00453020 f   libxvidcore:estimation_rd_based_bvop.obj
 0001:00052060       _CheckCandidateRDDirect    00453060 f   libxvidcore:estimation_rd_based_bvop.obj
 0001:00052a00       _SearchBF_RD               00453a00 f   libxvidcore:estimation_rd_based_bvop.obj
 0001:00052ad0       _CheckCandidateRDBF        00453ad0 f   libxvidcore:estimation_rd_based_bvop.obj
 0001:000531d0       _get_sad_for_mode          004541d0 f   libxvidcore:estimation_rd_based_bvop.obj
 0001:0004dbd0       _findRD_inter              0044ebd0 f   libxvidcore:estimation_rd_based.obj
 0001:0004de90       _CheckCandidateRD16        0044ee90 f   libxvidcore:estimation_rd_based.obj
 0001:0004e660       _findRD_inter4v            0044f660 f   libxvidcore:estimation_rd_based.obj
 0001:0004f2f0       _CheckCandidateRD8         004502f0 f   libxvidcore:estimation_rd_based.obj
 0001:0004f580       _findRD_intra              00450580 f   libxvidcore:estimation_rd_based.obj
 0001:0004fb40       _Block_CalcBitsIntra       00450b40 f   libxvidcore:estimation_rd_based.obj
 0001:0004fda0       _findRD_gmc                00450da0 f   libxvidcore:estimation_rd_based.obj
 0001:0004acb0       _initialize_searchData     0044bcb0 f   libxvidcore:estimation_bvop.obj
 0001:0004af10       _SearchBF_initial          0044bf10 f   libxvidcore:estimation_bvop.obj
 0001:0004b260       _SearchBF_final            0044c260 f   libxvidcore:estimation_bvop.obj
 0001:0004b420       _SkipDecisionB             0044c420 f   libxvidcore:estimation_bvop.obj
 0001:0004b690       _SearchDirect_initial      0044c690 f   libxvidcore:estimation_bvop.obj
 0001:0004b990       _CheckCandidateDirect      0044c990 f   libxvidcore:estimation_bvop.obj
 0001:0004bd40       _ChromaSAD2                0044cd40 f   libxvidcore:estimation_bvop.obj
 0001:0004bf60       _SearchDirect_final        0044cf60 f   libxvidcore:estimation_bvop.obj
 0001:0004c010       _CheckCandidateDirectno4v  0044d010 f   libxvidcore:estimation_bvop.obj
 0001:0004c2d0       _SearchInterpolate_initial 0044d2d0 f   libxvidcore:estimation_bvop.obj
 0001:0004c4b0       _CheckCandidateInt         0044d4b0 f   libxvidcore:estimation_bvop.obj
 0001:0004c7d0       _SearchInterpolate_final   0044d7d0 f   libxvidcore:estimation_bvop.obj
 0001:0004cad0       _ModeDecision_BVOP_SAD     0044dad0 f   libxvidcore:estimation_bvop.obj
 0001:00049320       _CheckCandidate16I         0044a320 f   libxvidcore:estimation_gmc.obj
 0001:00046680       _ModeDecision_SAD          00447680 f   libxvidcore:estimation_pvop.obj
 0001:00046bb0       _SearchP                   00447bb0 f   libxvidcore:estimation_pvop.obj
 0001:00047960       _CheckCandidate16          00448960 f   libxvidcore:estimation_pvop.obj
 0001:00047b90       _Search8                   00448b90 f   libxvidcore:estimation_pvop.obj
 0001:00048070       _CheckCandidate8           00449070 f   libxvidcore:estimation_pvop.obj
 0001:000481c0       _InitialSkipDecisionP      004491c0 f   libxvidcore:estimation_pvop.obj
 0001:00044290       _get_ref                   00445290 f   libxvidcore:motion_comp.obj
 0001:00044380       _CompensateChroma          00445380 f   libxvidcore:motion_comp.obj
 0001:000459d0       _interpolate8x8_switch2    004469d0 f   libxvidcore:motion_comp.obj
 0001:00045a70       _interpolate16x16_quarterpel 00446a70 f   libxvidcore:motion_comp.obj
 0001:00045d30       _interpolate8x8_quarterpel 00446d30 f   libxvidcore:motion_comp.obj
 0001:00043850       _CheckCandidate32I         00444850 f   libxvidcore:vop_type_decision.obj
 0001:000412f0       _calc_acdc_coeff           004422f0 f   libxvidcore:mbprediction.obj
 0001:00041420       _calc_acdc_bits            00442420 f   libxvidcore:mbprediction.obj
 0001:00041590       _apply_acdc                00442590 f   libxvidcore:mbprediction.obj
 0001:0003a900       _DPRINTF                   0043b900 f   libxvidcore:image.obj
 0001:00040540       _log2bin                   00441540 f   libxvidcore:bitstream.obj
 0001:00038970       _BitstreamForward          00439970 f   libxvidcore:mbcoding.obj
 0001:0003e100       _BitstreamPutBits          0043f100 f   libxvidcore:encoder.obj
 0001:00040580       _BitstreamPadAlways        00441580 f   libxvidcore:bitstream.obj
 0001:000406b0       _bs_put_matrix             004416b0 f   libxvidcore:bitstream.obj
 0001:0003fb20       _draw_num                  00440b20 f   libxvidcore:font.obj
 0001:0003a900       _DPRINTF                   0043b900 f   libxvidcore:image.obj
 0001:0003d550       _call_plugins              0043e550 f   libxvidcore:encoder.obj
 0001:0003dc20       _simplify_par              0043ec20 f   libxvidcore:encoder.obj
 0001:0003dcd0       _gcd                       0043ecd0 f   libxvidcore:encoder.obj
 0001:0003dd00       _FrameCodeI                0043ed00 f   libxvidcore:encoder.obj
 0001:0003e100       _BitstreamPutBits          0043f100 f   libxvidcore:encoder.obj
 0001:0003e220       _SetMacroblockQuants       0043f220 f   libxvidcore:encoder.obj
 0001:0003e2a0       _FrameCodeP                0043f2a0 f   libxvidcore:encoder.obj
 0001:0003efe0       _FrameCodeB                0043ffe0 f   libxvidcore:encoder.obj
 0001:0003a900       _DPRINTF                   0043b900 f   libxvidcore:image.obj
 0001:0003b070       _safe_packed_conv          0043c070 f   libxvidcore:image.obj
 0001:00038940       _BitstreamPos              00439940 f   libxvidcore:mbcoding.obj
 0001:00038970       _BitstreamForward          00439970 f   libxvidcore:mbcoding.obj
 0001:000389c0       _CodeCoeffIntra            004399c0 f   libxvidcore:mbcoding.obj
 0001:00038cd0       _BitstreamPutBits          00439cd0 f   libxvidcore:mbcoding.obj
 0001:00038df0       _CodeBlockInter            00439df0 f   libxvidcore:mbcoding.obj
 0001:0003a900       _DPRINTF                   0043b900 f   libxvidcore:image.obj
 0001:000392f0       _CodeVector                0043a2f0 f   libxvidcore:mbcoding.obj
 0001:00039670       _CodeCoeffInter            0043a670 f   libxvidcore:mbcoding.obj
 0001:00035650       _MBiDCT                    00436650 f   libxvidcore:mbtransquant.obj
 0001:000356e0       _get_dc_scaler             004366e0 f   libxvidcore:mbtransquant.obj
 0001:00035720       _MBTrans16to8              00436720 f   libxvidcore:mbtransquant.obj
 0001:000365a0       _dct_quantize_trellis_c    004375a0 f   libxvidcore:mbtransquant.obj
 0001:00023880       _Predict_16x16_C           00424880 f   libxvidcore:gmc.obj
 0001:00023a70       _Predict_8x8_C             00424a70 f   libxvidcore:gmc.obj
 0001:00023cf0       _Predict_16x16_mmx         00424cf0 f   libxvidcore:gmc.obj
 0001:00024090       _GMC_Core_Non_Lin_8        00425090 f   libxvidcore:gmc.obj
 0001:00024140       _Predict_8x8_mmx           00425140 f   libxvidcore:gmc.obj
 0001:00024710       _get_average_mv_C          00425710 f   libxvidcore:gmc.obj
 0001:00024870       _Predict_1pt_16x16_C       00425870 f   libxvidcore:gmc.obj
 0001:000249e0       _Predict_1pt_8x8_C         004259e0 f   libxvidcore:gmc.obj
 0001:00024c00       _get_average_mv_1pt_C      00425c00 f   libxvidcore:gmc.obj
 0001:00019240       _H_Pass_16_C_ref           0041a240 f   libxvidcore:qpel.obj
 0001:00019300       _V_Pass_16_C_ref           0041a300 f   libxvidcore:qpel.obj
 0001:000193d0       _H_Pass_Avrg_16_C_ref      0041a3d0 f   libxvidcore:qpel.obj
 0001:000194b0       _H_Pass_Avrg_Up_16_C_ref   0041a4b0 f   libxvidcore:qpel.obj
 0001:00019580       _V_Pass_Avrg_16_C_ref      0041a580 f   libxvidcore:qpel.obj
 0001:00019660       _V_Pass_Avrg_Up_16_C_ref   0041a660 f   libxvidcore:qpel.obj
 0001:00019750       _H_Pass_16_Add_C_ref       0041a750 f   libxvidcore:qpel.obj
 0001:00019820       _V_Pass_16_Add_C_ref       0041a820 f   libxvidcore:qpel.obj
 0001:000198f0       _H_Pass_Avrg_16_Add_C_ref  0041a8f0 f   libxvidcore:qpel.obj
 0001:000199d0       _H_Pass_Avrg_Up_16_Add_C_ref 0041a9d0 f   libxvidcore:qpel.obj
 0001:00019ab0       _V_Pass_Avrg_16_Add_C_ref  0041aab0 f   libxvidcore:qpel.obj
 0001:00019ba0       _V_Pass_Avrg_Up_16_Add_C_ref 0041aba0 f   libxvidcore:qpel.obj
 0001:00019ca0       _H_Pass_8_C_ref            0041aca0 f   libxvidcore:qpel.obj
 0001:00019d60       _V_Pass_8_C_ref            0041ad60 f   libxvidcore:qpel.obj
 0001:00019e30       _H_Pass_Avrg_8_C_ref       0041ae30 f   libxvidcore:qpel.obj
 0001:00019f10       _H_Pass_Avrg_Up_8_C_ref    0041af10 f   libxvidcore:qpel.obj
 0001:00019fe0       _V_Pass_Avrg_8_C_ref       0041afe0 f   libxvidcore:qpel.obj
 0001:0001a0c0       _V_Pass_Avrg_Up_8_C_ref    0041b0c0 f   libxvidcore:qpel.obj
 0001:0001a1b0       _H_Pass_8_Add_C_ref        0041b1b0 f   libxvidcore:qpel.obj
 0001:0001a280       _V_Pass_8_Add_C_ref        0041b280 f   libxvidcore:qpel.obj
 0001:0001a350       _H_Pass_Avrg_8_Add_C_ref   0041b350 f   libxvidcore:qpel.obj
 0001:0001a430       _H_Pass_Avrg_Up_8_Add_C_ref 0041b430 f   libxvidcore:qpel.obj
 0001:0001a510       _V_Pass_Avrg_8_Add_C_ref   0041b510 f   libxvidcore:qpel.obj
 0001:0001a600       _V_Pass_Avrg_Up_8_Add_C_ref 0041b600 f   libxvidcore:qpel.obj
 0001:0001a700       _H_Pass_16_C               0041b700 f   libxvidcore:qpel.obj
 0001:0001ad20       _H_Pass_Avrg_16_C          0041bd20 f   libxvidcore:qpel.obj
 0001:0001b3e0       _H_Pass_Avrg_Up_16_C       0041c3e0 f   libxvidcore:qpel.obj
 0001:0001baa0       _V_Pass_16_C               0041caa0 f   libxvidcore:qpel.obj
 0001:0001c2e0       _V_Pass_Avrg_16_C          0041d2e0 f   libxvidcore:qpel.obj
 0001:0001cc00       _V_Pass_Avrg_Up_16_C       0041dc00 f   libxvidcore:qpel.obj
 0001:0001d520       _H_Pass_16_Add_C           0041e520 f   libxvidcore:qpel.obj
 0001:0001dc40       _H_Pass_Avrg_16_Add_C      0041ec40 f   libxvidcore:qpel.obj
 0001:0001e3b0       _H_Pass_Avrg_Up_16_Add_C   0041f3b0 f   libxvidcore:qpel.obj
 0001:0001eb20       _V_Pass_16_Add_C           0041fb20 f   libxvidcore:qpel.obj
 0001:0001f420       _V_Pass_Avrg_16_Add_C      00420420 f   libxvidcore:qpel.obj
 0001:0001fdf0       _V_Pass_Avrg_Up_16_Add_C   00420df0 f   libxvidcore:qpel.obj
 0001:000207c0       _H_Pass_8_C                004217c0 f   libxvidcore:qpel.obj
 0001:00020ae0       _H_Pass_Avrg_8_C           00421ae0 f   libxvidcore:qpel.obj
 0001:00020e50       _H_Pass_Avrg_Up_8_C        00421e50 f   libxvidcore:qpel.obj
 0001:000211b0       _V_Pass_8_C                004221b0 f   libxvidcore:qpel.obj
 0001:00021560       _V_Pass_Avrg_8_C           00422560 f   libxvidcore:qpel.obj
 0001:000219b0       _V_Pass_Avrg_Up_8_C        004229b0 f   libxvidcore:qpel.obj
 0001:00021df0       _H_Pass_8_Add_C            00422df0 f   libxvidcore:qpel.obj
 0001:00022170       _H_Pass_Avrg_8_Add_C       00423170 f   libxvidcore:qpel.obj
 0001:00022530       _H_Pass_Avrg_Up_8_Add_C    00423530 f   libxvidcore:qpel.obj
 0001:000228f0       _V_Pass_8_Add_C            004238f0 f   libxvidcore:qpel.obj
 0001:00022d00       _V_Pass_Avrg_8_Add_C       00423d00 f   libxvidcore:qpel.obj
 0001:000231b0       _V_Pass_Avrg_Up_8_Add_C    004241b0 f   libxvidcore:qpel.obj
 0001:000237c0       _Init_FIR_Table            004247c0 f   libxvidcore:qpel.obj
 0001:00018e20       _rc_single_create          00419e20 f   libxvidcore:plugin_single.obj
 0001:00018f60       _get_initial_quant         00419f60 f   libxvidcore:plugin_single.obj
 0001:00018f70       _rc_single_destroy         00419f70 f   libxvidcore:plugin_single.obj
 0001:00018f80       _rc_single_before          00419f80 f   libxvidcore:plugin_single.obj
 0001:00019000       _rc_single_after           0041a000 f   libxvidcore:plugin_single.obj
 0001:0003a900       _DPRINTF                   0043b900 f   libxvidcore:image.obj
 0001:00016f50       _rc_2pass2_create          00417f50 f   libxvidcore:plugin_2pass2.obj
 0001:0003a900       _DPRINTF                   0043b900 f   libxvidcore:image.obj
 0001:000173f0       _rc_2pass2_destroy         004183f0 f   libxvidcore:plugin_2pass2.obj
 0001:00017420       _rc_2pass2_before          00418420 f   libxvidcore:plugin_2pass2.obj
 0001:00017840       _rc_2pass2_after           00418840 f   libxvidcore:plugin_2pass2.obj
 0001:00017a00       _statsfile_count_frames    00418a00 f   libxvidcore:plugin_2pass2.obj
 0001:00017b40       _statsfile_load            00418b40 f   libxvidcore:plugin_2pass2.obj
 0001:00017ce0       _first_pass_stats_prepare_data 00418ce0 f   libxvidcore:plugin_2pass2.obj
 0001:00017e70       _zone_process              00418e70 f   libxvidcore:plugin_2pass2.obj
 0001:000180c0       _first_pass_scale_curve_internal 004190c0 f   libxvidcore:plugin_2pass2.obj
 0001:00018250       _scaled_curve_apply_advanced_parameters 00419250 f   libxvidcore:plugin_2pass2.obj
 0001:00018530       _check_curve_for_vbv_compliancy 00419530 f   libxvidcore:plugin_2pass2.obj
 0001:000186b0       _scale_curve_for_vbv_compliancy 004196b0 f   libxvidcore:plugin_2pass2.obj
 0001:00018c30       _readline                  00419c30 f   libxvidcore:plugin_2pass2.obj
 0001:00018cc0       _skipspaces                00419cc0 f   libxvidcore:plugin_2pass2.obj
 0001:00018d10       _iscomment                 00419d10 f   libxvidcore:plugin_2pass2.obj
 0001:00016ca0       _rc_2pass1_create          00417ca0 f   libxvidcore:plugin_2pass1.obj
 0001:00016d40       _rc_2pass1_destroy         00417d40 f   libxvidcore:plugin_2pass1.obj
 0001:00016d90       _rc_2pass1_before          00417d90 f   libxvidcore:plugin_2pass1.obj
 0001:00016e20       _rc_2pass1_after           00417e20 f   libxvidcore:plugin_2pass1.obj
 0001:0003a900       _DPRINTF                   0043b900 f   libxvidcore:image.obj
 0001:00016040       _xvid_gbl_init             00417040 f   libxvidcore:xvid.obj
 0001:000169b0       _detect_cpu_flags          004179b0 f   libxvidcore:xvid.obj
 0001:00016a00       _sigill_check              00417a00 f   libxvidcore:xvid.obj
 0001:00016a90       _xvid_gbl_info             00417a90 f   libxvidcore:xvid.obj
 0001:00016af0       _xvid_gbl_convert          00417af0 f   libxvidcore:xvid.obj
 0001:00060404       _findenv                   00461404 f   LIBC:setenv.obj
 0001:0006045c       _copy_environ              0046145c f   LIBC:setenv.obj
 0001:0005ea71       _strncnt                   0045fa71 f   LIBC:a_map.obj
 0001:0005ecb2       _getSystemCP               0045fcb2 f   LIBC:mbctype.obj
 0001:0005ecfc       _CPtoLCID                  0045fcfc f   LIBC:mbctype.obj
 0001:0005ed2f       _setSBCS                   0045fd2f f   LIBC:mbctype.obj
 0001:0005ed58       _setSBUpLow                0045fd58 f   LIBC:mbctype.obj
 0001:0005ea71       _strncnt                   0045fa71 f   LIBC:a_map.obj
 0001:0005e66e       _xtoa                      0045f66e f   LIBC:xtoa.obj
 0001:0005db48       _strtoxl                   0045eb48 f   LIBC:strtol.obj
 0001:0005d490       __abstract_cw              0045e490 f   LIBC:ieee87.obj
 0001:0005d522       __hw_cw                    0045e522 f   LIBC:ieee87.obj
 0001:0005ce36       _parse_cmdline             0045de36 f   LIBC:stdargv.obj
 0001:0005cca1       _xcptlookup                0045dca1 f   LIBC:winxfltr.obj
 0001:0005c67b       _cvtdate                   0045d67b f   LIBC:tzset.obj
 0001:0005c031       __hextodec                 0045d031 f   LIBC:input.obj
 0001:0005c068       __inc                      0045d068 f   LIBC:input.obj
 0001:0005c082       __un_inc                   0045d082 f   LIBC:input.obj
 0001:0005c099       __whiteout                 0045d099 f   LIBC:input.obj
 0001:0005ab47       _TranslateName             0045bb47 f   LIBC:getqloc.obj
 0001:0005ab9f       _GetLcidFromLangCountry    0045bb9f f   LIBC:getqloc.obj
 0001:0005ac26       _LangCountryEnumProc@4     0045bc26 f   LIBC:getqloc.obj
 0001:0005ae2a       _GetLcidFromLanguage       0045be2a f   LIBC:getqloc.obj
 0001:0005ae80       _LanguageEnumProc@4        0045be80 f   LIBC:getqloc.obj
 0001:0005af3d       _GetLcidFromCountry        0045bf3d f   LIBC:getqloc.obj
 0001:0005af74       _CountryEnumProc@4         0045bf74 f   LIBC:getqloc.obj
 0001:0005affa       _GetLcidFromDefault        0045bffa f   LIBC:getqloc.obj
 0001:0005b014       _ProcessCodePage           0045c014 f   LIBC:getqloc.obj
 0001:0005b07a       _TestDefaultCountry        0045c07a f   LIBC:getqloc.obj
 0001:0005b099       _TestDefaultLanguage       0045c099 f   LIBC:getqloc.obj
 0001:0005b0fb       _IsThisWindowsNT           0045c0fb f   LIBC:getqloc.obj
 0001:0005b131       _crtGetLocaleInfoA@16      0045c131 f   LIBC:getqloc.obj
 0001:0005b217       _LcidFromHexString         0045c217 f   LIBC:getqloc.obj
 0001:0005b250       _GetPrimaryLen             0045c250 f   LIBC:getqloc.obj
 0001:0005a4d2       __get_lc_lconv             0045b4d2 f   LIBC:initmon.obj
 0001:0005a5f4       _fix_grouping              0045b5f4 f   LIBC:initmon.obj
 0001:0005a62b       __free_lc_lconv            0045b62b f   LIBC:initmon.obj
 0001:0005a5f4       _fix_grouping              0045b5f4 f   LIBC:initmon.obj
 0001:00059d54       __get_lc_time              0045ad54 f   LIBC:inittime.obj
 0001:0005a0a2       __free_lc_time             0045b0a2 f   LIBC:inittime.obj
 0001:00059980       LeadUp1                    0045a980 f   LIBC:memcpy.obj
 0001:000599ac       LeadUp2                    0045a9ac f   LIBC:memcpy.obj
 0001:000599d0       LeadUp3                    0045a9d0 f   LIBC:memcpy.obj
 0001:00059a4f       UnwindUp0                  0045aa4f f   LIBC:memcpy.obj
 0001:00059a3c       UnwindUp1                  0045aa3c f   LIBC:memcpy.obj
 0001:00059a34       UnwindUp2                  0045aa34 f   LIBC:memcpy.obj
 0001:00059a2c       UnwindUp3                  0045aa2c f   LIBC:memcpy.obj
 0001:00059a24       UnwindUp4                  0045aa24 f   LIBC:memcpy.obj
 0001:00059a1c       UnwindUp5                  0045aa1c f   LIBC:memcpy.obj
 0001:00059a14       UnwindUp6                  0045aa14 f   LIBC:memcpy.obj
 0001:00059a0c       UnwindUp7                  0045aa0c f   LIBC:memcpy.obj
 0001:00059a68       TrailUp0                   0045aa68 f   LIBC:memcpy.obj
 0001:00059a70       TrailUp1                   0045aa70 f   LIBC:memcpy.obj
 0001:00059a7c       TrailUp2                   0045aa7c f   LIBC:memcpy.obj
 0001:00059a90       TrailUp3                   0045aa90 f   LIBC:memcpy.obj
 0001:00059b08       LeadDown1                  0045ab08 f   LIBC:memcpy.obj
 0001:00059b28       LeadDown2                  0045ab28 f   LIBC:memcpy.obj
 0001:00059b50       LeadDown3                  0045ab50 f   LIBC:memcpy.obj
 0001:00059ba4       UnwindDown7                0045aba4 f   LIBC:memcpy.obj
 0001:00059bac       UnwindDown6                0045abac f   LIBC:memcpy.obj
 0001:00059bb4       UnwindDown5                0045abb4 f   LIBC:memcpy.obj
 0001:00059bbc       UnwindDown4                0045abbc f   LIBC:memcpy.obj
 0001:00059bc4       UnwindDown3                0045abc4 f   LIBC:memcpy.obj
 0001:00059bcc       UnwindDown2                0045abcc f   LIBC:memcpy.obj
 0001:00059bd4       UnwindDown1                0045abd4 f   LIBC:memcpy.obj
 0001:00059be7       UnwindDown0                0045abe7 f   LIBC:memcpy.obj
 0001:00059c00       TrailDown0                 0045ac00 f   LIBC:memcpy.obj
 0001:00059c08       TrailDown1                 0045ac08 f   LIBC:memcpy.obj
 0001:00059c18       TrailDown2                 0045ac18 f   LIBC:memcpy.obj
 0001:00059c2c       TrailDown3                 0045ac2c f   LIBC:memcpy.obj
 0001:000598dc       _store_dt                  0045a8dc f   LIBC:asctime.obj
 0001:00058061       __cftoe_g                  00459061 f   LIBC:cvt.obj
 0001:00058088       __cftof_g                  00459088 f   LIBC:cvt.obj
 0001:000580fc       __shift                    004590fc f   LIBC:cvt.obj
 0001:000574b1       _siglookup                 004584b1 f   LIBC:winsig.obj
 0001:000572bb       _write_char                004582bb f   LIBC:output.obj
 0001:000572f0       _write_multi_char          004582f0 f   LIBC:output.obj
 0001:00057321       _write_string              00458321 f   LIBC:output.obj
 0001:00057359       _get_int_arg               00458359 f   LIBC:output.obj
 0001:00057366       _get_int64_arg             00458366 f   LIBC:output.obj
 0001:00057376       _get_short_arg             00458376 f   LIBC:output.obj
 0001:000561ae       ?FindHandler@@YAXPAUEHExceptionRecord@@PAUEHRegistrationNode@@PAU_CONTEXT@@PAXPBU_s_FuncInfo@@EH1@Z 004571ae f   LIBC:frame.obj
 0001:00056355       ?FindHandlerForForeignException@@YAXPAUEHExceptionRecord@@PAUEHRegistrationNode@@PAU_CONTEXT@@PAXPBU_s_FuncInfo@@HH1@Z 00457355 f   LIBC:frame.obj
 0001:000563fd       ?TypeMatch@@YAHPBU_s_HandlerType@@PBU_s_CatchableType@@PBU_s_ThrowInfo@@@Z 004573fd f   LIBC:frame.obj
 0001:000564f8       ?FrameUnwindFilter@@YAHPAU_EXCEPTION_POINTERS@@@Z 004574f8 f   LIBC:frame.obj
 0001:0005650e       ?CatchIt@@YAXPAUEHExceptionRecord@@PAUEHRegistrationNode@@PAU_CONTEXT@@PAXPBU_s_FuncInfo@@PBU_s_HandlerType@@PBU_s_CatchableType@@PBU_s_TryBlockMapEntry@@H1E@Z 0045750e f   LIBC:frame.obj
 0001:00056589       ?CallCatchBlock@@YAPAXPAUEHExceptionRecord@@PAUEHRegistrationNode@@PAU_CONTEXT@@PBU_s_FuncInfo@@PAXHK@Z 00457589 f   LIBC:frame.obj
 0001:00056695       ?ExFilterRethrow@@YAHPAU_EXCEPTION_POINTERS@@@Z 00457695 f   LIBC:frame.obj
 0001:000566bf       ?BuildCatchObject@@YAXPAUEHExceptionRecord@@PAUEHRegistrationNode@@PBU_s_HandlerType@@PBU_s_CatchableType@@@Z 004576bf f   LIBC:frame.obj
 0001:000568ea       ?AdjustPointer@@YAPAXPAXABUPMD@@@Z 004578ea f   LIBC:frame.obj
 0001:00055c6e       _fast_error_exit           00456c6e f   LIBC:crt0.obj
 0001:00055264       __expandtime               00456264 f   LIBC:strftime.obj
 0001:00055653       __store_str                00456653 f   LIBC:strftime.obj
 0001:0005567a       __store_num                0045667a f   LIBC:strftime.obj
 0001:000556e9       __store_number             004566e9 f   LIBC:strftime.obj
 0001:00055732       __store_winword            00456732 f   LIBC:strftime.obj
 0001:00054c13       _flsall                    00455c13 f   LIBC:fflush.obj
 0001:00054ac0       _doexit                    00455ac0 f   LIBC:crt0dat.obj
 0001:00054b59       __initterm                 00455b59 f   LIBC:crt0dat.obj
 0001:0005447d       __setlocale_set_cat        0045547d f   LIBC:setlocal.obj
 0001:00054598       __setlocale_get_all        00455598 f   LIBC:setlocal.obj
 0001:00053910       LeadUp1                    00454910 f   LIBC:memmove.obj
 0001:0005393c       LeadUp2                    0045493c f   LIBC:memmove.obj
 0001:00053960       LeadUp3                    00454960 f   LIBC:memmove.obj
 0001:000539df       UnwindUp0                  004549df f   LIBC:memmove.obj
 0001:000539cc       UnwindUp1                  004549cc f   LIBC:memmove.obj
 0001:000539c4       UnwindUp2                  004549c4 f   LIBC:memmove.obj
 0001:000539bc       UnwindUp3                  004549bc f   LIBC:memmove.obj
 0001:000539b4       UnwindUp4                  004549b4 f   LIBC:memmove.obj
 0001:000539ac       UnwindUp5                  004549ac f   LIBC:memmove.obj
 0001:000539a4       UnwindUp6                  004549a4 f   LIBC:memmove.obj
 0001:0005399c       UnwindUp7                  0045499c f   LIBC:memmove.obj
 0001:000539f8       TrailUp0                   004549f8 f   LIBC:memmove.obj
 0001:00053a00       TrailUp1                   00454a00 f   LIBC:memmove.obj
 0001:00053a0c       TrailUp2                   00454a0c f   LIBC:memmove.obj
 0001:00053a20       TrailUp3                   00454a20 f   LIBC:memmove.obj
 0001:00053a98       LeadDown1                  00454a98 f   LIBC:memmove.obj
 0001:00053ab8       LeadDown2                  00454ab8 f   LIBC:memmove.obj
 0001:00053ae0       LeadDown3                  00454ae0 f   LIBC:memmove.obj
 0001:00053b34       UnwindDown7                00454b34 f   LIBC:memmove.obj
 0001:00053b3c       UnwindDown6                00454b3c f   LIBC:memmove.obj
 0001:00053b44       UnwindDown5                00454b44 f   LIBC:memmove.obj
 0001:00053b4c       UnwindDown4                00454b4c f   LIBC:memmove.obj
 0001:00053b54       UnwindDown3                00454b54 f   LIBC:memmove.obj
 0001:00053b5c       UnwindDown2                00454b5c f   LIBC:memmove.obj
 0001:00053b64       UnwindDown1                00454b64 f   LIBC:memmove.obj
 0001:00053b77       UnwindDown0                00454b77 f   LIBC:memmove.obj
 0001:00053b90       TrailDown0                 00454b90 f   LIBC:memmove.obj
 0001:00053b98       TrailDown1                 00454b98 f   LIBC:memmove.obj
 0001:00053ba8       TrailDown2                 00454ba8 f   LIBC:memmove.obj
 0001:00053bbc       TrailDown3                 00454bbc f   LIBC:memmove.obj
 0001:0005354c       _gu_return                 0045454c f   LIBC:exsup.obj
 0001:00053554       __unwind_handler           00454554 f   LIBC:exsup.obj
 0001:00053368       ?CatchGuardHandler@@YA?AW4_EXCEPTION_DISPOSITION@@PAUEHExceptionRecord@@PAUCatchGuardRN@@PAX2@Z 00454368 f   LIBC:trnsctrl.obj
 0001:00053441       ?TranslatorGuardHandler@@YA?AW4_EXCEPTION_DISPOSITION@@PAUEHExceptionRecord@@PAUTranslatorGuardRN@@PAX2@Z 00454441 f   LIBC:trnsctrl.obj

FIXUPS: 5488f ffffff82 9 e 25 9 e ffffff89 7 9 fffffe7a ffffffd5 1d fffffedf
FIXUPS: 542b3 4d 55 2f 103 17 3c 48 fffffd24 fffffff3 d1f 1f f 3c 13 11
FIXUPS: 54f15 8 8 19 ffffff8a 17 13 ffffff84 c 17 13 fffffe58 5 a ffffffc7
FIXUPS: 54ceb b ffffff45 19 12 58 e ffffff13 a 10 b 9d2 1a d 1e 24 6a 12
FIXUPS: 556ce 1e 24 11 17 18 c 29 1e 26 18 5c 2b 1c 24 fffff935 21 2b 12
FIXUPS: 550f3 1e 26 23 fffffee3 b af4 fffffeac 32 19 fffffeaf 13 14 25
FIXUPS: 55960 fffff947 53 3c e 20 21 17 22 34 22 13 26 d 16 30 17 7 41
FIXUPS: 55516 1a 35 23 26 b8a d 30 ffffff86 fffffdea 22 16 1a 15 8 ffffff55
FIXUPS: 55ec6 ffffffa9 ffffff5f a ffffff56 13 ffffff57 41 37 fffffe6e 9
FIXUPS: 55b9f 3c 32 34 1b fffffe2b f 11 11 73 11ea 2f 25 fffffe5b c a 10
FIXUPS: 56bf4 5 5 1c c 11 e e 9 1c 9 fffffec2 11 9 fffff64f 90 165 14c
FIXUPS: 56583 68 5c 4f 1a8 16 1e0 e19 c 7 1f 43 24 fffff805 1d ffffffb4
FIXUPS: 56e19 15 27 1e d 1c 6 b 3e 9 3b 4d 27 12 1d c 36 c 34 44 fffffcf9
FIXUPS: 56cf7 d 695 51 3a 78 1b e 45 1f 17 11 21 e 7d 2c 14 4a 7 93 12
FIXUPS: 5774f 1e 12 16 30 12 15 9 a e e 18 c 9b5 27 17 1e 18 11 60 32 37
FIXUPS: 57a6a b 29 38 1b fffffebd 56 ffffff2b 22 fffff7d4 23 58 2f 4b b
FIXUPS: 57243 32 49 42 1f 28 a 2a 124d 13 1a 14 d 11 12 16 19 fffffd76
FIXUPS: 58409 fffff80a 40 9d 19 68 8a d 2e 25 74 80 be 3b 18 c 15 8 8f
FIXUPS: 5812a 98 16 d74 20 16 2d 9 1f 27 45 12 24 23 2e 16 13 19 b fffffbcb
FIXUPS: 58c78 ffffffc0 19 fffffe26 e 82 fffffea2 48 50 22 fffffc79 107
FIXUPS: 58513 16 8a 21b9 12 ffffff38 ffffff91 fffff00f 106 f 7b8 157 b2
FIXUPS: 5a17d 4f b6 80 ffffee55 8b 56 e 24 1b 32 14 d fffffa18 1b ae 1b
FIXUPS: 58e11 13 26 41 a4 2246 8 8 8 8 8 8 8 e b b b b b b b b b b fffff64e
FIXUPS: 5a884 d c 19 11 ffffff1b 25 ffffffaf ffffff6c 17 9 c 8b1 17 14
FIXUPS: 5b03e 14 17 14 17 1f 8 8 8 8 8 7 8 8 8 8 8 8 8 8 8 b 8 8 8 8 8
FIXUPS: 5b165 8 fffffc51 14 11 e 11 14 11 11 11 14 11 11 11 14 11 11 11
FIXUPS: 5aeeb 11 11 11 14 11 11 11 14 11 11 11 17 14 14 66d 8 8 8 fffffbe8
FIXUPS: 5b268 10 d 13 b b 31 d d 50 b b 19 25 7 25 fffff90c 13 b 6 15 b
FIXUPS: 5ad38 b 48 11 11 ab6 10 8 21 b fffffb6f 13 b 6 34 b 3d b 35 10
FIXUPS: 5b516 10 13 a e 10 10 13 10 10 10 13 10 10 59 8 8 6db 64 2a 30
FIXUPS: 5bdf7 3a 27 33 41 34 e 36 3b 41 c 61 11 34 50 18 d 11c fffff4af
FIXUPS: 5b6c8 b d 9 a8 31 70 18 11 1798 e a 38 39 16 14 8 fffff548 ffffff70
FIXUPS: 5c408 e5 fffffdb7 16 fffff71e 41 24 29 7 f 7 18 9a 41 30 18 36
FIXUPS: 5bc33 3a 46 3f 1f c25 2c 37 2d 17 2f f0 1a 30 15 2a a6 1f 4f 17
FIXUPS: 5ccdb 6f 33 27 c 19 2b 11 29 17 49 3d 1e 23 17 60 2a 84e 66 fffffa05
FIXUPS: 5d295 11a 15 6 7 17 e 1e 2e 2b 42 ba 4f 2f 15 fffffb08 5d fffff4ea
FIXUPS: 5c670 8 b 12 53 f8 e a8 32 2c 23 1902 ffffff3c 6 2b ffffff01 23
FIXUPS: 5e0ee 13 fffffcaf 35 f 10 17 fffffed7 19 14 14 12 f e 9 17 fffffde6
FIXUPS: 5db1b f ffffffb3 a fffffe51 c2 32 fffffe7f 3e 136f 1c fffffeb7
FIXUPS: 5ea1f 1c ffffffbe 9 fffffc1e 17 5c f 151 12 16 c 1d 18 a c e 17
FIXUPS: 5e8a7 24 54 16 20 c 21 c fffffac4 17 20 1576 fffffe06 ffffff9d
FIXUPS: 5f662 ffffff76 10 fffffe1a 10 5c 6a fffffd52 22 f 1c f 15 11 e
FIXUPS: 5f2d8 23 fffffd90 fffffe6d 59 23 3e 29 16 11 e fffffb30 30 bd 15b8
FIXUPS: 60256 61 ec 4a 78 76 fffffa4f 14 18 18 96 6 a 6 1b 4b fffffaa6
FIXUPS: 5fc32 3a 31 5 151 24 28 aa fffffbd2 1c f 15 fffffdd4 7c 18c9 fffffbd0
FIXUPS: 60e2b 41 10c fffffd35 24 ffffff98 ffffff6b fffffee7 fffffe18 38
FIXUPS: 60923 28 b 1f 2f 11 6 38 fffffe4e 63 fffffda9 1d 4e 19 46 1d 26
FIXUPS: 60763 d 9 fffb744a e e 499a4 30 71 e 1e fffffef1 7 d ffffff81 fffffdbc
FIXUPS: 612bd 1c 1b 1b 21 1c 1f 28 28 8 11 24 25 6c 10 12 fffffbd4 17 10f
FIXUPS: 19c7a 26 a0 ffffded7 13 13 13 68 25 11 13 d 3f 13 10 f 3f c2 fffff199
FIXUPS: 17027 e 2c 7 5 41 18b 1e6 593 14 1c d8 c1 121d 93 16 16 363 76
FIXUPS: 19374 15e 94 29 f1 77 21 3d a c 236 d1 82 5a 5b a a a 28 a 6 13
FIXUPS: 19c18 6 22 23 ffffe718 1f 16 a 1d 26 c 6 56 26 a1 199 11a 35 1db
FIXUPS: 18a19 16 15 8 1c 62 9 9 14 5f 43 13 8 47 8 6f 1e fffff23e 13 13
FIXUPS: 17f00 68 144 1b 6 22 13 1f 19 6 19 1b c c 6 27 3e 11 16 d 36 13
FIXUPS: 1828e 1a 2a 21 11 5e 10 d0a5 1c fffff24c 12 12 12 15 12 12 12 15
FIXUPS: 24727 12 12 15 12 12 12 15 ffff55ec 13 13 13 77 85 4b 1b 17 2d
FIXUPS: 19fb4 88 15f 20b99 19 f 71 ffffd138 a5 c2 ffffe337 70 1f 12 117
FIXUPS: 3656a b2 24 28a 119 2c 21a 71 11d 2c 248 ffffb6ea 3817 34d fffeec75
FIXUPS: 24f8b a0 19 325 18 14bea 20 18 3d 24 18 3d 13 24 13 12d f 16 b2
FIXUPS: 3a9d0 17 27 1d b b 1d 2e 24 18 1f 36 13 15 f7 f b9 f 589f 18 7a
FIXUPS: 3ae4f 39 14 27 15 b 79 1e 1d 954 508 77a ffffd0ea 5e 5c 20 18 3f
FIXUPS: 397af 1d f 1e 24 2b 4e 5e 6 5ad 1b 5521 3c 49 29 31 6d 40 16b e5
FIXUPS: 3f802 ac 2f 244 19 3d 75 16 23 1b7 3f 6a 13 13 1aa 54 3a 51 2e
FIXUPS: 4034f 101 40 bb ffffdb58 1d 25 47 42 16c 5e 2b a9 35 11 2e 12 55
FIXUPS: 3e7fe 26 26 322 e8 50 d cc d e 65 1d 109 1c 19 3cd 65 52 ffffe2ab
FIXUPS: 3d6ef c 19 25 1d 9 fb 30 ee e3 31 80 38 96 7d 7e 3f 9d 51 79 2c
FIXUPS: 3dece d 63 2c 50 1a 14 3c d 41 fffff30b f f c 15 15 43 c 6 34 53
FIXUPS: 3d4cb 2e 12 f 17 1a 17 14 14 14 14 17 14 14 1e 14 12 c f c 16 fffff7e9
FIXUPS: 3ce7d 1f 1f 1f 1f 47 45 38 44 3b 75 87 36 7c 1e 2e 12 f 17 1d 14
FIXUPS: 3d2b6 14 14 17 17 14 17 14 14 c 49bc 1a 34 1d 16 15 ffffec8d ac
FIXUPS: 409c0 22 3f fffffdd6 a 36 a 15b b ffffbf94 a0 5f 140 2c a1 12 3c
FIXUPS: 3ccbb 36 d8 1f 19 19 1f 46c3 10 8 b 6 432 24 18 2b 24 18 26 13
FIXUPS: 41a4d a4 20 18 1d 2e 27 1a 26 27 1d 34 24 18 d 2c 20 1b 1a fffff552
FIXUPS: 412b5 15 11 1d b 1a c 1a 1f 1a 19 a a 8 d d b 1f 17 21 9 10 7 c
FIXUPS: 41475 9 10 7 28 1d 1a fffff9d3 21 13 28 30 21 13 f 24 24 18 13
FIXUPS: 4102b 26 24 1a 29 27 1d 2b 24 18 31 24 18 13 b a 1a c 13 1a 5677
FIXUPS: 44412 89 48 2d b0 38 2ae ffffd96f 23 12 5f 205 7d ffffe74e 24 18
FIXUPS: 40cdd 24 18 24 26 24 18 26 24 1a 29 27 1d b 1c 79cd 32 90 81 15c
FIXUPS: 48c02 50 28d 2a 94 14f 160 4e9 7 560 96 42 44 41 1a3 ffffab5b 635
FIXUPS: 45235 362 238 1e8 c54 c4 42 114 28 4d 462d 6a 47 47 47 50 4d 5c
FIXUPS: 4b145 53 47 47 47 47 43 1b 5a ffffc06e 61 48 4a 47 136 11a 996
FIXUPS: 48552 56 f5 2c b2 88 35 50fe d d b eb 6b 736 105 72 3c 4a 2f 4a
FIXUPS: 4e4a0 46 48 82 3a 142 d ffffb993 d7 2a 21 1a 1f9 8ec 16 26 1e dc
FIXUPS: 4ae54 ae6 49 32 4d 46 40 45 74 37 107 d 500 193 39 a7 478 2f 283
FIXUPS: 4cb3a 1d7 2da 134 c 173 1ee 133 1e 1b9 14e d d b 2418 28 69 2e8
FIXUPS: 50243 136 c3 323 b6 7d 174 ac 16b b1 7e 17b 1ac 165 238 185 b7
FIXUPS: 5169c 111 267 48 5c 3e ffff99a1 13b 24d 8e 51 790e 17d 32d 238
FIXUPS: 53abd b2 1d4 23e 1ae ffffa702 32 55 41 331 ce 27 20 e2 12 47 b5
FIXUPS: 4f057 39a 1a0 265 87 1a5 135 3a 32 f3 17 11998 c fff9fa55 2e d
FIXUPS: 1143 12 6052f a fff9fb6b 1f 42 25 42 c a 50c60 18 66 5e 41 25 27
FIXUPS: 520c1 58c 13e 1e 270 30e 242 e0 1b2 fffae3e6 10 78 1f 6003d c fff9fff8
FIXUPS: 16e8 5fffd c fffa002a 1c d0 2b 1e 33 6d 6 38 31 5b 2c fffff993
FIXUPS: 1394 d 16 ffffff42 2b d 16 fffffcd5 38 e42 3a 11 18 17 5f884 a
FIXUPS: 1f41 13 d 50 1f 21 1f 21 1f fffff384 60 d 53 22 12 601dc a fff9fe41
FIXUPS: 1505 18 23 15 26 29 30 60150 fffa03e0 d 50 f 5fbc4 b a fffa0488
FIXUPS: 1be1 9 1e 29 5fb24 c fffa04ff 14 d 10 1b 98 d 37 1c d 59 5f96d
FIXUPS: 61781 fffa06a9 b 12 2f 568 9 1a e 17 11 15 11 1c 2e 14 5f31c a
FIXUPS: 25c1 2a a9 55 5e 5b 2f 1f 21 1f 21 1f fffff220 10 19 17 5fc34 b
FIXUPS: 61718 fffa12ec 2a 26 6a 3b 5c fffff537 1a 5f70f c fffa0913 30 d
FIXUPS: 2127 6a 8e 9 22 5e 1b 17 17 8 14 9 1a e 17 11 15 11 1c 7db 1f 5ecb2
FIXUPS: 6185e fffa1366 d 16 2d 8f 54 34 16 1f 21 1f 21 1f fffffac9 29 5ef23
FIXUPS: 61801 fffa1122 22 5eecf a fffa1156 d 3f 12 5ee62 a fffa11bc c87
FIXUPS: 36a0 21 1f 2b 26 fffff6f2 13 11 7 5 5ea21 a fffa15f6 d 16 25 1f
FIXUPS: 61895 c fffa1660 2b 27 20 25 2b e 1f 21 1f 21 1f 2e4 d 45 e 5e520
FIXUPS: 618de fffa1af9 15 c e d 35 32 a 1e f 13 2e f b 12 f f 35 1f 2d
FIXUPS: 35da 27 2d e 20 11 24d 19 c 6 2e 13 c 6 1b 1b 9 b 24 12 10 20 10
FIXUPS: 3a19 d 23 d 2a 16 fffff75b 20 30 63 d 5e 1c 5e589 a fffa31ac 1f
FIXUPS: 4ab1 32 32 de 8f 18 10 1c 14 19 16 e c ffffed8d 134 34 5b fffffb01
FIXUPS: 3784 d 16 d 7 1c c 20 14 1d 16 32 5e11f b b c fffa2bce 94 1a 2c
FIXUPS: 46ab b3 3c 3c 36 6 17 23 59 c 2f 6 6 a 6 9 9f d 16 31 15 14 18
FIXUPS: 4a56 fffff68c 6 29 5d843 a fffa2898 1e 13 29 2a 1f 25 13 29 43
FIXUPS: 4351 2a 6e 13 d f 2e a 36 25 39 25 a 5d461 9 a 9 fffa4014 12 5c0be
FIXUPS: 61a7e fffa3f60 a3 57 1a 22 ffffe19d 22 46 42 101 33 5da66 c fffa25e3
FIXUPS: 3f21 11 5d9e2 a fffa2646 d 3f b 20 5d959 a fffa2733 c a fe5 a 24
FIXUPS: 50f0 21 1c 1e 3e 1f 3f 18 1f 1f 70 1a 35a a a a 41 18c 35 5c1f4
FIXUPS: 61a41 fffa3e5a 65 12 5c142 a fffa3ee6 d 43 395 18 36 30 5bcf0 a
FIXUPS: 5dfb fffffd3e 2b d 16 35 fffff1c0 3f 5cc1a c fffa3425 f7 4d 18
FIXUPS: 4f80 5ca74 a fffa35b6 d 43 10 13 13 12 5c9c8 a fffa4c2f 39 22 f
FIXUPS: 66c0 24 11 9 17 3b 59 71 13 aa 54 24 48 1d 28 5b1b8 a fffa4e6d
FIXUPS: 6a40 20 18 1d 60 11 fffff162 20 28 6a 50b 48 5b8a7 8 b b a fffa4768
FIXUPS: 62b1 41 18 17 23 1c d f 5b7c8 b b a fffa487f 2c 5b766 c fffa4940
FIXUPS: 64dc 3c 16 9 18 17 41 fffff9fc 24 e 5baff b a fffa451b d 13 50
FIXUPS: 61af7 a fffa4590 15 b 15 b 15 b 15 37 14 8 8 8 f 1e e 12 18 e 17
FIXUPS: 749b 33 12 20 56 d 10 27 9 c 17 20 35 a 60 4f e 12 5c 1b e f ffffe68c
FIXUPS: 5e21 39 12 5bc48 a fffa43d9 41 23 1c 10b5 3e 16 49 16 12 42 13
FIXUPS: 7115 1f 20 1d 29 29 1e 29 33 1d 3c 31 33 b 1a 23 30 14 43 17 12
FIXUPS: 740b 49 2b fffff70c 1f 3e a 15 12 9 2b 1a 9 49 1d 16 17 18 1f 37
FIXUPS: 6d7b 15 12 9 1e 1d 9 28 33 37 64 41 1a 20 45 945 31 e 18 d 18 18
FIXUPS: 799b f8 44 13 f 1dd 35 18 1c 3a 46 18 3c 25 3d 3d 80 fffff882 d
FIXUPS: 77f4 d 27 fffff31e 16 17 1741 d 3c 13 1b 598aa c fffa67aa 24 1f
FIXUPS: 8405 18 27 d fffffc04 6 e 1b d 25 9 fffffea7 10 24 13 23 31 15
FIXUPS: 8022 7 fffff84b 1f c68 596f9 a fffa698e 81 d 1b 38 2c 12 45 29
FIXUPS: 8730 3d 20 a 80 fffff8da a 10 a 1f d 3c a 44 a 1c 33 1b 59976 c
FIXUPS: 94f7 18 fffff425 30 d 42 12 5924f a fffa6dde 33 59206 c fffa6e8e
FIXUPS: 8aea 5d 2a 38 18 32 1a c 6 c fffffc5e 1b d 16 fffffbc2 1b d 3b
FIXUPS: 8e05 47 13 21 16 28 15 17 1e 33 16 12 28 1b 2c 11 2f 48 34 2c eb
FIXUPS: 91cd 55 fa e 6d 16 14 7c 7 27 15 451 1d 7 1c 84 11 fffffb83 28
FIXUPS: 9576 1e d fb 28 d 45 fffff562 6 a 1c 58fb1 c fffa70ad 39 58f2d
FIXUPS: 61c7e fffa70e6 d 48 6 12 58ec3 a fffa89f8 8 9 b7 f 68 e fffffd1c
FIXUPS: a51c 4d 14 f fffff4b5 1f 67 97e 28 d d fffff2cd d 25 1e d 3b 28
FIXUPS: 9821 4d 2d 58419 a fffa7c06 1f40 18 16 18 1f f 47 50 27 7 49 4d
FIXUPS: b9f3 16 10 53 d b ffffeb22 e e 15 15 b 12 16 9 6 1b 19 16 b e43
FIXUPS: b4cf 12 9 f f 7 28 7 58 d 3c 13 c 9 11 5676c a fffa98b7 75 9 7
FIXUPS: b6d3 17 c 3c 39 20 14 26 7 a fffff898 28 16 16 18 1a 2a 5f 12 13
FIXUPS: b1ee 2f 47 25 2c 23 7 7 2c 12 7 7 25 83 3c 13 1c 13 c 26 c 15 56874
FIXUPS: 61d27 a fffa8efb 3d 570dc c fffa8f87 9 1b 1a 2a 57025 c fffa900c
FIXUPS: ad92 6 1f 11 c 11 45 19 2a 2c 5e 58 1d 3f 18 1a 2c fffff8d4 9e
FIXUPS: a980 13 1e 25 2b 21 25 c 57281 b 9 b c fffa8da0 1c 29 d 44 11 14
FIXUPS: ab68 a c 22 1e 6 c f f 57126 fffa9ec3 35 20 6 4b 12 27 23 e 11
FIXUPS: bd06 f 2a e 11 e f 11 12 15 12 28 12 d f 11 58 11 ffffe97b 4f 37
FIXUPS: a8aa 18b9 3f 16 61 f 7e 34 9c 23 1b 18 29 1b 54 30 d dc 2b 22 1f
FIXUPS: c624 3d 14 1b 12 72 d fffff416 2a 31 1c 19 f46 1b 1b 25 552cd c
FIXUPS: cb8b aa 1f d 54 fffff234 18 13 d 36 11 49 20 55dd4 c fffaa276 36
FIXUPS: c070 2e 22 18 10 55cdd c fffaa346 13 6ab 13 14 13 19 555bc b 9
FIXUPS: 61e04 fffaaa50 d 52 10 f 55542 b a fffaaaf7 4e 3f 14 f 3a 22 6
FIXUPS: ca45 18 27 d 1c 14 3f 1111 2e 3e 12 24 fffff0c2 13 b b 15 550a1
FIXUPS: 61e5e fffaaf92 d 17 1b 16 55030 c fffaafea 31 28 d 83 d 1e 72 2c
FIXUPS: d057 1d fffff700 14 b0d 8 23 6 6 11 6 8 4c 481 23 20 20 4a 19 2e
FIXUPS: d8e0 26 5458e a fffaba95 32 23 b7 16 e cc 13 9 1a 2c 35 3a72 23
FIXUPS: 11691 18 18 1f 18 23 26 d 31 1a a 3c 68 506ae c fffaf9a3 ffffb880
FIXUPS: d133 14 6 8 36 8 3e 1d 26 26 22 22 11 3fc6 28 1f 18 31 2e 1a 20
FIXUPS: 1136d 1a a 5b e 22 1f 1f 3d c 37 18 19 27 1f 2a 15 15 15 15 15
FIXUPS: 115f9 15 15 fffff44c 49 49 49 49 49 4c 14d 5 1c 48 50 e 5 1c 52
FIXUPS: 10eff 69 69 50 4f 9 9 3d 4c 1d d 25 b 7f 37 19 fffff0f9 22 26 1a
FIXUPS: 103c6 12 3d 50 15 15 6 48 26 41 6e 1d 15 44 49 49 49 49 49 49 49
FIXUPS: 10870 49 49 49 49 49 49 fffff35e 19 1c 9d a a a 6a 1c a9 15 12
FIXUPS: ffd9 3b 19 42 11 18 3b 12 3d 50 15 15 6 b1 15 12 f 3b 19 41 fffff1ab
FIXUPS: f4d6 1f 16 6 a 529b9 a fffad827 1c 8a 74 5a 19 42 d 16 65 1c 24
FIXUPS: f9d4 10 34 18 ee 2b 10 21 129 34 45 6 fffff31c 34 3a c7 3f e 30
FIXUPS: f1fd 36 d a 59 6 20 a 6 3b 12 1f 39 c d 1f 2d c 12 1f 28 1f 30
FIXUPS: f4a3 13 fffff702 a 9 b 10 21 15 40 6a a2 73 37 14 29 c b 2b 4d
FIXUPS: eefd f 1c a 1c 9 a 4b 18 10 16 1a 13 12 fffff3d8 56 25 2f 16 6
FIXUPS: e51c 68 e 56 12 43 2cf 27 47 7 73 1a 36 22 32 a 14 14 b f 24 6
FIXUPS: eb16 46 1a 2e 3355 11 a 1f8 28 28 ffffbbe3 20 1c d 55 17 13 d 9b
FIXUPS: e084 e 40 53de2 a fffac236 d 16 73 23 4f 24 97 56 bd a f 7022 14
FIXUPS: 15463 4a 4a 4a 47 52 6 65 3a 45 4c951 c fffb3729 80 ffffc3f1 30
FIXUPS: 11c1b 30 30 30 30 30 30 30 ac 49 f 2a 11 a 2f51 3a 47 6 74 19 28
FIXUPS: 14fc4 a a a 86 1c 20 1c 4e 1c 6c de 11 3e c a a a a 2b 13 1c 64
FIXUPS: 153de 8 fffff206 13 d 1f 9 6 a 4d990 a fffb2705 11 f 36 2b 16 4d87a
FIXUPS: 61ffe fffb2a0a 1c 3a 2e 3c 26 21 32 d 34 15 e9 28 d 21 fffff40d
FIXUPS: 140f8 33 3b c5 3f e 30 d 5c e b 73 6 20 a 6 47 12 1f 45 c d 1f
FIXUPS: 14501 c 12 1f 34 1f 3c c fffff655 130 56 14 26 8 17 20 8 11 d 13
FIXUPS: 13e80 13 12 15 26 25 c 1c 19 1c 14 a a 4e02a a fffb20c3 d 16 1a
FIXUPS: 140d1 fffff149 2c 2c0 64 21 22 57 69 71 128 b5 77 3c 33 1f 21 1f
FIXUPS: 13a21 1f 24 e 15 23 17 19 1c 1e 1c 24 1c 2a 1c ffffedc0 f 4f615
FIXUPS: 61fa4 fffb0a4a 91 29 25 6 2c 29 25 6 4b 6f 7e 158 43 a0 26 19 1c
FIXUPS: 12f3d 7 7c 30 91 25 78 7 a c4 fffff2a5 f 22 12 49 2d 4f9e3 a fffb0656
FIXUPS: 125a1 54 8 c 1e 4f92d a fffb06e7 2a 31 f 5 fb 23 21 4f787 a fffb0890
FIXUPS: 12821 76 2f 28 5c 4f754 fffb3fc7 a 76 17 2a 21 a ffffc030 5 30
FIXUPS: 121cc 46 11 2b 4fcc7 c fffb037c 69 38 44 21 a 11 1d 13 d 1e 2b
FIXUPS: 12453 6 2a 362f 9 9 12 4c59e a fffb3ce0 6 6 37 10 f 47 40 a f 11
FIXUPS: 15eab 2b 14 a a 33 13 d 48 2b d 3f 9 12 4c069 fffb49ad 4b676 b
FIXUPS: 620cc fffb4995 6 d 5 8 1f 21 1f 21 1f fffff65f 39 fffff761 38 4c6e4
FIXUPS: 62041 fffb3963 35 19 19 19 d 4c623 a fffb39f6 d 3f 9 a68 8 f 87
FIXUPS: 165dc 4c f 26 45 3d d 27 42 12 25 d 30 77 2c 43 e 1f 10 22 14 19
FIXUPS: 16983 17 c 4e 15 24 286 1d9 a4 1c fffffcda 1e d 16 fffffefd d 33
FIXUPS: 16bb1 fffff665 19 1e 1c 1c 22 1c 1c 1c 1f 1c 2f a 43 a 1e a 97
FIXUPS: 16495 50

 970 bytes saved through ICF

